; ModuleID = 'cnminer0-e4555037bd6402804b4cf42ac053e1be.rs'
source_filename = "cnminer0-e4555037bd6402804b4cf42ac053e1be.rs"
target datalayout = "e-m:w-i64:64-f80:128-n8:16:32:64-S128"
target triple = "x86_64-pc-windows-msvc"

%str_slice = type { i8*, i64 }
%"core::fmt::ArgumentV1" = type { %"core::fmt::Void"*, [0 x i8], i8 (%"core::fmt::Void"*, %"core::fmt::Formatter"*)*, [0 x i8] }
%"core::fmt::Void" = type { {}, [0 x i8] }
%"core::fmt::Formatter" = type { %"core::option::Option<usize>", [0 x i8], %"core::option::Option<usize>", [0 x i8], { i8*, void (i8*)** }, [0 x i8], %"core::slice::Iter<core::fmt::ArgumentV1>", [0 x i8], { %"core::fmt::ArgumentV1"*, i64 }, [0 x i8], i32, [0 x i8], i32, [0 x i8], i8, [7 x i8] }
%"core::option::Option<usize>" = type { i64, [0 x i64], [1 x i64] }
%"core::slice::Iter<core::fmt::ArgumentV1>" = type { %"core::fmt::ArgumentV1"*, [0 x i8], %"core::fmt::ArgumentV1"*, [0 x i8], %"core::marker::PhantomData<&core::fmt::ArgumentV1>", [0 x i8] }
%"core::marker::PhantomData<&core::fmt::ArgumentV1>" = type {}
%"core::ops::range::Range<usize>" = type { i64, [0 x i8], i64, [0 x i8] }
%"core::ops::range::RangeFrom<usize>" = type { i64, [0 x i8] }
%"alloc::vec::Vec<u8>" = type { %"alloc::raw_vec::RawVec<u8, alloc::heap::Heap>", [0 x i8], i64, [0 x i8] }
%"alloc::raw_vec::RawVec<u8, alloc::heap::Heap>" = type { %"core::ptr::Unique<u8>", [0 x i8], i64, [0 x i8], %"alloc::heap::Heap", [0 x i8] }
%"core::ptr::Unique<u8>" = type { %"core::nonzero::NonZero<*const u8>", [0 x i8], %"core::marker::PhantomData<u8>", [0 x i8] }
%"core::nonzero::NonZero<*const u8>" = type { i8*, [0 x i8] }
%"core::marker::PhantomData<u8>" = type {}
%"alloc::heap::Heap" = type {}
%"core::ops::range::RangeFull" = type {}
%"core::nonzero::NonZero<*const alloc::vec::Vec<u8>>" = type { %"alloc::vec::Vec<u8>"*, [0 x i8] }
%"alloc::arc::ArcInner<std::sys_common::remutex::ReentrantMutex<core::cell::RefCell<std::io::buffered::LineWriter<std::io::stdio::Maybe<std::io::stdio::StdoutRaw>>>>>" = type { %"core::sync::atomic::AtomicUsize", [0 x i8], %"core::sync::atomic::AtomicUsize", [0 x i8], %"std::sys_common::remutex::ReentrantMutex<core::cell::RefCell<std::io::buffered::LineWriter<std::io::stdio::Maybe<std::io::stdio::StdoutRaw>>>>", [0 x i8] }
%"core::sync::atomic::AtomicUsize" = type { %"core::cell::UnsafeCell<usize>", [0 x i8] }
%"core::cell::UnsafeCell<usize>" = type { i64, [0 x i8] }
%"std::sys_common::remutex::ReentrantMutex<core::cell::RefCell<std::io::buffered::LineWriter<std::io::stdio::Maybe<std::io::stdio::StdoutRaw>>>>" = type { %"std::sys::imp::mutex::ReentrantMutex"*, [0 x i8], %"core::cell::RefCell<std::io::buffered::LineWriter<std::io::stdio::Maybe<std::io::stdio::StdoutRaw>>>", [0 x i8], %"std::sys_common::poison::Flag", [7 x i8] }
%"std::sys::imp::mutex::ReentrantMutex" = type { %"core::cell::UnsafeCell<std::sys::imp::c::CRITICAL_SECTION>", [0 x i8] }
%"core::cell::UnsafeCell<std::sys::imp::c::CRITICAL_SECTION>" = type { %"std::sys::imp::c::CRITICAL_SECTION", [0 x i8] }
%"std::sys::imp::c::CRITICAL_SECTION" = type { i8*, [0 x i8], i32, [0 x i8], i32, [0 x i8], i8*, [0 x i8], i8*, [0 x i8], i64, [0 x i8] }
%"core::cell::RefCell<std::io::buffered::LineWriter<std::io::stdio::Maybe<std::io::stdio::StdoutRaw>>>" = type { %"core::cell::Cell<usize>", [0 x i8], %"core::cell::UnsafeCell<std::io::buffered::LineWriter<std::io::stdio::Maybe<std::io::stdio::StdoutRaw>>>", [0 x i8] }
%"core::cell::Cell<usize>" = type { %"core::cell::UnsafeCell<usize>", [0 x i8] }
%"core::cell::UnsafeCell<std::io::buffered::LineWriter<std::io::stdio::Maybe<std::io::stdio::StdoutRaw>>>" = type { %"std::io::buffered::LineWriter<std::io::stdio::Maybe<std::io::stdio::StdoutRaw>>", [0 x i8] }
%"std::io::buffered::LineWriter<std::io::stdio::Maybe<std::io::stdio::StdoutRaw>>" = type { %"std::io::buffered::BufWriter<std::io::stdio::Maybe<std::io::stdio::StdoutRaw>>", [0 x i8], i8, [7 x i8] }
%"std::io::buffered::BufWriter<std::io::stdio::Maybe<std::io::stdio::StdoutRaw>>" = type { %"alloc::vec::Vec<u8>", [0 x i8], %"core::option::Option<std::io::stdio::Maybe<std::io::stdio::StdoutRaw>>", [0 x i8], i8, [5 x i8] }
%"core::option::Option<std::io::stdio::Maybe<std::io::stdio::StdoutRaw>>" = type { i8, [0 x i8], [1 x i8] }
%"std::sys_common::poison::Flag" = type { %"core::sync::atomic::AtomicBool", [0 x i8] }
%"core::sync::atomic::AtomicBool" = type { %"core::cell::UnsafeCell<u8>", [0 x i8] }
%"core::cell::UnsafeCell<u8>" = type { i8, [0 x i8] }
%"alloc::arc::Arc<std::sys_common::remutex::ReentrantMutex<core::cell::RefCell<std::io::buffered::LineWriter<std::io::stdio::Maybe<std::io::stdio::StdoutRaw>>>>>" = type { %"core::ptr::Shared<alloc::arc::ArcInner<std::sys_common::remutex::ReentrantMutex<core::cell::RefCell<std::io::buffered::LineWriter<std::io::stdio::Maybe<std::io::stdio::StdoutRaw>>>>>>", [0 x i8] }
%"core::ptr::Shared<alloc::arc::ArcInner<std::sys_common::remutex::ReentrantMutex<core::cell::RefCell<std::io::buffered::LineWriter<std::io::stdio::Maybe<std::io::stdio::StdoutRaw>>>>>>" = type { %"core::nonzero::NonZero<*const alloc::arc::ArcInner<std::sys_common::remutex::ReentrantMutex<core::cell::RefCell<std::io::buffered::LineWriter<std::io::stdio::Maybe<std::io::stdio::StdoutRaw>>>>>>", [0 x i8], %"core::marker::PhantomData<alloc::arc::ArcInner<std::sys_common::remutex::ReentrantMutex<core::cell::RefCell<std::io::buffered::LineWriter<std::io::stdio::Maybe<std::io::stdio::StdoutRaw>>>>>>", [0 x i8] }
%"core::nonzero::NonZero<*const alloc::arc::ArcInner<std::sys_common::remutex::ReentrantMutex<core::cell::RefCell<std::io::buffered::LineWriter<std::io::stdio::Maybe<std::io::stdio::StdoutRaw>>>>>>" = type { %"alloc::arc::ArcInner<std::sys_common::remutex::ReentrantMutex<core::cell::RefCell<std::io::buffered::LineWriter<std::io::stdio::Maybe<std::io::stdio::StdoutRaw>>>>>"*, [0 x i8] }
%"core::marker::PhantomData<alloc::arc::ArcInner<std::sys_common::remutex::ReentrantMutex<core::cell::RefCell<std::io::buffered::LineWriter<std::io::stdio::Maybe<std::io::stdio::StdoutRaw>>>>>>" = type {}
%"alloc::allocator::Layout" = type { i64, [0 x i8], i64, [0 x i8] }
%"alloc::vec::Drain<u8>" = type { i64, [0 x i8], i64, [0 x i8], %"core::slice::Iter<u8>", [0 x i8], %"core::ptr::Shared<alloc::vec::Vec<u8>>", [0 x i8] }
%"core::slice::Iter<u8>" = type { i8*, [0 x i8], i8*, [0 x i8], %"core::marker::PhantomData<&u8>", [0 x i8] }
%"core::marker::PhantomData<&u8>" = type {}
%"core::ptr::Shared<alloc::vec::Vec<u8>>" = type { %"core::nonzero::NonZero<*const alloc::vec::Vec<u8>>", [0 x i8], %"core::marker::PhantomData<alloc::vec::Vec<u8>>", [0 x i8] }
%"core::marker::PhantomData<alloc::vec::Vec<u8>>" = type {}
%"alloc::Bound<&usize>" = type { i64, [0 x i64], [1 x i64] }
%"core::ops::range::RangeTo<usize>" = type { i64, [0 x i8] }
%"core::option::Option<u8>" = type { i8, [0 x i8], [1 x i8] }
%closure = type {}
%"std::io::stdio::Maybe<std::io::stdio::StdoutRaw>" = type { i8, [0 x i8], [0 x i8] }
%"core::option::Option<alloc::allocator::Layout>" = type { i64, [0 x i64], [2 x i64] }
%"std::io::error::Error" = type { %"std::io::error::Repr", [0 x i8] }
%"std::io::error::Repr" = type { i8, [7 x i8], [1 x i64] }
%"core::result::Result<usize, std::io::error::Error>" = type { i64, [0 x i64], [2 x i64] }
%"alloc::allocator::AllocErr" = type { i64, [0 x i64], [2 x i64] }
%"core::mem::ManuallyDrop<alloc::allocator::AllocErr>" = type { [3 x i64] }
%"core::result::Result<(), std::io::error::Error>" = type { i64, [0 x i64], [2 x i64] }
%"core::result::Result<*mut u8, alloc::allocator::AllocErr>" = type { i64, [0 x i64], [3 x i64] }
%"core::option::Option<isize>" = type { i64, [0 x i64], [1 x i64] }
%"core::result::Result<usize, core::convert::Infallible>" = type { i64, [0 x i64], [1 x i64] }
%"core::fmt::Arguments" = type { { %str_slice*, i64 }, [0 x i8], %"core::option::Option<&[core::fmt::rt::v1::Argument]>", [0 x i8], { %"core::fmt::ArgumentV1"*, i64 }, [0 x i8] }
%"core::option::Option<&[core::fmt::rt::v1::Argument]>" = type { { %"core::fmt::rt::v1::Argument"*, i64 }, [0 x i8] }
%"core::fmt::rt::v1::Argument" = type { %"core::fmt::rt::v1::Position", [0 x i8], %"core::fmt::rt::v1::FormatSpec", [0 x i8] }
%"core::fmt::rt::v1::Position" = type { i64, [0 x i64], [1 x i64] }
%"core::fmt::rt::v1::FormatSpec" = type { %"core::fmt::rt::v1::Count", [0 x i8], %"core::fmt::rt::v1::Count", [0 x i8], i32, [0 x i8], i32, [0 x i8], i8, [7 x i8] }
%"core::fmt::rt::v1::Count" = type { i64, [0 x i64], [1 x i64] }
%"core::ptr::swap_nonoverlapping_bytes::UnalignedBlock" = type { i64, [0 x i8], i64, [0 x i8], i64, [0 x i8], i64, [0 x i8] }
%"oaes::AesKey" = type { %"alloc::vec::Vec<u8>", [0 x i8], i64, [0 x i8], %"alloc::vec::Vec<u8>", [0 x i8], i64, [0 x i8], i64, [0 x i8], i64, [0 x i8] }
%"oaes::AesContext" = type { %"oaes::AesKey", [0 x i8] }
%"cryptonight::CNContext" = type { %"oaes::AesContext", [0 x i8], [2097152 x i8], [0 x i8], %"cryptonight::SlowHashState", [0 x i8], [128 x i8], [0 x i8], [16 x i8], [0 x i8], [16 x i8], [0 x i8], [16 x i8], [0 x i8] }
%"cryptonight::SlowHashState" = type <{ [200 x i8] }>
%"std::io::error::Custom" = type { i8, [7 x i8], { i8*, void (i8*)** }, [0 x i8] }
%"std::io::stdio::Stdout" = type { %"alloc::arc::Arc<std::sys_common::remutex::ReentrantMutex<core::cell::RefCell<std::io::buffered::LineWriter<std::io::stdio::Maybe<std::io::stdio::StdoutRaw>>>>>", [0 x i8] }
%"core::ops::range::Range<isize>" = type { i64, [0 x i8], i64, [0 x i8] }
%"core::slice::Repr<u8>" = type { i8*, [0 x i8], i64, [0 x i8] }
%"core::result::Result<(), core::fmt::Error>" = type { i8, [0 x i8], [0 x i8] }
%"std::io::stdio::StdoutRaw" = type { %"std::sys::imp::stdio::Stdout", [0 x i8] }
%"std::sys::imp::stdio::Stdout" = type {}
%"cryptonight::SlowHashStateInner" = type <{ [64 x i8], [0 x i8], [128 x i8], [0 x i8] }>
%"cryptonight::HashState" = type <{ [200 x i8] }>

@_ZN7cnminer6keccak11KECCAK_RNDC17h3cd68d8f47688a6aE = internal constant [24 x i64] [i64 1, i64 32898, i64 -9223372036854742902, i64 -9223372034707259392, i64 32907, i64 2147483649, i64 -9223372034707259263, i64 -9223372036854743031, i64 138, i64 136, i64 2147516425, i64 2147483658, i64 2147516555, i64 -9223372036854775669, i64 -9223372036854742903, i64 -9223372036854743037, i64 -9223372036854743038, i64 -9223372036854775680, i64 32778, i64 -9223372034707292150, i64 -9223372034707259263, i64 -9223372036854742912, i64 2147483649, i64 -9223372034707259384], align 8, !dbg !0
@_ZN7cnminer6keccak11KECCAK_ROTC17h2897c9db01bfd0bbE = internal constant [24 x i32] [i32 1, i32 3, i32 6, i32 10, i32 15, i32 21, i32 28, i32 36, i32 45, i32 55, i32 2, i32 14, i32 27, i32 41, i32 56, i32 8, i32 25, i32 43, i32 62, i32 18, i32 39, i32 61, i32 20, i32 44], align 4, !dbg !10
@_ZN7cnminer6keccak11KECCAK_PILN17hf4c4e646cb7579c1E = internal constant [24 x i64] [i64 10, i64 7, i64 11, i64 17, i64 18, i64 3, i64 5, i64 16, i64 8, i64 21, i64 24, i64 4, i64 15, i64 23, i64 19, i64 13, i64 12, i64 2, i64 20, i64 14, i64 22, i64 9, i64 6, i64 1], align 8, !dbg !14
@_ZN7cnminer4oaes9OAES_GF_817h7014b4e7e5457a92E = internal constant [10 x i8] c"\01\02\04\08\10 @\80\1B6", align 1, !dbg !18
@_ZN7cnminer4oaes19OAES_SUB_BYTE_VALUE17ha6caab62e0fec619E = internal constant [16 x [16 x i8]] [[16 x i8] c"c|w{\F2ko\C50\01g+\FE\D7\ABv", [16 x i8] c"\CA\82\C9}\FAYG\F0\AD\D4\A2\AF\9C\A4r\C0", [16 x i8] c"\B7\FD\93&6?\F7\CC4\A5\E5\F1q\D81\15", [16 x i8] c"\04\C7#\C3\18\96\05\9A\07\12\80\E2\EB'\B2u", [16 x i8] c"\09\83,\1A\1BnZ\A0R;\D6\B3)\E3/\84", [16 x i8] c"S\D1\00\ED \FC\B1[j\CB\BE9JLX\CF", [16 x i8] c"\D0\EF\AA\FBCM3\85E\F9\02\7FP<\9F\A8", [16 x i8] c"Q\A3@\8F\92\9D8\F5\BC\B6\DA!\10\FF\F3\D2", [16 x i8] c"\CD\0C\13\EC_\97D\17\C4\A7~=d]\19s", [16 x i8] c"`\81O\DC\22*\90\88F\EE\B8\14\DE^\0B\DB", [16 x i8] c"\E02:\0AI\06$\5C\C2\D3\ACb\91\95\E4y", [16 x i8] c"\E7\C87m\8D\D5N\A9lV\F4\EAez\AE\08", [16 x i8] c"\BAx%.\1C\A6\B4\C6\E8\DDt\1FK\BD\8B\8A", [16 x i8] c"p>\B5fH\03\F6\0Ea5W\B9\86\C1\1D\9E", [16 x i8] c"\E1\F8\98\11i\D9\8E\94\9B\1E\87\E9\CEU(\DF", [16 x i8] c"\8C\A1\89\0D\BF\E6BhA\99-\0F\B0T\BB\16"], align 1, !dbg !26
@_ZN7cnminer11cryptonight4LUT117h7ec7991d92e5f3c3E = internal constant [256 x i32] [i32 -1520213050, i32 -2072216328, i32 -1720223762, i32 -1921287178, i32 234025727, i32 -1117033514, i32 -1318096930, i32 1422247313, i32 1345335392, i32 50397442, i32 -1452841010, i32 2099981142, i32 436141799, i32 1658312629, i32 -424957107, i32 -1703512340, i32 1170918031, i32 -1652391393, i32 1086966153, i32 -2021818886, i32 368769775, i32 -346465870, i32 -918075506, i32 200339707, i32 -324162239, i32 1742001331, i32 -39673249, i32 -357585083, i32 -1080255453, i32 -140204973, i32 -1770884380, i32 1539358875, i32 -1028147339, i32 486407649, i32 -1366060227, i32 1780885068, i32 1513502316, i32 1094664062, i32 49805301, i32 1338821763, i32 1546925160, i32 -190470831, i32 887481809, i32 150073849, i32 -1821281822, i32 1943591083, i32 1395732834, i32 1058346282, i32 201589768, i32 1388824469, i32 1696801606, i32 1589887901, i32 672667696, i32 -1583966665, i32 251987210, i32 -1248159185, i32 151455502, i32 907153956, i32 -1686077413, i32 1038279391, i32 652995533, i32 1764173646, i32 -843926913, i32 -1619692054, i32 453576978, i32 -1635548387, i32 1949051992, i32 773462580, i32 756751158, i32 -1301385508, i32 -296068428, i32 -73359269, i32 -162377052, i32 1295727478, i32 1641469623, i32 -827083907, i32 2066295122, i32 1055122397, i32 1898917726, i32 -1752923117, i32 -179088474, i32 1758581177, i32 0, i32 753790401, i32 1612718144, i32 536673507, i32 -927878791, i32 -312779850, i32 -1100322092, i32 1187761037, i32 -641810841, i32 1262041458, i32 -565556588, i32 -733197160, i32 -396863312, i32 1255133061, i32 1808847035, i32 720367557, i32 -441800113, i32 385612781, i32 -985447546, i32 -682799718, i32 1429418854, i32 -1803188975, i32 -817543798, i32 284817897, i32 100794884, i32 -2122350594, i32 -263171936, i32 1144798328, i32 -1163944155, i32 -475486133, i32 -212774494, i32 -22830243, i32 -1069531008, i32 -1970303227, i32 -1382903233, i32 -1130521311, i32 1211644016, i32 83228145, i32 -541279133, i32 -1044990345, i32 1977277103, i32 1663115586, i32 806359072, i32 452984805, i32 250868733, i32 1842533055, i32 1288555905, i32 336333848, i32 890442534, i32 804056259, i32 -513843266, i32 -1567123659, i32 -867941240, i32 957814574, i32 1472513171, i32 -223893675, i32 -2105639172, i32 1195195770, i32 -1402706744, i32 -413311558, i32 723065138, i32 -1787595802, i32 -1604296512, i32 -1736343271, i32 -783331426, i32 2145180835, i32 1713513028, i32 2116692564, i32 -1416589253, i32 -2088204277, i32 -901364084, i32 703524551, i32 -742868885, i32 1007948840, i32 2044649127, i32 -497131844, i32 487262998, i32 1994120109, i32 1004593371, i32 1446130276, i32 1312438900, i32 503974420, i32 -615954030, i32 168166924, i32 1814307912, i32 -463709000, i32 1573044895, i32 1859376061, i32 -273896381, i32 -1503501628, i32 -1466855111, i32 -1533700815, i32 937747667, i32 -1954973198, i32 854058965, i32 1137232011, i32 1496790894, i32 -1217565222, i32 -1936880383, i32 1691735473, i32 -766620004, i32 -525751991, i32 -1267962664, i32 -95005012, i32 133494003, i32 636152527, i32 -1352309302, i32 -1904575756, i32 -374428089, i32 403179536, i32 -709182865, i32 -2005370640, i32 1864705354, i32 1915629148, i32 605822008, i32 -240736681, i32 -944458637, i32 1371981463, i32 602466507, i32 2094914977, i32 -1670089496, i32 555687742, i32 -582268010, i32 -591544991, i32 -2037675251, i32 -2054518257, i32 -1871679264, i32 1111375484, i32 -994724495, i32 -1436129588, i32 -666351472, i32 84083462, i32 32962295, i32 302911004, i32 -1553899070, i32 1597322602, i32 -111716434, i32 -793134743, i32 -1853454825, i32 1489093017, i32 656219450, i32 -1180787161, i32 954327513, i32 335083755, i32 -1281845205, i32 856756514, i32 -1150719534, i32 1893325225, i32 -1987146233, i32 -1483434957, i32 -1231316179, i32 572399164, i32 -1836611819, i32 552200649, i32 1238290055, i32 -11184726, i32 2015897680, i32 2061492133, i32 -1886614525, i32 -123625127, i32 -2138470135, i32 386731290, i32 -624967835, i32 837215959, i32 -968736124, i32 -1201116976, i32 -1019133566, i32 -1332111063, i32 1999449434, i32 286199582, i32 -877612933, i32 -61582168, i32 -692339859, i32 974525996], align 4, !dbg !32
@_ZN7cnminer11cryptonight4LUT217h1a97f03bb99ed488E = internal constant [256 x i32] [i32 1667483301, i32 2088564868, i32 2004348569, i32 2071721613, i32 -218956019, i32 1802229437, i32 1869602481, i32 -976907948, i32 808476752, i32 16843267, i32 1734856361, i32 724260477, i32 -16849127, i32 -673729182, i32 -1414836762, i32 1987505306, i32 -892694715, i32 -2105401443, i32 -909539008, i32 2105408135, i32 -84218091, i32 1499050731, i32 1195871945, i32 -252642549, i32 -1381154324, i32 -724257945, i32 -1566416899, i32 -1347467798, i32 -1667488833, i32 -1532734473, i32 1920132246, i32 -1061119141, i32 -1212713534, i32 -33693412, i32 -1819066962, i32 640044138, i32 909536346, i32 1061125697, i32 -134744830, i32 -859012273, i32 875849820, i32 -1515892236, i32 -437923532, i32 -235800312, i32 1903288979, i32 -656888973, i32 825320019, i32 353708607, i32 67373068, i32 -943221422, i32 589514341, i32 -1010590370, i32 404238376, i32 -1768540255, i32 84216335, i32 -1701171275, i32 117902857, i32 303178806, i32 -2139087973, i32 -488448195, i32 -336868058, i32 656887401, i32 -1296924723, i32 1970662047, i32 151589403, i32 -2088559202, i32 741103732, i32 437924910, i32 454768173, i32 1852759218, i32 1515893998, i32 -1600103429, i32 1381147894, i32 993752653, i32 -690571423, i32 -1280082482, i32 690573947, i32 -471605954, i32 791633521, i32 -2071719017, i32 1397991157, i32 -774784664, i32 0, i32 -303185620, i32 538984544, i32 -50535649, i32 -1313769016, i32 1532737261, i32 1785386174, i32 -875852474, i32 -1094817831, i32 960066123, i32 1246401758, i32 1280088276, i32 1482207464, i32 -808483510, i32 -791626901, i32 -269499094, i32 -1431679003, i32 -67375850, i32 1128498885, i32 1296931543, i32 859006549, i32 -2054876780, i32 1162185423, i32 -101062384, i32 33686534, i32 2139094657, i32 1347461360, i32 1010595908, i32 -1616960070, i32 -1465365533, i32 1364304627, i32 -1549574658, i32 1077969088, i32 -1886452342, i32 -1835909203, i32 -1650646596, i32 943222856, i32 -168431356, i32 -1128504353, i32 -1229555775, i32 -623202443, i32 555827811, i32 269492272, i32 -6886, i32 -202113778, i32 -757940371, i32 -842170036, i32 202119188, i32 320022069, i32 -320027857, i32 1600110305, i32 -1751698014, i32 1145342156, i32 387395129, i32 -993750185, i32 -1482205710, i32 2122251394, i32 1027439175, i32 1684326572, i32 1566423783, i32 421081643, i32 1936975509, i32 1616953504, i32 -2122245736, i32 1330618065, i32 -589520001, i32 572671078, i32 707417214, i32 -1869595733, i32 -2004350077, i32 1179028682, i32 -286341335, i32 -1195873325, i32 336865340, i32 -555833479, i32 1583267042, i32 185275933, i32 -606360202, i32 -522134725, i32 842163286, i32 976909390, i32 168432670, i32 1229558491, i32 101059594, i32 606357612, i32 1549580516, i32 -1027432611, i32 -741098130, i32 -1397996561, i32 1650640038, i32 -1852753496, i32 -1785384540, i32 -454765769, i32 2038035083, i32 -404237006, i32 -926381245, i32 926379609, i32 1835915959, i32 -1920138868, i32 -707415708, i32 1313774802, i32 -1448523296, i32 1819072692, i32 1448520954, i32 -185273593, i32 -353710299, i32 1701169839, i32 2054878350, i32 -1364310039, i32 134746136, i32 -1162186795, i32 2021191816, i32 623200879, i32 774790258, i32 471611428, i32 -1499047951, i32 -1263242297, i32 -960063663, i32 -387396829, i32 -572677764, i32 1953818780, i32 522141217, i32 1263245021, i32 -1111662116, i32 -1953821306, i32 -1970663547, i32 1886445712, i32 1044282434, i32 -1246400060, i32 1718013098, i32 1212715224, i32 50529797, i32 -151587071, i32 235805714, i32 1633796771, i32 892693087, i32 1465364217, i32 -1179031088, i32 -2038032495, i32 -1044276904, i32 488454695, i32 -1633802311, i32 -505292488, i32 -117904621, i32 -1734857805, i32 286335539, i32 1768542907, i32 -640046736, i32 -1903294583, i32 -1802226777, i32 -1684329034, i32 505297954, i32 -2021190254, i32 -370554592, i32 -825325751, i32 1431677695, i32 673730680, i32 -538991238, i32 -1936981105, i32 -1583261192, i32 -1987507840, i32 218962455, i32 -1077975590, i32 -421079247, i32 1111655622, i32 1751699640, i32 1094812355, i32 -1718015568, i32 757946999, i32 252648977, i32 -1330611253, i32 1414834428, i32 -1145344554, i32 370551866], align 4, !dbg !40
@_ZN7cnminer11cryptonight4LUT317hf9778affb85144d2E = internal constant [256 x i32] [i32 1673962851, i32 2096661628, i32 2012125559, i32 2079755643, i32 -218165774, i32 1809235307, i32 1876865391, i32 -980331323, i32 811618352, i32 16909057, i32 1741597031, i32 727088427, i32 -18408962, i32 -675978537, i32 -1420958037, i32 1995217526, i32 -896580150, i32 -2111857278, i32 -913751863, i32 2113570685, i32 -84994566, i32 1504897881, i32 1200539975, i32 -251982864, i32 -1388188499, i32 -726439980, i32 -1570767454, i32 -1354372433, i32 -1675378788, i32 -1538000988, i32 1927583346, i32 -1063560256, i32 -1217019209, i32 -35578627, i32 -1824674157, i32 642542118, i32 913070646, i32 1065238847, i32 -134937865, i32 -863809588, i32 879254580, i32 -1521355611, i32 -439274267, i32 -235337487, i32 1910674289, i32 -659852328, i32 828527409, i32 355090197, i32 67636228, i32 -946515257, i32 591815971, i32 -1013096765, i32 405809176, i32 -1774739050, i32 84545285, i32 -1708149350, i32 118360327, i32 304363026, i32 -2145674368, i32 -488686110, i32 -338876693, i32 659450151, i32 -1300247118, i32 1978310517, i32 152181513, i32 -2095210877, i32 743994412, i32 439627290, i32 456535323, i32 1859957358, i32 1521806938, i32 -1604584544, i32 1386542674, i32 997608763, i32 -692624938, i32 -1283600717, i32 693271337, i32 -472039709, i32 794718511, i32 -2079090812, i32 1403450707, i32 -776378159, i32 0, i32 -306107155, i32 541089824, i32 -52224004, i32 -1317418831, i32 1538714971, i32 1792327274, i32 -879933749, i32 -1100490306, i32 963791673, i32 1251270218, i32 1285084236, i32 1487988824, i32 -813348145, i32 -793023536, i32 -272291089, i32 -1437604438, i32 -68348165, i32 1132905795, i32 1301993293, i32 862344499, i32 -2062445435, i32 1166724933, i32 -102166279, i32 33818114, i32 2147385727, i32 1352724560, i32 1014514748, i32 -1624917345, i32 -1471421528, i32 1369633617, i32 -1554121053, i32 1082179648, i32 -1895462257, i32 -1841320558, i32 -1658733411, i32 946882616, i32 -168753931, i32 -1134305348, i32 -1233665610, i32 -626035238, i32 557998881, i32 270544912, i32 -1762561, i32 -201519373, i32 -759206446, i32 -847164211, i32 202904588, i32 321271059, i32 -322752532, i32 1606345055, i32 -1758092649, i32 1149815876, i32 388905239, i32 -996976700, i32 -1487539545, i32 2130477694, i32 1031423805, i32 1690872932, i32 1572530013, i32 422718233, i32 1944491379, i32 1623236704, i32 -2129028991, i32 1335808335, i32 -593264676, i32 574907938, i32 710180394, i32 -1875137648, i32 -2012511352, i32 1183631942, i32 -288937490, i32 -1200893000, i32 338181140, i32 -559449634, i32 1589437022, i32 185998603, i32 -609388837, i32 -522503200, i32 845436466, i32 980700730, i32 169090570, i32 1234361161, i32 101452294, i32 608726052, i32 1555620956, i32 -1029743166, i32 -742560045, i32 -1404833876, i32 1657054818, i32 -1858492271, i32 -1791908715, i32 -455919644, i32 2045938553, i32 -405458201, i32 -930397240, i32 929978679, i32 1843050349, i32 -1929278323, i32 -709794603, i32 1318900302, i32 -1454776151, i32 1826141292, i32 1454176854, i32 -185399308, i32 -355523094, i32 1707781989, i32 2062847610, i32 -1371018834, i32 135272456, i32 -1167075910, i32 2029029496, i32 625635109, i32 777810478, i32 473441308, i32 -1504185946, i32 -1267480652, i32 -963161658, i32 -389340184, i32 -576619299, i32 1961401460, i32 524165407, i32 1268178251, i32 -1117659971, i32 -1962047861, i32 -1978694262, i32 1893765232, i32 1048330814, i32 -1250835275, i32 1724688998, i32 1217452104, i32 50726147, i32 -151584266, i32 236720654, i32 1640145761, i32 896163637, i32 1471084887, i32 -1184247623, i32 -2045275770, i32 -1046914879, i32 490350365, i32 -1641563746, i32 -505857823, i32 -118811656, i32 -1741966440, i32 287453969, i32 1775418217, i32 -643206951, i32 -1912108658, i32 -1808554092, i32 -1691502949, i32 507257374, i32 -2028629369, i32 -372694807, i32 -829994546, i32 1437269845, i32 676362280, i32 -542803233, i32 -1945923700, i32 -1587939167, i32 -1995865975, i32 219813645, i32 -1083843905, i32 -422104602, i32 1115997762, i32 1758509160, i32 1099088705, i32 -1725321063, i32 760903469, i32 253628687, i32 -1334064208, i32 1420360788, i32 -1150429509, i32 371997206], align 4, !dbg !42
@_ZN7cnminer11cryptonight4LUT417hc6d35895aa909930E = internal constant [256 x i32] [i32 -962239645, i32 -125535108, i32 -291932297, i32 -158499973, i32 -15863054, i32 -692229269, i32 -558796945, i32 -1856715323, i32 1615867952, i32 33751297, i32 -827758745, i32 1451043627, i32 -417726722, i32 -1251813417, i32 1306962859, i32 -325421450, i32 -1891251510, i32 530416258, i32 -1992242743, i32 -91783811, i32 -283772166, i32 -1293199015, i32 -1899411641, i32 -83103504, i32 1106029997, i32 -1285040940, i32 1610457762, i32 1173008303, i32 599760028, i32 1408738468, i32 -459902350, i32 -1688485696, i32 1975695287, i32 -518193667, i32 1034851219, i32 1282024998, i32 1817851446, i32 2118205247, i32 -184354825, i32 -2091922228, i32 1750873140, i32 1374987685, i32 -785062427, i32 -116854287, i32 -493653647, i32 -1418471208, i32 1649619249, i32 708777237, i32 135005188, i32 -1789737017, i32 1181033251, i32 -1654733885, i32 807933976, i32 933336726, i32 168756485, i32 800430746, i32 235472647, i32 607523346, i32 463175808, i32 -549592350, i32 -853087253, i32 1315514151, i32 2144187058, i32 -358648459, i32 303761673, i32 496927619, i32 1484008492, i32 875436570, i32 908925723, i32 -592286098, i32 -1259447718, i32 1543217312, i32 -1527360942, i32 1984772923, i32 -1218324778, i32 2110698419, i32 1383803177, i32 -583080989, i32 1584475951, i32 328696964, i32 -1493871789, i32 -1184312879, i32 0, i32 -1054020115, i32 1080041504, i32 -484442884, i32 2043195825, i32 -1225958565, i32 -725718422, i32 -1924740149, i32 1742323390, i32 1917532473, i32 -1797371318, i32 -1730917300, i32 -1326950312, i32 -2058694705, i32 -1150562096, i32 -987041809, i32 1340451498, i32 -317260805, i32 -2033892541, i32 -1697166003, i32 1716859699, i32 294946181, i32 -1966127803, i32 -384763399, i32 67502594, i32 -25067649, i32 -1594863536, i32 2017737788, i32 632987551, i32 1273211048, i32 -1561112239, i32 1576969123, i32 -2134884288, i32 92966799, i32 1068339858, i32 566009245, i32 1883781176, i32 -251333131, i32 1675607228, i32 2009183926, i32 -1351230758, i32 1113792801, i32 540020752, i32 -451215361, i32 -49351693, i32 -1083321646, i32 -2125673011, i32 403966988, i32 641012499, i32 -1020269332, i32 -1092526241, i32 899848087, i32 -1999879100, i32 775493399, i32 -1822964540, i32 1441965991, i32 -58556802, i32 2051489085, i32 -928226204, i32 -1159242403, i32 841685273, i32 -426413197, i32 -1063231392, i32 429425025, i32 -1630449841, i32 -1551901476, i32 1147544098, i32 1417554474, i32 1001099408, i32 193169544, i32 -1932900794, i32 -953553170, i32 1809037496, i32 675025940, i32 -1485185314, i32 -1126015394, i32 371002123, i32 -1384719397, i32 -616832800, i32 1683370546, i32 1951283770, i32 337512970, i32 -1831122615, i32 201983494, i32 1215046692, i32 -1192993700, i32 -1621245246, i32 -1116810285, i32 1139780780, i32 -995728798, i32 967348625, i32 832869781, i32 -751311644, i32 -225740423, i32 -718084121, i32 -1958491960, i32 1851340599, i32 -625513107, i32 25988493, i32 -1318791723, i32 -1663938994, i32 1239460265, i32 -659264404, i32 -1392880042, i32 -217582348, i32 -819598614, i32 -894474907, i32 -191989126, i32 1206496942, i32 270010376, i32 1876277946, i32 -259491720, i32 1248797989, i32 1550986798, i32 941890588, i32 1475454630, i32 1942467764, i32 -1756248378, i32 -886839064, i32 -1585652259, i32 -392399756, i32 1042358047, i32 -1763882165, i32 1641856445, i32 226921355, i32 260409994, i32 -527404944, i32 2084716094, i32 1908716981, i32 -861247898, i32 -1864873912, i32 100991747, i32 -150866186, i32 470945294, i32 -1029480095, i32 1784624437, i32 -1359390889, i32 1775286713, i32 395413126, i32 -1722236479, i32 975641885, i32 666476190, i32 -650583583, i32 -351012616, i32 733190296, i32 573772049, i32 -759469719, i32 -1452221991, i32 126455438, i32 866620564, i32 766942107, i32 1008868894, i32 361924487, i32 -920589847, i32 -2025206066, i32 -1426107051, i32 1350051880, i32 -1518673953, i32 59739276, i32 1509466529, i32 159418761, i32 437718285, i32 1708834751, i32 -684595482, i32 -2067381694, i32 -793221016, i32 -2101132991, i32 699439513, i32 1517759789, i32 504434447, i32 2076946608, i32 -1459858348, i32 1842789307, i32 742004246], align 4, !dbg !44
@str.0 = internal constant [30 x i8] c"assertion failed: start <= end"
@str.1 = internal constant [19 x i8] c"src\5Cliballoc\5Cvec.rs"
@ref.2 = internal unnamed_addr constant { %str_slice, %str_slice, i32, i32 } { %str_slice { i8* getelementptr inbounds ([30 x i8], [30 x i8]* @str.0, i32 0, i32 0), i64 30 }, %str_slice { i8* getelementptr inbounds ([19 x i8], [19 x i8]* @str.1, i32 0, i32 0), i64 19 }, i32 1110, i32 8 }, align 8
@const.3 = internal unnamed_addr constant { %str_slice, %str_slice, i32, i32 }* @ref.2, align 8
@str.4 = internal constant [28 x i8] c"assertion failed: end <= len"
@ref.5 = internal unnamed_addr constant { %str_slice, %str_slice, i32, i32 } { %str_slice { i8* getelementptr inbounds ([28 x i8], [28 x i8]* @str.4, i32 0, i32 0), i64 28 }, %str_slice { i8* getelementptr inbounds ([19 x i8], [19 x i8]* @str.1, i32 0, i32 0), i64 19 }, i32 1111, i32 8 }, align 8
@const.6 = internal unnamed_addr constant { %str_slice, %str_slice, i32, i32 }* @ref.5, align 8
@str.7 = internal constant [43 x i8] c"called `Option::unwrap()` on a `None` value"
@str.8 = internal constant [21 x i8] c"src\5Clibcore\5Coption.rs"
@ref.9 = internal unnamed_addr constant { %str_slice, %str_slice, i32, i32 } { %str_slice { i8* getelementptr inbounds ([43 x i8], [43 x i8]* @str.7, i32 0, i32 0), i64 43 }, %str_slice { i8* getelementptr inbounds ([21 x i8], [21 x i8]* @str.8, i32 0, i32 0), i64 21 }, i32 335, i32 20 }, align 8
@const.a = internal unnamed_addr constant { %str_slice, %str_slice, i32, i32 }* @ref.9, align 8
@ref.b = internal unnamed_addr constant i8 15, align 1
@str.c = internal constant [33 x i8] c"failed to write the buffered data"
@str.d = internal constant [43 x i8] c"called `Result::unwrap()` on an `Err` value"
@str.e = internal constant [17 x i8] c"capacity overflow"
@str.f = internal constant [23 x i8] c"invalid memory ordering"
@str.g = internal constant [26 x i8] c"src\5Clibcore\5Csync\5Catomic.rs"
@ref.h = internal unnamed_addr constant { %str_slice, %str_slice, i32, i32 } { %str_slice { i8* getelementptr inbounds ([23 x i8], [23 x i8]* @str.f, i32 0, i32 0), i64 23 }, %str_slice { i8* getelementptr inbounds ([26 x i8], [26 x i8]* @str.g, i32 0, i32 0), i64 26 }, i32 1540, i32 27 }, align 8
@const.i = internal unnamed_addr constant { %str_slice, %str_slice, i32, i32 }* @ref.h, align 8
@ref.j = internal unnamed_addr constant { %str_slice, %str_slice, i32, i32 } { %str_slice { i8* getelementptr inbounds ([23 x i8], [23 x i8]* @str.f, i32 0, i32 0), i64 23 }, %str_slice { i8* getelementptr inbounds ([26 x i8], [26 x i8]* @str.g, i32 0, i32 0), i64 26 }, i32 1718, i32 31 }, align 8
@const.k = internal unnamed_addr constant { %str_slice, %str_slice, i32, i32 }* @ref.j, align 8
@str.l = internal constant [41 x i8] c"there is no such thing as a relaxed fence"
@ref.m = internal unnamed_addr constant { %str_slice, %str_slice, i32, i32 } { %str_slice { i8* getelementptr inbounds ([41 x i8], [41 x i8]* @str.l, i32 0, i32 0), i64 41 }, %str_slice { i8* getelementptr inbounds ([26 x i8], [26 x i8]* @str.g, i32 0, i32 0), i64 26 }, i32 1717, i32 23 }, align 8
@const.n = internal unnamed_addr constant { %str_slice, %str_slice, i32, i32 }* @ref.m, align 8
@str.o = internal constant [0 x i8] zeroinitializer
@str.p = internal constant [2 x i8] c": "
@ref.q = internal unnamed_addr constant [2 x %str_slice] [%str_slice { i8* getelementptr inbounds ([0 x i8], [0 x i8]* @str.o, i32 0, i32 0), i64 0 }, %str_slice { i8* getelementptr inbounds ([2 x i8], [2 x i8]* @str.p, i32 0, i32 0), i64 2 }], align 8
@ref.r = internal unnamed_addr constant { { { i64, i64 }, { { i64, [8 x i8] }, { i64, [8 x i8] }, i32, i32, i8, [7 x i8] } }, { { i64, i64 }, { { i64, [8 x i8] }, { i64, [8 x i8] }, i32, i32, i8, [7 x i8] } } } { { { i64, i64 }, { { i64, [8 x i8] }, { i64, [8 x i8] }, i32, i32, i8, [7 x i8] } } { { i64, i64 } { i64 1, i64 0 }, { { i64, [8 x i8] }, { i64, [8 x i8] }, i32, i32, i8, [7 x i8] } { { i64, [8 x i8] } { i64 3, [8 x i8] undef }, { i64, [8 x i8] } { i64 3, [8 x i8] undef }, i32 32, i32 0, i8 3, [7 x i8] undef } }, { { i64, i64 }, { { i64, [8 x i8] }, { i64, [8 x i8] }, i32, i32, i8, [7 x i8] } } { { i64, i64 } { i64 1, i64 1 }, { { i64, [8 x i8] }, { i64, [8 x i8] }, i32, i32, i8, [7 x i8] } { { i64, [8 x i8] } { i64 3, [8 x i8] undef }, { i64, [8 x i8] } { i64 3, [8 x i8] undef }, i32 32, i32 0, i8 3, [7 x i8] undef } } }, align 8
@const.s = internal unnamed_addr constant { { { i64, i64 }, { { i64, [8 x i8] }, { i64, [8 x i8] }, i32, i32, i8, [7 x i8] } }, { { i64, i64 }, { { i64, [8 x i8] }, { i64, [8 x i8] }, i32, i32, i8, [7 x i8] } } }* @ref.r, align 8
@str.t = internal constant [21 x i8] c"src\5Clibcore\5Cresult.rs"
@ref.u = internal unnamed_addr constant { %str_slice, i32, i32 } { %str_slice { i8* getelementptr inbounds ([21 x i8], [21 x i8]* @str.t, i32 0, i32 0), i64 21 }, i32 906, i32 4 }, align 8
@const.v = internal unnamed_addr constant { %str_slice, i32, i32 }* @ref.u, align 8
@str.w = internal constant [52 x i8] c"destination and source slices have different lengths"
@str.x = internal constant [24 x i8] c"src\5Clibcore\5Cslice\5Cmod.rs"
@ref.y = internal unnamed_addr constant { %str_slice, %str_slice, i32, i32 } { %str_slice { i8* getelementptr inbounds ([52 x i8], [52 x i8]* @str.w, i32 0, i32 0), i64 52 }, %str_slice { i8* getelementptr inbounds ([24 x i8], [24 x i8]* @str.x, i32 0, i32 0), i64 24 }, i32 669, i32 8 }, align 8
@const.z = internal unnamed_addr constant { %str_slice, %str_slice, i32, i32 }* @ref.y, align 8
@str.A = internal constant [23 x i8] c"src\5Cliballoc\5Craw_vec.rs"
@ref.B = internal unnamed_addr constant { %str_slice, %str_slice, i32, i32 } { %str_slice { i8* getelementptr inbounds ([17 x i8], [17 x i8]* @str.e, i32 0, i32 0), i64 17 }, %str_slice { i8* getelementptr inbounds ([23 x i8], [23 x i8]* @str.A, i32 0, i32 0), i64 23 }, i32 714, i32 8 }, align 8
@const.C = internal unnamed_addr constant { %str_slice, %str_slice, i32, i32 }* @ref.B, align 8
@str.D = internal constant [41 x i8] c"C:\5Cprojects\5Crust\5Csrc\5Clibcore\5Cslice\5Cmod.rs"
@panic_bounds_check_loc.E = internal unnamed_addr constant { %str_slice, i32, i32 } { %str_slice { i8* getelementptr inbounds ([41 x i8], [41 x i8]* @str.D, i32 0, i32 0), i64 41 }, i32 825, i32 10 }, align 8
@panic_bounds_check_loc.F = internal unnamed_addr constant { %str_slice, i32, i32 } { %str_slice { i8* getelementptr inbounds ([41 x i8], [41 x i8]* @str.D, i32 0, i32 0), i64 41 }, i32 831, i32 14 }, align 8
@str.G = internal constant [36 x i8] c"C:\5Cprojects\5Crust\5Csrc\5Cliballoc\5Cvec.rs"
@panic_bounds_check_loc.H = internal unnamed_addr constant { %str_slice, i32, i32 } { %str_slice { i8* getelementptr inbounds ([36 x i8], [36 x i8]* @str.G, i32 0, i32 0), i64 36 }, i32 1551, i32 10 }, align 8
@panic_bounds_check_loc.I = internal unnamed_addr constant { %str_slice, i32, i32 } { %str_slice { i8* getelementptr inbounds ([36 x i8], [36 x i8]* @str.G, i32 0, i32 0), i64 36 }, i32 1561, i32 14 }, align 8
@str.J = internal constant [13 x i8] c"src\5Ckeccak.rs"
@str.K = internal constant [35 x i8] c"attempt to shift left with overflow"
@panic_loc.L = internal unnamed_addr constant { %str_slice, %str_slice, i32, i32 } { %str_slice { i8* getelementptr inbounds ([35 x i8], [35 x i8]* @str.K, i32 0, i32 0), i64 35 }, %str_slice { i8* getelementptr inbounds ([13 x i8], [13 x i8]* @str.J, i32 0, i32 0), i64 13 }, i32 27, i32 30 }, align 8
@str.M = internal constant [33 x i8] c"attempt to subtract with overflow"
@panic_loc.N = internal unnamed_addr constant { %str_slice, %str_slice, i32, i32 } { %str_slice { i8* getelementptr inbounds ([33 x i8], [33 x i8]* @str.M, i32 0, i32 0), i64 33 }, %str_slice { i8* getelementptr inbounds ([13 x i8], [13 x i8]* @str.J, i32 0, i32 0), i64 13 }, i32 27, i32 50 }, align 8
@str.O = internal constant [36 x i8] c"attempt to shift right with overflow"
@panic_loc.P = internal unnamed_addr constant { %str_slice, %str_slice, i32, i32 } { %str_slice { i8* getelementptr inbounds ([36 x i8], [36 x i8]* @str.O, i32 0, i32 0), i64 36 }, %str_slice { i8* getelementptr inbounds ([13 x i8], [13 x i8]* @str.J, i32 0, i32 0), i64 13 }, i32 27, i32 42 }, align 8
@panic_bounds_check_loc.Q = internal unnamed_addr constant { %str_slice, i32, i32 } { %str_slice { i8* getelementptr inbounds ([13 x i8], [13 x i8]* @str.J, i32 0, i32 0), i64 13 }, i32 105, i32 18 }, align 8
@str.R = internal constant [33 x i8] c"attempt to multiply with overflow"
@panic_loc.S = internal unnamed_addr constant { %str_slice, %str_slice, i32, i32 } { %str_slice { i8* getelementptr inbounds ([33 x i8], [33 x i8]* @str.R, i32 0, i32 0), i64 33 }, %str_slice { i8* getelementptr inbounds ([13 x i8], [13 x i8]* @str.J, i32 0, i32 0), i64 13 }, i32 124, i32 19 }, align 8
@panic_loc.T = internal unnamed_addr constant { %str_slice, %str_slice, i32, i32 } { %str_slice { i8* getelementptr inbounds ([33 x i8], [33 x i8]* @str.M, i32 0, i32 0), i64 33 }, %str_slice { i8* getelementptr inbounds ([13 x i8], [13 x i8]* @str.J, i32 0, i32 0), i64 13 }, i32 124, i32 13 }, align 8
@str.U = internal constant [28 x i8] c"attempt to add with overflow"
@panic_loc.V = internal unnamed_addr constant { %str_slice, %str_slice, i32, i32 } { %str_slice { i8* getelementptr inbounds ([28 x i8], [28 x i8]* @str.U, i32 0, i32 0), i64 28 }, %str_slice { i8* getelementptr inbounds ([13 x i8], [13 x i8]* @str.J, i32 0, i32 0), i64 13 }, i32 133, i32 45 }, align 8
@panic_bounds_check_loc.W = internal unnamed_addr constant { %str_slice, i32, i32 } { %str_slice { i8* getelementptr inbounds ([13 x i8], [13 x i8]* @str.J, i32 0, i32 0), i64 13 }, i32 133, i32 17 }, align 8
@panic_loc.X = internal unnamed_addr constant { %str_slice, %str_slice, i32, i32 } { %str_slice { i8* getelementptr inbounds ([33 x i8], [33 x i8]* @str.M, i32 0, i32 0), i64 33 }, %str_slice { i8* getelementptr inbounds ([13 x i8], [13 x i8]* @str.J, i32 0, i32 0), i64 13 }, i32 137, i32 9 }, align 8
@panic_loc.Y = internal unnamed_addr constant { %str_slice, %str_slice, i32, i32 } { %str_slice { i8* getelementptr inbounds ([28 x i8], [28 x i8]* @str.U, i32 0, i32 0), i64 28 }, %str_slice { i8* getelementptr inbounds ([13 x i8], [13 x i8]* @str.J, i32 0, i32 0), i64 13 }, i32 137, i32 25 }, align 8
@panic_bounds_check_loc.Z = internal unnamed_addr constant { %str_slice, i32, i32 } { %str_slice { i8* getelementptr inbounds ([13 x i8], [13 x i8]* @str.J, i32 0, i32 0), i64 13 }, i32 141, i32 36 }, align 8
@panic_bounds_check_loc.10 = internal unnamed_addr constant { %str_slice, i32, i32 } { %str_slice { i8* getelementptr inbounds ([13 x i8], [13 x i8]* @str.J, i32 0, i32 0), i64 13 }, i32 141, i32 26 }, align 8
@panic_bounds_check_loc.11 = internal unnamed_addr constant { %str_slice, i32, i32 } { %str_slice { i8* getelementptr inbounds ([13 x i8], [13 x i8]* @str.J, i32 0, i32 0), i64 13 }, i32 142, i32 5 }, align 8
@panic_loc.12 = internal unnamed_addr constant { %str_slice, %str_slice, i32, i32 } { %str_slice { i8* getelementptr inbounds ([33 x i8], [33 x i8]* @str.M, i32 0, i32 0), i64 33 }, %str_slice { i8* getelementptr inbounds ([13 x i8], [13 x i8]* @str.J, i32 0, i32 0), i64 13 }, i32 143, i32 18 }, align 8
@panic_loc.13 = internal unnamed_addr constant { %str_slice, %str_slice, i32, i32 } { %str_slice { i8* getelementptr inbounds ([28 x i8], [28 x i8]* @str.U, i32 0, i32 0), i64 28 }, %str_slice { i8* getelementptr inbounds ([13 x i8], [13 x i8]* @str.J, i32 0, i32 0), i64 13 }, i32 143, i32 17 }, align 8
@panic_loc.14 = internal unnamed_addr constant { %str_slice, %str_slice, i32, i32 } { %str_slice { i8* getelementptr inbounds ([28 x i8], [28 x i8]* @str.U, i32 0, i32 0), i64 28 }, %str_slice { i8* getelementptr inbounds ([13 x i8], [13 x i8]* @str.J, i32 0, i32 0), i64 13 }, i32 143, i32 44 }, align 8
@panic_loc.15 = internal unnamed_addr constant { %str_slice, %str_slice, i32, i32 } { %str_slice { i8* getelementptr inbounds ([33 x i8], [33 x i8]* @str.M, i32 0, i32 0), i64 33 }, %str_slice { i8* getelementptr inbounds ([13 x i8], [13 x i8]* @str.J, i32 0, i32 0), i64 13 }, i32 144, i32 10 }, align 8
@panic_bounds_check_loc.16 = internal unnamed_addr constant { %str_slice, i32, i32 } { %str_slice { i8* getelementptr inbounds ([13 x i8], [13 x i8]* @str.J, i32 0, i32 0), i64 13 }, i32 146, i32 9 }, align 8
@panic_bounds_check_loc.17 = internal unnamed_addr constant { %str_slice, i32, i32 } { %str_slice { i8* getelementptr inbounds ([13 x i8], [13 x i8]* @str.J, i32 0, i32 0), i64 13 }, i32 152, i32 9 }, align 8
@str.18 = internal constant [11 x i8] c"src\5Coaes.rs"
@panic_loc.19 = internal unnamed_addr constant { %str_slice, %str_slice, i32, i32 } { %str_slice { i8* getelementptr inbounds ([28 x i8], [28 x i8]* @str.U, i32 0, i32 0), i64 28 }, %str_slice { i8* getelementptr inbounds ([11 x i8], [11 x i8]* @str.18, i32 0, i32 0), i64 11 }, i32 67, i32 24 }, align 8
@panic_bounds_check_loc.1a = internal unnamed_addr constant { %str_slice, i32, i32 } { %str_slice { i8* getelementptr inbounds ([11 x i8], [11 x i8]* @str.18, i32 0, i32 0), i64 11 }, i32 67, i32 9 }, align 8
@panic_bounds_check_loc.1b = internal unnamed_addr constant { %str_slice, i32, i32 } { %str_slice { i8* getelementptr inbounds ([11 x i8], [11 x i8]* @str.18, i32 0, i32 0), i64 11 }, i32 71, i32 19 }, align 8
@panic_bounds_check_loc.1c = internal unnamed_addr constant { %str_slice, i32, i32 } { %str_slice { i8* getelementptr inbounds ([11 x i8], [11 x i8]* @str.18, i32 0, i32 0), i64 11 }, i32 71, i32 9 }, align 8
@panic_bounds_check_loc.1d = internal unnamed_addr constant { %str_slice, i32, i32 } { %str_slice { i8* getelementptr inbounds ([11 x i8], [11 x i8]* @str.18, i32 0, i32 0), i64 11 }, i32 78, i32 5 }, align 8
@panic_bounds_check_loc.1e = internal unnamed_addr constant { %str_slice, i32, i32 } { %str_slice { i8* getelementptr inbounds ([11 x i8], [11 x i8]* @str.18, i32 0, i32 0), i64 11 }, i32 91, i32 32 }, align 8
@panic_loc.1f = internal unnamed_addr constant { %str_slice, %str_slice, i32, i32 } { %str_slice { i8* getelementptr inbounds ([28 x i8], [28 x i8]* @str.U, i32 0, i32 0), i64 28 }, %str_slice { i8* getelementptr inbounds ([11 x i8], [11 x i8]* @str.18, i32 0, i32 0), i64 11 }, i32 110, i32 45 }, align 8
@panic_loc.1g = internal unnamed_addr constant { %str_slice, %str_slice, i32, i32 } { %str_slice { i8* getelementptr inbounds ([33 x i8], [33 x i8]* @str.M, i32 0, i32 0), i64 33 }, %str_slice { i8* getelementptr inbounds ([11 x i8], [11 x i8]* @str.18, i32 0, i32 0), i64 11 }, i32 110, i32 45 }, align 8
@panic_loc.1h = internal unnamed_addr constant { %str_slice, %str_slice, i32, i32 } { %str_slice { i8* getelementptr inbounds ([33 x i8], [33 x i8]* @str.R, i32 0, i32 0), i64 33 }, %str_slice { i8* getelementptr inbounds ([11 x i8], [11 x i8]* @str.18, i32 0, i32 0), i64 11 }, i32 110, i32 27 }, align 8
@panic_bounds_check_loc.1i = internal unnamed_addr constant { %str_slice, i32, i32 } { %str_slice { i8* getelementptr inbounds ([11 x i8], [11 x i8]* @str.18, i32 0, i32 0), i64 11 }, i32 110, i32 17 }, align 8
@panic_bounds_check_loc.1j = internal unnamed_addr constant { %str_slice, i32, i32 } { %str_slice { i8* getelementptr inbounds ([11 x i8], [11 x i8]* @str.18, i32 0, i32 0), i64 11 }, i32 115, i32 45 }, align 8
@panic_bounds_check_loc.1k = internal unnamed_addr constant { %str_slice, i32, i32 } { %str_slice { i8* getelementptr inbounds ([11 x i8], [11 x i8]* @str.18, i32 0, i32 0), i64 11 }, i32 115, i32 21 }, align 8
@str.1l = internal constant [25 x i8] c"attempt to divide by zero"
@panic_loc.1m = internal unnamed_addr constant { %str_slice, %str_slice, i32, i32 } { %str_slice { i8* getelementptr inbounds ([25 x i8], [25 x i8]* @str.1l, i32 0, i32 0), i64 25 }, %str_slice { i8* getelementptr inbounds ([11 x i8], [11 x i8]* @str.18, i32 0, i32 0), i64 11 }, i32 117, i32 38 }, align 8
@panic_loc.1n = internal unnamed_addr constant { %str_slice, %str_slice, i32, i32 } { %str_slice { i8* getelementptr inbounds ([33 x i8], [33 x i8]* @str.M, i32 0, i32 0), i64 33 }, %str_slice { i8* getelementptr inbounds ([11 x i8], [11 x i8]* @str.18, i32 0, i32 0), i64 11 }, i32 117, i32 38 }, align 8
@str.1o = internal constant [57 x i8] c"attempt to calculate the remainder with a divisor of zero"
@panic_loc.1p = internal unnamed_addr constant { %str_slice, %str_slice, i32, i32 } { %str_slice { i8* getelementptr inbounds ([57 x i8], [57 x i8]* @str.1o, i32 0, i32 0), i64 57 }, %str_slice { i8* getelementptr inbounds ([11 x i8], [11 x i8]* @str.18, i32 0, i32 0), i64 11 }, i32 118, i32 23 }, align 8
@panic_bounds_check_loc.1q = internal unnamed_addr constant { %str_slice, i32, i32 } { %str_slice { i8* getelementptr inbounds ([11 x i8], [11 x i8]* @str.18, i32 0, i32 0), i64 11 }, i32 120, i32 45 }, align 8
@panic_bounds_check_loc.1r = internal unnamed_addr constant { %str_slice, i32, i32 } { %str_slice { i8* getelementptr inbounds ([11 x i8], [11 x i8]* @str.18, i32 0, i32 0), i64 11 }, i32 120, i32 21 }, align 8
@panic_loc.1s = internal unnamed_addr constant { %str_slice, %str_slice, i32, i32 } { %str_slice { i8* getelementptr inbounds ([33 x i8], [33 x i8]* @str.M, i32 0, i32 0), i64 33 }, %str_slice { i8* getelementptr inbounds ([11 x i8], [11 x i8]* @str.18, i32 0, i32 0), i64 11 }, i32 124, i32 29 }, align 8
@panic_loc.1t = internal unnamed_addr constant { %str_slice, %str_slice, i32, i32 } { %str_slice { i8* getelementptr inbounds ([33 x i8], [33 x i8]* @str.R, i32 0, i32 0), i64 33 }, %str_slice { i8* getelementptr inbounds ([11 x i8], [11 x i8]* @str.18, i32 0, i32 0), i64 11 }, i32 124, i32 29 }, align 8
@panic_loc.1u = internal unnamed_addr constant { %str_slice, %str_slice, i32, i32 } { %str_slice { i8* getelementptr inbounds ([28 x i8], [28 x i8]* @str.U, i32 0, i32 0), i64 28 }, %str_slice { i8* getelementptr inbounds ([11 x i8], [11 x i8]* @str.18, i32 0, i32 0), i64 11 }, i32 124, i32 29 }, align 8
@panic_bounds_check_loc.1v = internal unnamed_addr constant { %str_slice, i32, i32 } { %str_slice { i8* getelementptr inbounds ([11 x i8], [11 x i8]* @str.18, i32 0, i32 0), i64 11 }, i32 126, i32 48 }, align 8
@panic_loc.1w = internal unnamed_addr constant { %str_slice, %str_slice, i32, i32 } { %str_slice { i8* getelementptr inbounds ([33 x i8], [33 x i8]* @str.R, i32 0, i32 0), i64 33 }, %str_slice { i8* getelementptr inbounds ([11 x i8], [11 x i8]* @str.18, i32 0, i32 0), i64 11 }, i32 125, i32 35 }, align 8
@panic_loc.1x = internal unnamed_addr constant { %str_slice, %str_slice, i32, i32 } { %str_slice { i8* getelementptr inbounds ([28 x i8], [28 x i8]* @str.U, i32 0, i32 0), i64 28 }, %str_slice { i8* getelementptr inbounds ([11 x i8], [11 x i8]* @str.18, i32 0, i32 0), i64 11 }, i32 125, i32 35 }, align 8
@str.1y = internal constant [4 x i8] c"Kek\0A"
@ref.1z = internal unnamed_addr constant [1 x %str_slice] [%str_slice { i8* getelementptr inbounds ([4 x i8], [4 x i8]* @str.1y, i32 0, i32 0), i64 4 }], align 8
@ref.1A = internal unnamed_addr constant [0 x %"core::fmt::ArgumentV1"] zeroinitializer, align 8
@str.1B = internal constant [18 x i8] c"src\5Ccryptonight.rs"
@panic_loc.1C = internal unnamed_addr constant { %str_slice, %str_slice, i32, i32 } { %str_slice { i8* getelementptr inbounds ([33 x i8], [33 x i8]* @str.R, i32 0, i32 0), i64 33 }, %str_slice { i8* getelementptr inbounds ([18 x i8], [18 x i8]* @str.1B, i32 0, i32 0), i64 18 }, i32 120, i32 14 }, align 8
@panic_loc.1D = internal unnamed_addr constant { %str_slice, %str_slice, i32, i32 } { %str_slice { i8* getelementptr inbounds ([33 x i8], [33 x i8]* @str.R, i32 0, i32 0), i64 33 }, %str_slice { i8* getelementptr inbounds ([18 x i8], [18 x i8]* @str.1B, i32 0, i32 0), i64 18 }, i32 121, i32 14 }, align 8
@panic_loc.1E = internal unnamed_addr constant { %str_slice, %str_slice, i32, i32 } { %str_slice { i8* getelementptr inbounds ([33 x i8], [33 x i8]* @str.R, i32 0, i32 0), i64 33 }, %str_slice { i8* getelementptr inbounds ([18 x i8], [18 x i8]* @str.1B, i32 0, i32 0), i64 18 }, i32 122, i32 21 }, align 8
@panic_loc.1F = internal unnamed_addr constant { %str_slice, %str_slice, i32, i32 } { %str_slice { i8* getelementptr inbounds ([28 x i8], [28 x i8]* @str.U, i32 0, i32 0), i64 28 }, %str_slice { i8* getelementptr inbounds ([18 x i8], [18 x i8]* @str.1B, i32 0, i32 0), i64 18 }, i32 122, i32 16 }, align 8
@panic_loc.1G = internal unnamed_addr constant { %str_slice, %str_slice, i32, i32 } { %str_slice { i8* getelementptr inbounds ([28 x i8], [28 x i8]* @str.U, i32 0, i32 0), i64 28 }, %str_slice { i8* getelementptr inbounds ([18 x i8], [18 x i8]* @str.1B, i32 0, i32 0), i64 18 }, i32 124, i32 22 }, align 8
@panic_loc.1H = internal unnamed_addr constant { %str_slice, %str_slice, i32, i32 } { %str_slice { i8* getelementptr inbounds ([33 x i8], [33 x i8]* @str.R, i32 0, i32 0), i64 33 }, %str_slice { i8* getelementptr inbounds ([18 x i8], [18 x i8]* @str.1B, i32 0, i32 0), i64 18 }, i32 126, i32 19 }, align 8
@panic_loc.1I = internal unnamed_addr constant { %str_slice, %str_slice, i32, i32 } { %str_slice { i8* getelementptr inbounds ([28 x i8], [28 x i8]* @str.U, i32 0, i32 0), i64 28 }, %str_slice { i8* getelementptr inbounds ([18 x i8], [18 x i8]* @str.1B, i32 0, i32 0), i64 18 }, i32 126, i32 19 }, align 8
@panic_loc.1J = internal unnamed_addr constant { %str_slice, %str_slice, i32, i32 } { %str_slice { i8* getelementptr inbounds ([28 x i8], [28 x i8]* @str.U, i32 0, i32 0), i64 28 }, %str_slice { i8* getelementptr inbounds ([18 x i8], [18 x i8]* @str.1B, i32 0, i32 0), i64 18 }, i32 136, i32 14 }, align 8
@panic_loc.1K = internal unnamed_addr constant { %str_slice, %str_slice, i32, i32 } { %str_slice { i8* getelementptr inbounds ([28 x i8], [28 x i8]* @str.U, i32 0, i32 0), i64 28 }, %str_slice { i8* getelementptr inbounds ([18 x i8], [18 x i8]* @str.1B, i32 0, i32 0), i64 18 }, i32 137, i32 5 }, align 8
@panic_bounds_check_loc.1L = internal unnamed_addr constant { %str_slice, i32, i32 } { %str_slice { i8* getelementptr inbounds ([18 x i8], [18 x i8]* @str.1B, i32 0, i32 0), i64 18 }, i32 85, i32 13 }, align 8
@panic_bounds_check_loc.1M = internal unnamed_addr constant { %str_slice, i32, i32 } { %str_slice { i8* getelementptr inbounds ([18 x i8], [18 x i8]* @str.1B, i32 0, i32 0), i64 18 }, i32 86, i32 13 }, align 8
@panic_bounds_check_loc.1N = internal unnamed_addr constant { %str_slice, i32, i32 } { %str_slice { i8* getelementptr inbounds ([18 x i8], [18 x i8]* @str.1B, i32 0, i32 0), i64 18 }, i32 87, i32 13 }, align 8
@panic_bounds_check_loc.1O = internal unnamed_addr constant { %str_slice, i32, i32 } { %str_slice { i8* getelementptr inbounds ([18 x i8], [18 x i8]* @str.1B, i32 0, i32 0), i64 18 }, i32 88, i32 13 }, align 8
@str.1P = internal constant [8 x i8] c"Check 1\0A"
@ref.1Q = internal unnamed_addr constant [1 x %str_slice] [%str_slice { i8* getelementptr inbounds ([8 x i8], [8 x i8]* @str.1P, i32 0, i32 0), i64 8 }], align 8
@str.1R = internal constant [8 x i8] c"Check 2\0A"
@ref.1S = internal unnamed_addr constant [1 x %str_slice] [%str_slice { i8* getelementptr inbounds ([8 x i8], [8 x i8]* @str.1R, i32 0, i32 0), i64 8 }], align 8
@panic_bounds_check_loc.1T = internal unnamed_addr constant { %str_slice, i32, i32 } { %str_slice { i8* getelementptr inbounds ([18 x i8], [18 x i8]* @str.1B, i32 0, i32 0), i64 18 }, i32 187, i32 23 }, align 8
@panic_bounds_check_loc.1U = internal unnamed_addr constant { %str_slice, i32, i32 } { %str_slice { i8* getelementptr inbounds ([18 x i8], [18 x i8]* @str.1B, i32 0, i32 0), i64 18 }, i32 187, i32 9 }, align 8
@str.1V = internal constant [8 x i8] c"Check 3\0A"
@ref.1W = internal unnamed_addr constant [1 x %str_slice] [%str_slice { i8* getelementptr inbounds ([8 x i8], [8 x i8]* @str.1V, i32 0, i32 0), i64 8 }], align 8
@panic_bounds_check_loc.1X = internal unnamed_addr constant { %str_slice, i32, i32 } { %str_slice { i8* getelementptr inbounds ([18 x i8], [18 x i8]* @str.1B, i32 0, i32 0), i64 18 }, i32 210, i32 41 }, align 8
@panic_loc.1Y = internal unnamed_addr constant { %str_slice, %str_slice, i32, i32 } { %str_slice { i8* getelementptr inbounds ([28 x i8], [28 x i8]* @str.U, i32 0, i32 0), i64 28 }, %str_slice { i8* getelementptr inbounds ([18 x i8], [18 x i8]* @str.1B, i32 0, i32 0), i64 18 }, i32 210, i32 32 }, align 8
@panic_loc.1Z = internal unnamed_addr constant { %str_slice, %str_slice, i32, i32 } { %str_slice { i8* getelementptr inbounds ([28 x i8], [28 x i8]* @str.U, i32 0, i32 0), i64 28 }, %str_slice { i8* getelementptr inbounds ([18 x i8], [18 x i8]* @str.1B, i32 0, i32 0), i64 18 }, i32 212, i32 13 }, align 8
@panic_loc.20 = internal unnamed_addr constant { %str_slice, %str_slice, i32, i32 } { %str_slice { i8* getelementptr inbounds ([28 x i8], [28 x i8]* @str.U, i32 0, i32 0), i64 28 }, %str_slice { i8* getelementptr inbounds ([18 x i8], [18 x i8]* @str.1B, i32 0, i32 0), i64 18 }, i32 221, i32 73 }, align 8
@panic_loc.21 = internal unnamed_addr constant { %str_slice, %str_slice, i32, i32 } { %str_slice { i8* getelementptr inbounds ([28 x i8], [28 x i8]* @str.U, i32 0, i32 0), i64 28 }, %str_slice { i8* getelementptr inbounds ([18 x i8], [18 x i8]* @str.1B, i32 0, i32 0), i64 18 }, i32 222, i32 50 }, align 8
@panic_loc.22 = internal unnamed_addr constant { %str_slice, %str_slice, i32, i32 } { %str_slice { i8* getelementptr inbounds ([28 x i8], [28 x i8]* @str.U, i32 0, i32 0), i64 28 }, %str_slice { i8* getelementptr inbounds ([18 x i8], [18 x i8]* @str.1B, i32 0, i32 0), i64 18 }, i32 222, i32 73 }, align 8
@panic_loc.23 = internal unnamed_addr constant { %str_slice, %str_slice, i32, i32 } { %str_slice { i8* getelementptr inbounds ([28 x i8], [28 x i8]* @str.U, i32 0, i32 0), i64 28 }, %str_slice { i8* getelementptr inbounds ([18 x i8], [18 x i8]* @str.1B, i32 0, i32 0), i64 18 }, i32 247, i32 13 }, align 8
@panic_bounds_check_loc.24 = internal unnamed_addr constant { %str_slice, i32, i32 } { %str_slice { i8* getelementptr inbounds ([18 x i8], [18 x i8]* @str.1B, i32 0, i32 0), i64 18 }, i32 251, i32 23 }, align 8
@panic_bounds_check_loc.25 = internal unnamed_addr constant { %str_slice, i32, i32 } { %str_slice { i8* getelementptr inbounds ([18 x i8], [18 x i8]* @str.1B, i32 0, i32 0), i64 18 }, i32 251, i32 9 }, align 8
@panic_loc.26 = internal unnamed_addr constant { %str_slice, %str_slice, i32, i32 } { %str_slice { i8* getelementptr inbounds ([28 x i8], [28 x i8]* @str.U, i32 0, i32 0), i64 28 }, %str_slice { i8* getelementptr inbounds ([18 x i8], [18 x i8]* @str.1B, i32 0, i32 0), i64 18 }, i32 263, i32 65 }, align 8
@panic_loc.27 = internal unnamed_addr constant { %str_slice, %str_slice, i32, i32 } { %str_slice { i8* getelementptr inbounds ([28 x i8], [28 x i8]* @str.U, i32 0, i32 0), i64 28 }, %str_slice { i8* getelementptr inbounds ([18 x i8], [18 x i8]* @str.1B, i32 0, i32 0), i64 18 }, i32 264, i32 65 }, align 8
@panic_loc.28 = internal unnamed_addr constant { %str_slice, %str_slice, i32, i32 } { %str_slice { i8* getelementptr inbounds ([28 x i8], [28 x i8]* @str.U, i32 0, i32 0), i64 28 }, %str_slice { i8* getelementptr inbounds ([18 x i8], [18 x i8]* @str.1B, i32 0, i32 0), i64 18 }, i32 265, i32 65 }, align 8
@panic_loc.29 = internal unnamed_addr constant { %str_slice, %str_slice, i32, i32 } { %str_slice { i8* getelementptr inbounds ([28 x i8], [28 x i8]* @str.U, i32 0, i32 0), i64 28 }, %str_slice { i8* getelementptr inbounds ([18 x i8], [18 x i8]* @str.1B, i32 0, i32 0), i64 18 }, i32 266, i32 65 }, align 8
@panic_loc.2a = internal unnamed_addr constant { %str_slice, %str_slice, i32, i32 } { %str_slice { i8* getelementptr inbounds ([28 x i8], [28 x i8]* @str.U, i32 0, i32 0), i64 28 }, %str_slice { i8* getelementptr inbounds ([18 x i8], [18 x i8]* @str.1B, i32 0, i32 0), i64 18 }, i32 267, i32 65 }, align 8
@panic_loc.2b = internal unnamed_addr constant { %str_slice, %str_slice, i32, i32 } { %str_slice { i8* getelementptr inbounds ([28 x i8], [28 x i8]* @str.U, i32 0, i32 0), i64 28 }, %str_slice { i8* getelementptr inbounds ([18 x i8], [18 x i8]* @str.1B, i32 0, i32 0), i64 18 }, i32 268, i32 65 }, align 8
@panic_loc.2c = internal unnamed_addr constant { %str_slice, %str_slice, i32, i32 } { %str_slice { i8* getelementptr inbounds ([28 x i8], [28 x i8]* @str.U, i32 0, i32 0), i64 28 }, %str_slice { i8* getelementptr inbounds ([18 x i8], [18 x i8]* @str.1B, i32 0, i32 0), i64 18 }, i32 269, i32 65 }, align 8
@panic_loc.2d = internal unnamed_addr constant { %str_slice, %str_slice, i32, i32 } { %str_slice { i8* getelementptr inbounds ([28 x i8], [28 x i8]* @str.U, i32 0, i32 0), i64 28 }, %str_slice { i8* getelementptr inbounds ([18 x i8], [18 x i8]* @str.1B, i32 0, i32 0), i64 18 }, i32 282, i32 13 }, align 8
@panic_bounds_check_loc.2e = internal unnamed_addr constant { %str_slice, i32, i32 } { %str_slice { i8* getelementptr inbounds ([18 x i8], [18 x i8]* @str.1B, i32 0, i32 0), i64 18 }, i32 286, i32 43 }, align 8
@panic_bounds_check_loc.2f = internal unnamed_addr constant { %str_slice, i32, i32 } { %str_slice { i8* getelementptr inbounds ([18 x i8], [18 x i8]* @str.1B, i32 0, i32 0), i64 18 }, i32 286, i32 9 }, align 8

; <core::ops::range::RangeFrom<usize> as core::slice::SliceIndex<[T]>>::index
; Function Attrs: inlinehint uwtable
define internal { i8*, i64 } @"_ZN103_$LT$core..ops..range..RangeFrom$LT$usize$GT$$u20$as$u20$core..slice..SliceIndex$LT$$u5b$T$u5d$$GT$$GT$5index17h4ef8dd8ab9719beaE"(i64, i8* noalias nonnull readonly, i64) unnamed_addr #0 !dbg !144 {
start:
  %arg = alloca %"core::ops::range::Range<usize>"
  %_4 = alloca %"core::ops::range::Range<usize>"
  %slice = alloca { i8*, i64 }
  %abi_cast = alloca i64
  %self = alloca %"core::ops::range::RangeFrom<usize>"
  store i64 %0, i64* %abi_cast
  %3 = bitcast %"core::ops::range::RangeFrom<usize>"* %self to i8*
  %4 = bitcast i64* %abi_cast to i8*
  call void @llvm.memcpy.p0i8.p0i8.i64(i8* %3, i8* %4, i64 8, i32 8, i1 false)
  call void @llvm.dbg.declare(metadata %"core::ops::range::RangeFrom<usize>"* %self, metadata !163, metadata !165), !dbg !166
  %5 = getelementptr inbounds { i8*, i64 }, { i8*, i64 }* %slice, i32 0, i32 0
  store i8* %1, i8** %5
  %6 = getelementptr inbounds { i8*, i64 }, { i8*, i64 }* %slice, i32 0, i32 1
  store i64 %2, i64* %6
  call void @llvm.dbg.declare(metadata { i8*, i64 }* %slice, metadata !167, metadata !165), !dbg !166
  %7 = getelementptr inbounds %"core::ops::range::RangeFrom<usize>", %"core::ops::range::RangeFrom<usize>"* %self, i32 0, i32 0, !dbg !168
  %8 = load i64, i64* %7, !dbg !168
  %9 = getelementptr inbounds { i8*, i64 }, { i8*, i64 }* %slice, i32 0, i32 0, !dbg !168
  %10 = load i8*, i8** %9, !dbg !168, !nonnull !162
  %11 = getelementptr inbounds { i8*, i64 }, { i8*, i64 }* %slice, i32 0, i32 1, !dbg !168
  %12 = load i64, i64* %11, !dbg !168
; call <[T] as core::slice::SliceExt>::len
  %13 = call i64 @"_ZN53_$LT$$u5b$T$u5d$$u20$as$u20$core..slice..SliceExt$GT$3len17hcac9a11ef555511eE"(i8* noalias nonnull readonly %10, i64 %12), !dbg !168
  br label %bb1, !dbg !168

bb1:                                              ; preds = %start
  %14 = getelementptr inbounds %"core::ops::range::Range<usize>", %"core::ops::range::Range<usize>"* %_4, i32 0, i32 0, !dbg !168
  store i64 %8, i64* %14, !dbg !168
  %15 = getelementptr inbounds %"core::ops::range::Range<usize>", %"core::ops::range::Range<usize>"* %_4, i32 0, i32 2, !dbg !168
  store i64 %13, i64* %15, !dbg !168
  %16 = getelementptr inbounds { i8*, i64 }, { i8*, i64 }* %slice, i32 0, i32 0, !dbg !168
  %17 = load i8*, i8** %16, !dbg !168, !nonnull !162
  %18 = getelementptr inbounds { i8*, i64 }, { i8*, i64 }* %slice, i32 0, i32 1, !dbg !168
  %19 = load i64, i64* %18, !dbg !168
  %20 = getelementptr inbounds %"core::ops::range::Range<usize>", %"core::ops::range::Range<usize>"* %_4, i32 0, i32 0, !dbg !168
  %21 = getelementptr inbounds %"core::ops::range::Range<usize>", %"core::ops::range::Range<usize>"* %_4, i32 0, i32 2, !dbg !168
  %22 = load i64, i64* %20, !dbg !168
  %23 = load i64, i64* %21, !dbg !168
  %24 = getelementptr inbounds %"core::ops::range::Range<usize>", %"core::ops::range::Range<usize>"* %arg, i32 0, i32 0, !dbg !168
  store i64 %22, i64* %24, !dbg !168
  %25 = getelementptr inbounds %"core::ops::range::Range<usize>", %"core::ops::range::Range<usize>"* %arg, i32 0, i32 2, !dbg !168
  store i64 %23, i64* %25, !dbg !168
; call <core::ops::range::Range<usize> as core::slice::SliceIndex<[T]>>::index
  %26 = call { i8*, i64 } @"_ZN99_$LT$core..ops..range..Range$LT$usize$GT$$u20$as$u20$core..slice..SliceIndex$LT$$u5b$T$u5d$$GT$$GT$5index17hea92731966ee787dE"(%"core::ops::range::Range<usize>"* noalias nocapture dereferenceable(16) %arg, i8* noalias nonnull readonly %17, i64 %19), !dbg !168
  %27 = extractvalue { i8*, i64 } %26, 0, !dbg !168
  %28 = extractvalue { i8*, i64 } %26, 1, !dbg !168
  br label %bb2, !dbg !168

bb2:                                              ; preds = %bb1
  %29 = insertvalue { i8*, i64 } undef, i8* %27, 0, !dbg !169
  %30 = insertvalue { i8*, i64 } %29, i64 %28, 1, !dbg !169
  ret { i8*, i64 } %30, !dbg !169
}

; <alloc::vec::Vec<T> as core::ops::index::IndexMut<core::ops::range::RangeFull>>::index_mut
; Function Attrs: inlinehint uwtable
define internal { i8*, i64 } @"_ZN106_$LT$alloc..vec..Vec$LT$T$GT$$u20$as$u20$core..ops..index..IndexMut$LT$core..ops..range..RangeFull$GT$$GT$9index_mut17h74cbf8e9d8d43cc2E"(%"alloc::vec::Vec<u8>"* dereferenceable(24)) unnamed_addr #0 !dbg !170 {
start:
  %_index = alloca %"core::ops::range::RangeFull"
  %self = alloca %"alloc::vec::Vec<u8>"*
  store %"alloc::vec::Vec<u8>"* %0, %"alloc::vec::Vec<u8>"** %self
  call void @llvm.dbg.declare(metadata %"alloc::vec::Vec<u8>"** %self, metadata !205, metadata !165), !dbg !206
  call void @llvm.dbg.declare(metadata %"core::ops::range::RangeFull"* %_index, metadata !207, metadata !165), !dbg !206
  %1 = load %"alloc::vec::Vec<u8>"*, %"alloc::vec::Vec<u8>"** %self, !dbg !208, !nonnull !162
; call <alloc::vec::Vec<T> as core::ops::deref::DerefMut>::deref_mut
  %2 = call { i8*, i64 } @"_ZN71_$LT$alloc..vec..Vec$LT$T$GT$$u20$as$u20$core..ops..deref..DerefMut$GT$9deref_mut17he76617dae7e17b91E"(%"alloc::vec::Vec<u8>"* dereferenceable(24) %1), !dbg !208
  %3 = extractvalue { i8*, i64 } %2, 0, !dbg !208
  %4 = extractvalue { i8*, i64 } %2, 1, !dbg !208
  br label %bb1, !dbg !208

bb1:                                              ; preds = %start
  %5 = insertvalue { i8*, i64 } undef, i8* %3, 0, !dbg !209
  %6 = insertvalue { i8*, i64 } %5, i64 %4, 1, !dbg !209
  ret { i8*, i64 } %6, !dbg !209
}

; <alloc::vec::Vec<T> as core::ops::index::Index<core::ops::range::RangeFrom<usize>>>::index
; Function Attrs: inlinehint uwtable
define internal { i8*, i64 } @"_ZN116_$LT$alloc..vec..Vec$LT$T$GT$$u20$as$u20$core..ops..index..Index$LT$core..ops..range..RangeFrom$LT$usize$GT$$GT$$GT$5index17heea27e4abba06dfbE"(%"alloc::vec::Vec<u8>"* noalias readonly dereferenceable(24), i64) unnamed_addr #0 !dbg !210 {
start:
  %_8 = alloca %"core::ops::range::RangeFrom<usize>"
  %abi_cast = alloca i64
  %index = alloca %"core::ops::range::RangeFrom<usize>"
  %self = alloca %"alloc::vec::Vec<u8>"*
  store %"alloc::vec::Vec<u8>"* %0, %"alloc::vec::Vec<u8>"** %self
  call void @llvm.dbg.declare(metadata %"alloc::vec::Vec<u8>"** %self, metadata !214, metadata !165), !dbg !215
  store i64 %1, i64* %abi_cast
  %2 = bitcast %"core::ops::range::RangeFrom<usize>"* %index to i8*
  %3 = bitcast i64* %abi_cast to i8*
  call void @llvm.memcpy.p0i8.p0i8.i64(i8* %2, i8* %3, i64 8, i32 8, i1 false)
  call void @llvm.dbg.declare(metadata %"core::ops::range::RangeFrom<usize>"* %index, metadata !216, metadata !165), !dbg !215
  %4 = load %"alloc::vec::Vec<u8>"*, %"alloc::vec::Vec<u8>"** %self, !dbg !217, !nonnull !162
; call <alloc::vec::Vec<T> as core::ops::deref::Deref>::deref
  %5 = call { i8*, i64 } @"_ZN68_$LT$alloc..vec..Vec$LT$T$GT$$u20$as$u20$core..ops..deref..Deref$GT$5deref17h8878a4c2a736abceE"(%"alloc::vec::Vec<u8>"* noalias readonly dereferenceable(24) %4), !dbg !217
  %6 = extractvalue { i8*, i64 } %5, 0, !dbg !217
  %7 = extractvalue { i8*, i64 } %5, 1, !dbg !217
  br label %bb1, !dbg !217

bb1:                                              ; preds = %start
  %8 = bitcast %"core::ops::range::RangeFrom<usize>"* %index to i8*, !dbg !217
  %9 = bitcast %"core::ops::range::RangeFrom<usize>"* %_8 to i8*, !dbg !217
  call void @llvm.memcpy.p0i8.p0i8.i64(i8* %9, i8* %8, i64 8, i32 8, i1 false), !dbg !217
  %10 = bitcast %"core::ops::range::RangeFrom<usize>"* %_8 to i64*, !dbg !217
  %11 = load i64, i64* %10, align 8, !dbg !217
; call core::slice::<impl core::ops::index::Index<I> for [T]>::index
  %12 = call { i8*, i64 } @"_ZN4core5slice74_$LT$impl$u20$core..ops..index..Index$LT$I$GT$$u20$for$u20$$u5b$T$u5d$$GT$5index17h1cea15dfa642c79cE"(i8* noalias nonnull readonly %6, i64 %7, i64 %11), !dbg !217
  %13 = extractvalue { i8*, i64 } %12, 0, !dbg !217
  %14 = extractvalue { i8*, i64 } %12, 1, !dbg !217
  br label %bb2, !dbg !217

bb2:                                              ; preds = %bb1
  %15 = insertvalue { i8*, i64 } undef, i8* %13, 0, !dbg !218
  %16 = insertvalue { i8*, i64 } %15, i64 %14, 1, !dbg !218
  ret { i8*, i64 } %16, !dbg !218
}

; <core::nonzero::NonZero<*const T> as core::convert::From<&'a mut T>>::from
; Function Attrs: uwtable
define internal i64 @"_ZN117_$LT$core..nonzero..NonZero$LT$$BP$const$u20$T$GT$$u20$as$u20$core..convert..From$LT$$RF$$u27$a$u20$mut$u20$T$GT$$GT$4from17hc62f7ef5a68437e9E"(%"alloc::vec::Vec<u8>"* dereferenceable(24)) unnamed_addr #1 !dbg !219 {
start:
  %ptr = alloca %"alloc::vec::Vec<u8>"*
  %_0 = alloca %"core::nonzero::NonZero<*const alloc::vec::Vec<u8>>"
  %reference = alloca %"alloc::vec::Vec<u8>"*
  store %"alloc::vec::Vec<u8>"* %0, %"alloc::vec::Vec<u8>"** %reference
  call void @llvm.dbg.declare(metadata %"alloc::vec::Vec<u8>"** %reference, metadata !230, metadata !165), !dbg !231
  call void @llvm.dbg.declare(metadata %"alloc::vec::Vec<u8>"** %ptr, metadata !232, metadata !165), !dbg !234
  %1 = load %"alloc::vec::Vec<u8>"*, %"alloc::vec::Vec<u8>"** %reference, !dbg !234, !nonnull !162
  store %"alloc::vec::Vec<u8>"* %1, %"alloc::vec::Vec<u8>"** %ptr, !dbg !234
  %2 = load %"alloc::vec::Vec<u8>"*, %"alloc::vec::Vec<u8>"** %ptr, !dbg !235
  %3 = getelementptr inbounds %"core::nonzero::NonZero<*const alloc::vec::Vec<u8>>", %"core::nonzero::NonZero<*const alloc::vec::Vec<u8>>"* %_0, i32 0, i32 0, !dbg !235
  store %"alloc::vec::Vec<u8>"* %2, %"alloc::vec::Vec<u8>"** %3, !dbg !235
  %4 = bitcast %"core::nonzero::NonZero<*const alloc::vec::Vec<u8>>"* %_0 to i64*, !dbg !236
  %5 = load i64, i64* %4, align 8, !dbg !236
  ret i64 %5, !dbg !236
}

; <alloc::arc::Arc<T>>::inner
; Function Attrs: inlinehint uwtable
define internal dereferenceable(80) %"alloc::arc::ArcInner<std::sys_common::remutex::ReentrantMutex<core::cell::RefCell<std::io::buffered::LineWriter<std::io::stdio::Maybe<std::io::stdio::StdoutRaw>>>>>"* @"_ZN33_$LT$alloc..arc..Arc$LT$T$GT$$GT$5inner17h0dcc95fe0b1f3173E"(%"alloc::arc::Arc<std::sys_common::remutex::ReentrantMutex<core::cell::RefCell<std::io::buffered::LineWriter<std::io::stdio::Maybe<std::io::stdio::StdoutRaw>>>>>"* noalias readonly dereferenceable(8)) unnamed_addr #0 !dbg !237 {
start:
  %self = alloca %"alloc::arc::Arc<std::sys_common::remutex::ReentrantMutex<core::cell::RefCell<std::io::buffered::LineWriter<std::io::stdio::Maybe<std::io::stdio::StdoutRaw>>>>>"*
  store %"alloc::arc::Arc<std::sys_common::remutex::ReentrantMutex<core::cell::RefCell<std::io::buffered::LineWriter<std::io::stdio::Maybe<std::io::stdio::StdoutRaw>>>>>"* %0, %"alloc::arc::Arc<std::sys_common::remutex::ReentrantMutex<core::cell::RefCell<std::io::buffered::LineWriter<std::io::stdio::Maybe<std::io::stdio::StdoutRaw>>>>>"** %self
  call void @llvm.dbg.declare(metadata %"alloc::arc::Arc<std::sys_common::remutex::ReentrantMutex<core::cell::RefCell<std::io::buffered::LineWriter<std::io::stdio::Maybe<std::io::stdio::StdoutRaw>>>>>"** %self, metadata !355, metadata !165), !dbg !356
  %1 = load %"alloc::arc::Arc<std::sys_common::remutex::ReentrantMutex<core::cell::RefCell<std::io::buffered::LineWriter<std::io::stdio::Maybe<std::io::stdio::StdoutRaw>>>>>"*, %"alloc::arc::Arc<std::sys_common::remutex::ReentrantMutex<core::cell::RefCell<std::io::buffered::LineWriter<std::io::stdio::Maybe<std::io::stdio::StdoutRaw>>>>>"** %self, !dbg !357, !nonnull !162
  %2 = getelementptr inbounds %"alloc::arc::Arc<std::sys_common::remutex::ReentrantMutex<core::cell::RefCell<std::io::buffered::LineWriter<std::io::stdio::Maybe<std::io::stdio::StdoutRaw>>>>>", %"alloc::arc::Arc<std::sys_common::remutex::ReentrantMutex<core::cell::RefCell<std::io::buffered::LineWriter<std::io::stdio::Maybe<std::io::stdio::StdoutRaw>>>>>"* %1, i32 0, i32 0, !dbg !357
; call <core::ptr::Shared<T>>::as_ref
  %3 = call dereferenceable(80) %"alloc::arc::ArcInner<std::sys_common::remutex::ReentrantMutex<core::cell::RefCell<std::io::buffered::LineWriter<std::io::stdio::Maybe<std::io::stdio::StdoutRaw>>>>>"* @"_ZN35_$LT$core..ptr..Shared$LT$T$GT$$GT$6as_ref17h0c1281f704e8f6eaE"(%"core::ptr::Shared<alloc::arc::ArcInner<std::sys_common::remutex::ReentrantMutex<core::cell::RefCell<std::io::buffered::LineWriter<std::io::stdio::Maybe<std::io::stdio::StdoutRaw>>>>>>"* noalias readonly dereferenceable(8) %2), !dbg !357
  br label %bb1, !dbg !357

bb1:                                              ; preds = %start
  ret %"alloc::arc::ArcInner<std::sys_common::remutex::ReentrantMutex<core::cell::RefCell<std::io::buffered::LineWriter<std::io::stdio::Maybe<std::io::stdio::StdoutRaw>>>>>"* %3, !dbg !359
}

; <alloc::arc::Arc<T>>::drop_slow
; Function Attrs: noinline uwtable
define internal void @"_ZN33_$LT$alloc..arc..Arc$LT$T$GT$$GT$9drop_slow17h10dec3e3b8b9f06bE"(%"alloc::arc::Arc<std::sys_common::remutex::ReentrantMutex<core::cell::RefCell<std::io::buffered::LineWriter<std::io::stdio::Maybe<std::io::stdio::StdoutRaw>>>>>"* dereferenceable(8)) unnamed_addr #2 !dbg !360 {
start:
  %arg = alloca %"alloc::allocator::Layout"
  %tmp_ret = alloca %"alloc::allocator::Layout"
  %_19 = alloca %"alloc::heap::Heap"
  %_17 = alloca i8
  %_15 = alloca i8
  %_3 = alloca %"core::ptr::Shared<alloc::arc::ArcInner<std::sys_common::remutex::ReentrantMutex<core::cell::RefCell<std::io::buffered::LineWriter<std::io::stdio::Maybe<std::io::stdio::StdoutRaw>>>>>>"
  %ptr = alloca %"alloc::arc::ArcInner<std::sys_common::remutex::ReentrantMutex<core::cell::RefCell<std::io::buffered::LineWriter<std::io::stdio::Maybe<std::io::stdio::StdoutRaw>>>>>"*
  %_0 = alloca {}
  %self = alloca %"alloc::arc::Arc<std::sys_common::remutex::ReentrantMutex<core::cell::RefCell<std::io::buffered::LineWriter<std::io::stdio::Maybe<std::io::stdio::StdoutRaw>>>>>"*
  store %"alloc::arc::Arc<std::sys_common::remutex::ReentrantMutex<core::cell::RefCell<std::io::buffered::LineWriter<std::io::stdio::Maybe<std::io::stdio::StdoutRaw>>>>>"* %0, %"alloc::arc::Arc<std::sys_common::remutex::ReentrantMutex<core::cell::RefCell<std::io::buffered::LineWriter<std::io::stdio::Maybe<std::io::stdio::StdoutRaw>>>>>"** %self
  call void @llvm.dbg.declare(metadata %"alloc::arc::Arc<std::sys_common::remutex::ReentrantMutex<core::cell::RefCell<std::io::buffered::LineWriter<std::io::stdio::Maybe<std::io::stdio::StdoutRaw>>>>>"** %self, metadata !364, metadata !165), !dbg !365
  call void @llvm.dbg.declare(metadata %"alloc::arc::ArcInner<std::sys_common::remutex::ReentrantMutex<core::cell::RefCell<std::io::buffered::LineWriter<std::io::stdio::Maybe<std::io::stdio::StdoutRaw>>>>>"** %ptr, metadata !366, metadata !165), !dbg !369
  %1 = load %"alloc::arc::Arc<std::sys_common::remutex::ReentrantMutex<core::cell::RefCell<std::io::buffered::LineWriter<std::io::stdio::Maybe<std::io::stdio::StdoutRaw>>>>>"*, %"alloc::arc::Arc<std::sys_common::remutex::ReentrantMutex<core::cell::RefCell<std::io::buffered::LineWriter<std::io::stdio::Maybe<std::io::stdio::StdoutRaw>>>>>"** %self, !dbg !369, !nonnull !162
  %2 = getelementptr inbounds %"alloc::arc::Arc<std::sys_common::remutex::ReentrantMutex<core::cell::RefCell<std::io::buffered::LineWriter<std::io::stdio::Maybe<std::io::stdio::StdoutRaw>>>>>", %"alloc::arc::Arc<std::sys_common::remutex::ReentrantMutex<core::cell::RefCell<std::io::buffered::LineWriter<std::io::stdio::Maybe<std::io::stdio::StdoutRaw>>>>>"* %1, i32 0, i32 0, !dbg !369
  %3 = bitcast %"core::ptr::Shared<alloc::arc::ArcInner<std::sys_common::remutex::ReentrantMutex<core::cell::RefCell<std::io::buffered::LineWriter<std::io::stdio::Maybe<std::io::stdio::StdoutRaw>>>>>>"* %2 to i8*, !dbg !369
  %4 = bitcast %"core::ptr::Shared<alloc::arc::ArcInner<std::sys_common::remutex::ReentrantMutex<core::cell::RefCell<std::io::buffered::LineWriter<std::io::stdio::Maybe<std::io::stdio::StdoutRaw>>>>>>"* %_3 to i8*, !dbg !369
  call void @llvm.memcpy.p0i8.p0i8.i64(i8* %4, i8* %3, i64 8, i32 8, i1 false), !dbg !369
  %5 = bitcast %"core::ptr::Shared<alloc::arc::ArcInner<std::sys_common::remutex::ReentrantMutex<core::cell::RefCell<std::io::buffered::LineWriter<std::io::stdio::Maybe<std::io::stdio::StdoutRaw>>>>>>"* %_3 to i64*, !dbg !369
  %6 = load i64, i64* %5, align 8, !dbg !369
; call <core::ptr::Shared<T>>::as_ptr
  %7 = call %"alloc::arc::ArcInner<std::sys_common::remutex::ReentrantMutex<core::cell::RefCell<std::io::buffered::LineWriter<std::io::stdio::Maybe<std::io::stdio::StdoutRaw>>>>>"* @"_ZN35_$LT$core..ptr..Shared$LT$T$GT$$GT$6as_ptr17hb66602376dae19e0E"(i64 %6), !dbg !369
  store %"alloc::arc::ArcInner<std::sys_common::remutex::ReentrantMutex<core::cell::RefCell<std::io::buffered::LineWriter<std::io::stdio::Maybe<std::io::stdio::StdoutRaw>>>>>"* %7, %"alloc::arc::ArcInner<std::sys_common::remutex::ReentrantMutex<core::cell::RefCell<std::io::buffered::LineWriter<std::io::stdio::Maybe<std::io::stdio::StdoutRaw>>>>>"** %ptr, !dbg !369
  br label %bb1, !dbg !369

bb1:                                              ; preds = %start
  %8 = load %"alloc::arc::Arc<std::sys_common::remutex::ReentrantMutex<core::cell::RefCell<std::io::buffered::LineWriter<std::io::stdio::Maybe<std::io::stdio::StdoutRaw>>>>>"*, %"alloc::arc::Arc<std::sys_common::remutex::ReentrantMutex<core::cell::RefCell<std::io::buffered::LineWriter<std::io::stdio::Maybe<std::io::stdio::StdoutRaw>>>>>"** %self, !dbg !370, !nonnull !162
  %9 = getelementptr inbounds %"alloc::arc::Arc<std::sys_common::remutex::ReentrantMutex<core::cell::RefCell<std::io::buffered::LineWriter<std::io::stdio::Maybe<std::io::stdio::StdoutRaw>>>>>", %"alloc::arc::Arc<std::sys_common::remutex::ReentrantMutex<core::cell::RefCell<std::io::buffered::LineWriter<std::io::stdio::Maybe<std::io::stdio::StdoutRaw>>>>>"* %8, i32 0, i32 0, !dbg !370
; call <core::ptr::Shared<T>>::as_mut
  %10 = call dereferenceable(80) %"alloc::arc::ArcInner<std::sys_common::remutex::ReentrantMutex<core::cell::RefCell<std::io::buffered::LineWriter<std::io::stdio::Maybe<std::io::stdio::StdoutRaw>>>>>"* @"_ZN35_$LT$core..ptr..Shared$LT$T$GT$$GT$6as_mut17h2dd39a14d603c905E"(%"core::ptr::Shared<alloc::arc::ArcInner<std::sys_common::remutex::ReentrantMutex<core::cell::RefCell<std::io::buffered::LineWriter<std::io::stdio::Maybe<std::io::stdio::StdoutRaw>>>>>>"* dereferenceable(8) %9), !dbg !370
  br label %bb2, !dbg !370

bb2:                                              ; preds = %bb1
  %11 = getelementptr inbounds %"alloc::arc::ArcInner<std::sys_common::remutex::ReentrantMutex<core::cell::RefCell<std::io::buffered::LineWriter<std::io::stdio::Maybe<std::io::stdio::StdoutRaw>>>>>", %"alloc::arc::ArcInner<std::sys_common::remutex::ReentrantMutex<core::cell::RefCell<std::io::buffered::LineWriter<std::io::stdio::Maybe<std::io::stdio::StdoutRaw>>>>>"* %10, i32 0, i32 4, !dbg !370
; call core::ptr::drop_in_place
  call void @_ZN4core3ptr13drop_in_place17h6eb87e6f8bedd933E(%"std::sys_common::remutex::ReentrantMutex<core::cell::RefCell<std::io::buffered::LineWriter<std::io::stdio::Maybe<std::io::stdio::StdoutRaw>>>>"* %11), !dbg !370
  br label %bb3, !dbg !370

bb3:                                              ; preds = %bb2
  %12 = load %"alloc::arc::Arc<std::sys_common::remutex::ReentrantMutex<core::cell::RefCell<std::io::buffered::LineWriter<std::io::stdio::Maybe<std::io::stdio::StdoutRaw>>>>>"*, %"alloc::arc::Arc<std::sys_common::remutex::ReentrantMutex<core::cell::RefCell<std::io::buffered::LineWriter<std::io::stdio::Maybe<std::io::stdio::StdoutRaw>>>>>"** %self, !dbg !371, !nonnull !162
; call <alloc::arc::Arc<T>>::inner
  %13 = call dereferenceable(80) %"alloc::arc::ArcInner<std::sys_common::remutex::ReentrantMutex<core::cell::RefCell<std::io::buffered::LineWriter<std::io::stdio::Maybe<std::io::stdio::StdoutRaw>>>>>"* @"_ZN33_$LT$alloc..arc..Arc$LT$T$GT$$GT$5inner17h0dcc95fe0b1f3173E"(%"alloc::arc::Arc<std::sys_common::remutex::ReentrantMutex<core::cell::RefCell<std::io::buffered::LineWriter<std::io::stdio::Maybe<std::io::stdio::StdoutRaw>>>>>"* noalias readonly dereferenceable(8) %12), !dbg !371
  br label %bb4, !dbg !371

bb4:                                              ; preds = %bb3
  %14 = getelementptr inbounds %"alloc::arc::ArcInner<std::sys_common::remutex::ReentrantMutex<core::cell::RefCell<std::io::buffered::LineWriter<std::io::stdio::Maybe<std::io::stdio::StdoutRaw>>>>>", %"alloc::arc::ArcInner<std::sys_common::remutex::ReentrantMutex<core::cell::RefCell<std::io::buffered::LineWriter<std::io::stdio::Maybe<std::io::stdio::StdoutRaw>>>>>"* %13, i32 0, i32 2, !dbg !371
  store i8 1, i8* %_15, !dbg !371
  %15 = load i8, i8* %_15, !dbg !371
; call core::sync::atomic::AtomicUsize::fetch_sub
  %16 = call i64 @_ZN4core4sync6atomic11AtomicUsize9fetch_sub17ha98b4ad6d924a442E(%"core::sync::atomic::AtomicUsize"* dereferenceable(8) %14, i64 1, i8 %15), !dbg !371
  br label %bb5, !dbg !371

bb5:                                              ; preds = %bb4
  %17 = icmp eq i64 %16, 1, !dbg !371
  br i1 %17, label %bb6, label %bb7, !dbg !371

bb6:                                              ; preds = %bb5
  store i8 2, i8* %_17, !dbg !372
  %18 = load i8, i8* %_17, !dbg !372
; call core::sync::atomic::fence
  call void @_ZN4core4sync6atomic5fence17h5cdd862b8c2dd6abE(i8 %18), !dbg !372
  br label %bb8, !dbg !372

bb7:                                              ; preds = %bb5
  br label %bb11, !dbg !371

bb8:                                              ; preds = %bb6
  %19 = load %"alloc::arc::ArcInner<std::sys_common::remutex::ReentrantMutex<core::cell::RefCell<std::io::buffered::LineWriter<std::io::stdio::Maybe<std::io::stdio::StdoutRaw>>>>>"*, %"alloc::arc::ArcInner<std::sys_common::remutex::ReentrantMutex<core::cell::RefCell<std::io::buffered::LineWriter<std::io::stdio::Maybe<std::io::stdio::StdoutRaw>>>>>"** %ptr, !dbg !373
  %20 = bitcast %"alloc::arc::ArcInner<std::sys_common::remutex::ReentrantMutex<core::cell::RefCell<std::io::buffered::LineWriter<std::io::stdio::Maybe<std::io::stdio::StdoutRaw>>>>>"* %19 to i8*, !dbg !373
  %21 = load %"alloc::arc::ArcInner<std::sys_common::remutex::ReentrantMutex<core::cell::RefCell<std::io::buffered::LineWriter<std::io::stdio::Maybe<std::io::stdio::StdoutRaw>>>>>"*, %"alloc::arc::ArcInner<std::sys_common::remutex::ReentrantMutex<core::cell::RefCell<std::io::buffered::LineWriter<std::io::stdio::Maybe<std::io::stdio::StdoutRaw>>>>>"** %ptr, !dbg !373
; call alloc::allocator::Layout::for_value
  call void @_ZN5alloc9allocator6Layout9for_value17hcd934cee31a2c7f8E(%"alloc::allocator::Layout"* noalias nocapture sret dereferenceable(16) %tmp_ret, %"alloc::arc::ArcInner<std::sys_common::remutex::ReentrantMutex<core::cell::RefCell<std::io::buffered::LineWriter<std::io::stdio::Maybe<std::io::stdio::StdoutRaw>>>>>"* dereferenceable(80) %21), !dbg !373
  %22 = getelementptr inbounds %"alloc::allocator::Layout", %"alloc::allocator::Layout"* %tmp_ret, i32 0, i32 0, !dbg !373
  %23 = getelementptr inbounds %"alloc::allocator::Layout", %"alloc::allocator::Layout"* %tmp_ret, i32 0, i32 2, !dbg !373
  %24 = load i64, i64* %22, !dbg !373
  %25 = load i64, i64* %23, !dbg !373
  br label %bb9, !dbg !373

bb9:                                              ; preds = %bb8
  %26 = getelementptr inbounds %"alloc::allocator::Layout", %"alloc::allocator::Layout"* %arg, i32 0, i32 0, !dbg !373
  store i64 %24, i64* %26, !dbg !373
  %27 = getelementptr inbounds %"alloc::allocator::Layout", %"alloc::allocator::Layout"* %arg, i32 0, i32 2, !dbg !373
  store i64 %25, i64* %27, !dbg !373
; call <alloc::heap::Heap as alloc::allocator::Alloc>::dealloc
  call void @"_ZN61_$LT$alloc..heap..Heap$u20$as$u20$alloc..allocator..Alloc$GT$7dealloc17h9e2615e0f1b1145aE"(%"alloc::heap::Heap"* %_19, i8* %20, %"alloc::allocator::Layout"* noalias nocapture dereferenceable(16) %arg), !dbg !373
  br label %bb10, !dbg !373

bb10:                                             ; preds = %bb9
  br label %bb11, !dbg !371

bb11:                                             ; preds = %bb7, %bb10
  ret void, !dbg !374
}

; <alloc::vec::Vec<T>>::with_capacity
; Function Attrs: inlinehint uwtable
define internal void @"_ZN33_$LT$alloc..vec..Vec$LT$T$GT$$GT$13with_capacity17hd50efc3e926c5010E"(%"alloc::vec::Vec<u8>"* noalias nocapture sret dereferenceable(24), i64) unnamed_addr #0 !dbg !375 {
start:
  %_2 = alloca %"alloc::raw_vec::RawVec<u8, alloc::heap::Heap>"
  %capacity = alloca i64
  store i64 %1, i64* %capacity
  call void @llvm.dbg.declare(metadata i64* %capacity, metadata !378, metadata !165), !dbg !379
  %2 = load i64, i64* %capacity, !dbg !380
; call <alloc::raw_vec::RawVec<T>>::with_capacity
  call void @"_ZN40_$LT$alloc..raw_vec..RawVec$LT$T$GT$$GT$13with_capacity17haccf3ded1224c464E"(%"alloc::raw_vec::RawVec<u8, alloc::heap::Heap>"* noalias nocapture sret dereferenceable(16) %_2, i64 %2), !dbg !380
  br label %bb1, !dbg !380

bb1:                                              ; preds = %start
  %3 = getelementptr inbounds %"alloc::vec::Vec<u8>", %"alloc::vec::Vec<u8>"* %0, i32 0, i32 0, !dbg !381
  %4 = bitcast %"alloc::raw_vec::RawVec<u8, alloc::heap::Heap>"* %_2 to i8*, !dbg !381
  %5 = bitcast %"alloc::raw_vec::RawVec<u8, alloc::heap::Heap>"* %3 to i8*, !dbg !381
  call void @llvm.memcpy.p0i8.p0i8.i64(i8* %5, i8* %4, i64 16, i32 8, i1 false), !dbg !381
  %6 = getelementptr inbounds %"alloc::vec::Vec<u8>", %"alloc::vec::Vec<u8>"* %0, i32 0, i32 2, !dbg !381
  store i64 0, i64* %6, !dbg !381
  ret void, !dbg !382
}

; <alloc::vec::Vec<T>>::len
; Function Attrs: inlinehint uwtable
define internal i64 @"_ZN33_$LT$alloc..vec..Vec$LT$T$GT$$GT$3len17h568703544c3b3fedE"(%"alloc::vec::Vec<u8>"* noalias readonly dereferenceable(24)) unnamed_addr #0 !dbg !383 {
start:
  %self = alloca %"alloc::vec::Vec<u8>"*
  store %"alloc::vec::Vec<u8>"* %0, %"alloc::vec::Vec<u8>"** %self
  call void @llvm.dbg.declare(metadata %"alloc::vec::Vec<u8>"** %self, metadata !386, metadata !165), !dbg !387
  %1 = load %"alloc::vec::Vec<u8>"*, %"alloc::vec::Vec<u8>"** %self, !dbg !388, !nonnull !162
  %2 = getelementptr inbounds %"alloc::vec::Vec<u8>", %"alloc::vec::Vec<u8>"* %1, i32 0, i32 2, !dbg !388
  %3 = load i64, i64* %2, !dbg !388
  ret i64 %3, !dbg !389
}

; <alloc::vec::Vec<T>>::drain
; Function Attrs: uwtable
define internal void @"_ZN33_$LT$alloc..vec..Vec$LT$T$GT$$GT$5drain17h251b4641036f73f4E"(%"alloc::vec::Drain<u8>"* noalias nocapture sret dereferenceable(40), %"alloc::vec::Vec<u8>"* dereferenceable(24), i64) unnamed_addr #1 personality i32 (...)* @__CxxFrameHandler3 !dbg !390 {
start:
  %abi_cast5 = alloca i64
  %_56 = alloca %"core::ptr::Shared<alloc::vec::Vec<u8>>"
  %_54 = alloca %"core::slice::Iter<u8>"
  %range_slice = alloca { i8*, i64 }
  %n4 = alloca i64
  %n3 = alloca i64
  %_14 = alloca %"alloc::Bound<&usize>"
  %end = alloca i64
  %n2 = alloca i64
  %n = alloca i64
  %_6 = alloca %"alloc::Bound<&usize>"
  %start1 = alloca i64
  %len = alloca i64
  %abi_cast = alloca i64
  %range = alloca %"core::ops::range::RangeTo<usize>"
  %self = alloca %"alloc::vec::Vec<u8>"*
  store %"alloc::vec::Vec<u8>"* %1, %"alloc::vec::Vec<u8>"** %self
  call void @llvm.dbg.declare(metadata %"alloc::vec::Vec<u8>"** %self, metadata !415, metadata !165), !dbg !416
  store i64 %2, i64* %abi_cast
  %3 = bitcast %"core::ops::range::RangeTo<usize>"* %range to i8*
  %4 = bitcast i64* %abi_cast to i8*
  call void @llvm.memcpy.p0i8.p0i8.i64(i8* %3, i8* %4, i64 8, i32 8, i1 false)
  call void @llvm.dbg.declare(metadata %"core::ops::range::RangeTo<usize>"* %range, metadata !417, metadata !165), !dbg !416
  call void @llvm.dbg.declare(metadata i64* %len, metadata !418, metadata !165), !dbg !420
  call void @llvm.dbg.declare(metadata i64* %start1, metadata !421, metadata !165), !dbg !423
  call void @llvm.dbg.declare(metadata i64* %n, metadata !424, metadata !165), !dbg !426
  call void @llvm.dbg.declare(metadata i64* %n2, metadata !427, metadata !165), !dbg !429
  call void @llvm.dbg.declare(metadata i64* %end, metadata !430, metadata !165), !dbg !432
  call void @llvm.dbg.declare(metadata i64* %n3, metadata !433, metadata !165), !dbg !435
  call void @llvm.dbg.declare(metadata i64* %n4, metadata !436, metadata !165), !dbg !438
  call void @llvm.dbg.declare(metadata { i8*, i64 }* %range_slice, metadata !439, metadata !165), !dbg !441
  %5 = load %"alloc::vec::Vec<u8>"*, %"alloc::vec::Vec<u8>"** %self, !dbg !420, !nonnull !162
; invoke <alloc::vec::Vec<T>>::len
  %6 = invoke i64 @"_ZN33_$LT$alloc..vec..Vec$LT$T$GT$$GT$3len17h568703544c3b3fedE"(%"alloc::vec::Vec<u8>"* noalias readonly dereferenceable(24) %5)
          to label %bb1 unwind label %funclet_bb3, !dbg !420

bb1:                                              ; preds = %start
  store i64 %6, i64* %len, !dbg !420
; invoke <core::ops::range::RangeTo<T> as alloc::range::RangeArgument<T>>::start
  invoke void @"_ZN91_$LT$core..ops..range..RangeTo$LT$T$GT$$u20$as$u20$alloc..range..RangeArgument$LT$T$GT$$GT$5start17h72d29f62c0c897c4E"(%"alloc::Bound<&usize>"* noalias nocapture sret dereferenceable(16) %_6, %"core::ops::range::RangeTo<usize>"* noalias readonly dereferenceable(8) %range)
          to label %bb4 unwind label %funclet_bb3, !dbg !423

bb2:                                              ; preds = %bb3
  cleanupret from %cleanuppad unwind to caller, !dbg !442

bb3:                                              ; preds = %funclet_bb3
  br label %bb2, !dbg !443

bb4:                                              ; preds = %bb1
  %7 = getelementptr inbounds %"alloc::Bound<&usize>", %"alloc::Bound<&usize>"* %_6, i32 0, i32 0, !dbg !444
  %8 = load i64, i64* %7, !dbg !444, !range !445
  switch i64 %8, label %bb6 [
    i64 0, label %bb7
    i64 1, label %bb8
    i64 2, label %bb5
  ], !dbg !444

bb5:                                              ; preds = %bb4
  store i64 0, i64* %start1, !dbg !446
  br label %bb9, !dbg !447

bb6:                                              ; preds = %bb10, %bb4
  unreachable, !dbg !443

bb7:                                              ; preds = %bb4
  %9 = bitcast %"alloc::Bound<&usize>"* %_6 to { i64, [0 x i8], i64*, [0 x i8] }*, !dbg !444
  %10 = getelementptr inbounds { i64, [0 x i8], i64*, [0 x i8] }, { i64, [0 x i8], i64*, [0 x i8] }* %9, i32 0, i32 2, !dbg !444
  %11 = load i64*, i64** %10, !dbg !444, !nonnull !162
  %12 = load i64, i64* %11, !dbg !444
  store i64 %12, i64* %n, !dbg !444
  %13 = load i64, i64* %n, !dbg !426
  store i64 %13, i64* %start1, !dbg !426
  br label %bb9, !dbg !447

bb8:                                              ; preds = %bb4
  %14 = bitcast %"alloc::Bound<&usize>"* %_6 to { i64, [0 x i8], i64*, [0 x i8] }*, !dbg !429
  %15 = getelementptr inbounds { i64, [0 x i8], i64*, [0 x i8] }, { i64, [0 x i8], i64*, [0 x i8] }* %14, i32 0, i32 2, !dbg !429
  %16 = load i64*, i64** %15, !dbg !429, !nonnull !162
  %17 = load i64, i64* %16, !dbg !429
  store i64 %17, i64* %n2, !dbg !429
  %18 = load i64, i64* %n2, !dbg !429
  %19 = add i64 %18, 1, !dbg !429
  store i64 %19, i64* %start1, !dbg !429
  br label %bb9, !dbg !447

bb9:                                              ; preds = %bb7, %bb8, %bb5
; invoke <core::ops::range::RangeTo<T> as alloc::range::RangeArgument<T>>::end
  invoke void @"_ZN91_$LT$core..ops..range..RangeTo$LT$T$GT$$u20$as$u20$alloc..range..RangeArgument$LT$T$GT$$GT$3end17h8371f0b9e3f30a6aE"(%"alloc::Bound<&usize>"* noalias nocapture sret dereferenceable(16) %_14, %"core::ops::range::RangeTo<usize>"* noalias readonly dereferenceable(8) %range)
          to label %bb10 unwind label %funclet_bb3, !dbg !432

bb10:                                             ; preds = %bb9
  %20 = getelementptr inbounds %"alloc::Bound<&usize>", %"alloc::Bound<&usize>"* %_14, i32 0, i32 0, !dbg !448
  %21 = load i64, i64* %20, !dbg !448, !range !445
  switch i64 %21, label %bb6 [
    i64 0, label %bb12
    i64 1, label %bb13
    i64 2, label %bb11
  ], !dbg !448

bb11:                                             ; preds = %bb10
  %22 = load i64, i64* %len, !dbg !449
  store i64 %22, i64* %end, !dbg !449
  br label %bb14, !dbg !450

bb12:                                             ; preds = %bb10
  %23 = bitcast %"alloc::Bound<&usize>"* %_14 to { i64, [0 x i8], i64*, [0 x i8] }*, !dbg !448
  %24 = getelementptr inbounds { i64, [0 x i8], i64*, [0 x i8] }, { i64, [0 x i8], i64*, [0 x i8] }* %23, i32 0, i32 2, !dbg !448
  %25 = load i64*, i64** %24, !dbg !448, !nonnull !162
  %26 = load i64, i64* %25, !dbg !448
  store i64 %26, i64* %n3, !dbg !448
  %27 = load i64, i64* %n3, !dbg !435
  %28 = add i64 %27, 1, !dbg !435
  store i64 %28, i64* %end, !dbg !435
  br label %bb14, !dbg !450

bb13:                                             ; preds = %bb10
  %29 = bitcast %"alloc::Bound<&usize>"* %_14 to { i64, [0 x i8], i64*, [0 x i8] }*, !dbg !438
  %30 = getelementptr inbounds { i64, [0 x i8], i64*, [0 x i8] }, { i64, [0 x i8], i64*, [0 x i8] }* %29, i32 0, i32 2, !dbg !438
  %31 = load i64*, i64** %30, !dbg !438, !nonnull !162
  %32 = load i64, i64* %31, !dbg !438
  store i64 %32, i64* %n4, !dbg !438
  %33 = load i64, i64* %n4, !dbg !438
  store i64 %33, i64* %end, !dbg !438
  br label %bb14, !dbg !450

bb14:                                             ; preds = %bb12, %bb13, %bb11
  %34 = load i64, i64* %start1, !dbg !451
  %35 = load i64, i64* %end, !dbg !451
  %36 = icmp ule i64 %34, %35, !dbg !451
  %37 = xor i1 %36, true, !dbg !452
  br i1 %37, label %bb15, label %bb16, !dbg !452

bb15:                                             ; preds = %bb14
  %38 = load { %str_slice, [0 x i8], %str_slice, [0 x i8], i32, [0 x i8], i32, [0 x i8] }*, { %str_slice, [0 x i8], %str_slice, [0 x i8], i32, [0 x i8], i32, [0 x i8] }** bitcast ({ %str_slice, %str_slice, i32, i32 }** @const.3 to { %str_slice, [0 x i8], %str_slice, [0 x i8], i32, [0 x i8], i32, [0 x i8] }**), !dbg !455, !nonnull !162
; invoke core::panicking::panic
  invoke void @_ZN4core9panicking5panic17hbb9b03eae4db0581E({ %str_slice, [0 x i8], %str_slice, [0 x i8], i32, [0 x i8], i32, [0 x i8] }* noalias readonly dereferenceable(40) %38)
          to label %unreachable unwind label %funclet_bb3, !dbg !458

bb16:                                             ; preds = %bb14
  %39 = load i64, i64* %end, !dbg !459
  %40 = load i64, i64* %len, !dbg !459
  %41 = icmp ule i64 %39, %40, !dbg !459
  %42 = xor i1 %41, true, !dbg !452
  br i1 %42, label %bb17, label %bb18, !dbg !452

bb17:                                             ; preds = %bb16
  %43 = load { %str_slice, [0 x i8], %str_slice, [0 x i8], i32, [0 x i8], i32, [0 x i8] }*, { %str_slice, [0 x i8], %str_slice, [0 x i8], i32, [0 x i8], i32, [0 x i8] }** bitcast ({ %str_slice, %str_slice, i32, i32 }** @const.6 to { %str_slice, [0 x i8], %str_slice, [0 x i8], i32, [0 x i8], i32, [0 x i8] }**), !dbg !455, !nonnull !162
; invoke core::panicking::panic
  invoke void @_ZN4core9panicking5panic17hbb9b03eae4db0581E({ %str_slice, [0 x i8], %str_slice, [0 x i8], i32, [0 x i8], i32, [0 x i8] }* noalias readonly dereferenceable(40) %43)
          to label %unreachable unwind label %funclet_bb3, !dbg !458

bb18:                                             ; preds = %bb16
  %44 = load %"alloc::vec::Vec<u8>"*, %"alloc::vec::Vec<u8>"** %self, !dbg !460, !nonnull !162
  %45 = load i64, i64* %start1, !dbg !460
; invoke <alloc::vec::Vec<T>>::set_len
  invoke void @"_ZN33_$LT$alloc..vec..Vec$LT$T$GT$$GT$7set_len17he09cd3aa6b5ec6b2E"(%"alloc::vec::Vec<u8>"* dereferenceable(24) %44, i64 %45)
          to label %bb19 unwind label %funclet_bb3, !dbg !460

bb19:                                             ; preds = %bb18
  %46 = load %"alloc::vec::Vec<u8>"*, %"alloc::vec::Vec<u8>"** %self, !dbg !441, !nonnull !162
; invoke <alloc::vec::Vec<T> as core::ops::deref::DerefMut>::deref_mut
  %47 = invoke { i8*, i64 } @"_ZN71_$LT$alloc..vec..Vec$LT$T$GT$$u20$as$u20$core..ops..deref..DerefMut$GT$9deref_mut17he76617dae7e17b91E"(%"alloc::vec::Vec<u8>"* dereferenceable(24) %46)
          to label %bb20 unwind label %funclet_bb3, !dbg !441

bb20:                                             ; preds = %bb19
  %48 = extractvalue { i8*, i64 } %47, 0, !dbg !441
  %49 = extractvalue { i8*, i64 } %47, 1, !dbg !441
; invoke alloc::slice::<impl [T]>::as_mut_ptr
  %50 = invoke i8* @"_ZN5alloc5slice29_$LT$impl$u20$$u5b$T$u5d$$GT$10as_mut_ptr17ha22dccb560b274deE"(i8* nonnull %48, i64 %49)
          to label %bb21 unwind label %funclet_bb3, !dbg !441

bb21:                                             ; preds = %bb20
  %51 = load i64, i64* %start1, !dbg !441
; invoke core::ptr::<impl *mut T>::offset
  %52 = invoke i8* @"_ZN4core3ptr31_$LT$impl$u20$$BP$mut$u20$T$GT$6offset17h8f55a0446c724fc6E"(i8* %50, i64 %51)
          to label %bb22 unwind label %funclet_bb3, !dbg !441

bb22:                                             ; preds = %bb21
  %53 = load i64, i64* %end, !dbg !461
  %54 = load i64, i64* %start1, !dbg !461
  %55 = sub i64 %53, %54, !dbg !461
; invoke core::slice::from_raw_parts_mut
  %56 = invoke { i8*, i64 } @_ZN4core5slice18from_raw_parts_mut17h6feb708d8fc8826cE(i8* %52, i64 %55)
          to label %bb23 unwind label %funclet_bb3, !dbg !441

bb23:                                             ; preds = %bb22
  store { i8*, i64 } %56, { i8*, i64 }* %range_slice, !dbg !441
  %57 = load i64, i64* %end, !dbg !462
  %58 = load i64, i64* %len, !dbg !463
  %59 = load i64, i64* %end, !dbg !463
  %60 = sub i64 %58, %59, !dbg !463
  %61 = getelementptr inbounds { i8*, i64 }, { i8*, i64 }* %range_slice, i32 0, i32 0, !dbg !464
  %62 = load i8*, i8** %61, !dbg !464, !nonnull !162
  %63 = getelementptr inbounds { i8*, i64 }, { i8*, i64 }* %range_slice, i32 0, i32 1, !dbg !464
  %64 = load i64, i64* %63, !dbg !464
; invoke alloc::slice::<impl [T]>::iter
  invoke void @"_ZN5alloc5slice29_$LT$impl$u20$$u5b$T$u5d$$GT$4iter17h87b2348aec895aadE"(%"core::slice::Iter<u8>"* noalias nocapture sret dereferenceable(16) %_54, i8* noalias nonnull readonly %62, i64 %64)
          to label %bb24 unwind label %funclet_bb3, !dbg !464

bb24:                                             ; preds = %bb23
  %65 = load %"alloc::vec::Vec<u8>"*, %"alloc::vec::Vec<u8>"** %self, !dbg !465, !nonnull !162
; invoke <core::ptr::Shared<T> as core::convert::From<&'a mut T>>::from
  %66 = invoke i64 @"_ZN98_$LT$core..ptr..Shared$LT$T$GT$$u20$as$u20$core..convert..From$LT$$RF$$u27$a$u20$mut$u20$T$GT$$GT$4from17hd036c7b9c1f52855E"(%"alloc::vec::Vec<u8>"* dereferenceable(24) %65)
          to label %bb25 unwind label %funclet_bb3, !dbg !465

bb25:                                             ; preds = %bb24
  store i64 %66, i64* %abi_cast5, !dbg !465
  %67 = bitcast %"core::ptr::Shared<alloc::vec::Vec<u8>>"* %_56 to i8*, !dbg !465
  %68 = bitcast i64* %abi_cast5 to i8*, !dbg !465
  call void @llvm.memcpy.p0i8.p0i8.i64(i8* %67, i8* %68, i64 8, i32 8, i1 false), !dbg !465
  %69 = getelementptr inbounds %"alloc::vec::Drain<u8>", %"alloc::vec::Drain<u8>"* %0, i32 0, i32 0, !dbg !466
  store i64 %57, i64* %69, !dbg !466
  %70 = getelementptr inbounds %"alloc::vec::Drain<u8>", %"alloc::vec::Drain<u8>"* %0, i32 0, i32 2, !dbg !466
  store i64 %60, i64* %70, !dbg !466
  %71 = getelementptr inbounds %"alloc::vec::Drain<u8>", %"alloc::vec::Drain<u8>"* %0, i32 0, i32 4, !dbg !466
  %72 = bitcast %"core::slice::Iter<u8>"* %_54 to i8*, !dbg !466
  %73 = bitcast %"core::slice::Iter<u8>"* %71 to i8*, !dbg !466
  call void @llvm.memcpy.p0i8.p0i8.i64(i8* %73, i8* %72, i64 16, i32 8, i1 false), !dbg !466
  %74 = getelementptr inbounds %"alloc::vec::Drain<u8>", %"alloc::vec::Drain<u8>"* %0, i32 0, i32 6, !dbg !466
  %75 = bitcast %"core::ptr::Shared<alloc::vec::Vec<u8>>"* %_56 to i8*, !dbg !466
  %76 = bitcast %"core::ptr::Shared<alloc::vec::Vec<u8>>"* %74 to i8*, !dbg !466
  call void @llvm.memcpy.p0i8.p0i8.i64(i8* %76, i8* %75, i64 8, i32 8, i1 false), !dbg !466
  br label %bb26, !dbg !443

bb26:                                             ; preds = %bb25
  ret void, !dbg !443

funclet_bb3:                                      ; preds = %bb24, %bb23, %bb22, %bb21, %bb20, %bb19, %bb18, %bb17, %bb15, %bb9, %bb1, %start
  %cleanuppad = cleanuppad within none []
  br label %bb3

unreachable:                                      ; preds = %bb17, %bb15
  unreachable
}

; <alloc::vec::Vec<T>>::set_len
; Function Attrs: inlinehint uwtable
define internal void @"_ZN33_$LT$alloc..vec..Vec$LT$T$GT$$GT$7set_len17he09cd3aa6b5ec6b2E"(%"alloc::vec::Vec<u8>"* dereferenceable(24), i64) unnamed_addr #0 !dbg !467 {
start:
  %len = alloca i64
  %self = alloca %"alloc::vec::Vec<u8>"*
  store %"alloc::vec::Vec<u8>"* %0, %"alloc::vec::Vec<u8>"** %self
  call void @llvm.dbg.declare(metadata %"alloc::vec::Vec<u8>"** %self, metadata !470, metadata !165), !dbg !471
  store i64 %1, i64* %len
  call void @llvm.dbg.declare(metadata i64* %len, metadata !472, metadata !165), !dbg !471
  %2 = load i64, i64* %len, !dbg !473
  %3 = load %"alloc::vec::Vec<u8>"*, %"alloc::vec::Vec<u8>"** %self, !dbg !473, !nonnull !162
  %4 = getelementptr inbounds %"alloc::vec::Vec<u8>", %"alloc::vec::Vec<u8>"* %3, i32 0, i32 2, !dbg !473
  store i64 %2, i64* %4, !dbg !473
  ret void, !dbg !474
}

; <core::ptr::Shared<T>>::as_mut
; Function Attrs: uwtable
define internal dereferenceable(80) %"alloc::arc::ArcInner<std::sys_common::remutex::ReentrantMutex<core::cell::RefCell<std::io::buffered::LineWriter<std::io::stdio::Maybe<std::io::stdio::StdoutRaw>>>>>"* @"_ZN35_$LT$core..ptr..Shared$LT$T$GT$$GT$6as_mut17h2dd39a14d603c905E"(%"core::ptr::Shared<alloc::arc::ArcInner<std::sys_common::remutex::ReentrantMutex<core::cell::RefCell<std::io::buffered::LineWriter<std::io::stdio::Maybe<std::io::stdio::StdoutRaw>>>>>>"* dereferenceable(8)) unnamed_addr #1 !dbg !475 {
start:
  %_5 = alloca %"core::ptr::Shared<alloc::arc::ArcInner<std::sys_common::remutex::ReentrantMutex<core::cell::RefCell<std::io::buffered::LineWriter<std::io::stdio::Maybe<std::io::stdio::StdoutRaw>>>>>>"
  %self = alloca %"core::ptr::Shared<alloc::arc::ArcInner<std::sys_common::remutex::ReentrantMutex<core::cell::RefCell<std::io::buffered::LineWriter<std::io::stdio::Maybe<std::io::stdio::StdoutRaw>>>>>>"*
  store %"core::ptr::Shared<alloc::arc::ArcInner<std::sys_common::remutex::ReentrantMutex<core::cell::RefCell<std::io::buffered::LineWriter<std::io::stdio::Maybe<std::io::stdio::StdoutRaw>>>>>>"* %0, %"core::ptr::Shared<alloc::arc::ArcInner<std::sys_common::remutex::ReentrantMutex<core::cell::RefCell<std::io::buffered::LineWriter<std::io::stdio::Maybe<std::io::stdio::StdoutRaw>>>>>>"** %self
  call void @llvm.dbg.declare(metadata %"core::ptr::Shared<alloc::arc::ArcInner<std::sys_common::remutex::ReentrantMutex<core::cell::RefCell<std::io::buffered::LineWriter<std::io::stdio::Maybe<std::io::stdio::StdoutRaw>>>>>>"** %self, metadata !482, metadata !165), !dbg !483
  %1 = load %"core::ptr::Shared<alloc::arc::ArcInner<std::sys_common::remutex::ReentrantMutex<core::cell::RefCell<std::io::buffered::LineWriter<std::io::stdio::Maybe<std::io::stdio::StdoutRaw>>>>>>"*, %"core::ptr::Shared<alloc::arc::ArcInner<std::sys_common::remutex::ReentrantMutex<core::cell::RefCell<std::io::buffered::LineWriter<std::io::stdio::Maybe<std::io::stdio::StdoutRaw>>>>>>"** %self, !dbg !484, !nonnull !162
  %2 = bitcast %"core::ptr::Shared<alloc::arc::ArcInner<std::sys_common::remutex::ReentrantMutex<core::cell::RefCell<std::io::buffered::LineWriter<std::io::stdio::Maybe<std::io::stdio::StdoutRaw>>>>>>"* %1 to i8*, !dbg !484
  %3 = bitcast %"core::ptr::Shared<alloc::arc::ArcInner<std::sys_common::remutex::ReentrantMutex<core::cell::RefCell<std::io::buffered::LineWriter<std::io::stdio::Maybe<std::io::stdio::StdoutRaw>>>>>>"* %_5 to i8*, !dbg !484
  call void @llvm.memcpy.p0i8.p0i8.i64(i8* %3, i8* %2, i64 8, i32 8, i1 false), !dbg !484
  %4 = bitcast %"core::ptr::Shared<alloc::arc::ArcInner<std::sys_common::remutex::ReentrantMutex<core::cell::RefCell<std::io::buffered::LineWriter<std::io::stdio::Maybe<std::io::stdio::StdoutRaw>>>>>>"* %_5 to i64*, !dbg !484
  %5 = load i64, i64* %4, align 8, !dbg !484
; call <core::ptr::Shared<T>>::as_ptr
  %6 = call %"alloc::arc::ArcInner<std::sys_common::remutex::ReentrantMutex<core::cell::RefCell<std::io::buffered::LineWriter<std::io::stdio::Maybe<std::io::stdio::StdoutRaw>>>>>"* @"_ZN35_$LT$core..ptr..Shared$LT$T$GT$$GT$6as_ptr17hb66602376dae19e0E"(i64 %5), !dbg !484
  br label %bb1, !dbg !484

bb1:                                              ; preds = %start
  ret %"alloc::arc::ArcInner<std::sys_common::remutex::ReentrantMutex<core::cell::RefCell<std::io::buffered::LineWriter<std::io::stdio::Maybe<std::io::stdio::StdoutRaw>>>>>"* %6, !dbg !485
}

; <core::ptr::Shared<T>>::as_mut
; Function Attrs: uwtable
define internal dereferenceable(24) %"alloc::vec::Vec<u8>"* @"_ZN35_$LT$core..ptr..Shared$LT$T$GT$$GT$6as_mut17h890640f7b2748816E"(%"core::ptr::Shared<alloc::vec::Vec<u8>>"* dereferenceable(8)) unnamed_addr #1 !dbg !486 {
start:
  %_5 = alloca %"core::ptr::Shared<alloc::vec::Vec<u8>>"
  %self = alloca %"core::ptr::Shared<alloc::vec::Vec<u8>>"*
  store %"core::ptr::Shared<alloc::vec::Vec<u8>>"* %0, %"core::ptr::Shared<alloc::vec::Vec<u8>>"** %self
  call void @llvm.dbg.declare(metadata %"core::ptr::Shared<alloc::vec::Vec<u8>>"** %self, metadata !490, metadata !165), !dbg !491
  %1 = load %"core::ptr::Shared<alloc::vec::Vec<u8>>"*, %"core::ptr::Shared<alloc::vec::Vec<u8>>"** %self, !dbg !492, !nonnull !162
  %2 = bitcast %"core::ptr::Shared<alloc::vec::Vec<u8>>"* %1 to i8*, !dbg !492
  %3 = bitcast %"core::ptr::Shared<alloc::vec::Vec<u8>>"* %_5 to i8*, !dbg !492
  call void @llvm.memcpy.p0i8.p0i8.i64(i8* %3, i8* %2, i64 8, i32 8, i1 false), !dbg !492
  %4 = bitcast %"core::ptr::Shared<alloc::vec::Vec<u8>>"* %_5 to i64*, !dbg !492
  %5 = load i64, i64* %4, align 8, !dbg !492
; call <core::ptr::Shared<T>>::as_ptr
  %6 = call %"alloc::vec::Vec<u8>"* @"_ZN35_$LT$core..ptr..Shared$LT$T$GT$$GT$6as_ptr17h59c7b13443e038f9E"(i64 %5), !dbg !492
  br label %bb1, !dbg !492

bb1:                                              ; preds = %start
  ret %"alloc::vec::Vec<u8>"* %6, !dbg !493
}

; <core::ptr::Shared<T>>::as_ptr
; Function Attrs: uwtable
define internal %"alloc::vec::Vec<u8>"* @"_ZN35_$LT$core..ptr..Shared$LT$T$GT$$GT$6as_ptr17h59c7b13443e038f9E"(i64) unnamed_addr #1 !dbg !494 {
start:
  %_3 = alloca %"core::nonzero::NonZero<*const alloc::vec::Vec<u8>>"
  %abi_cast = alloca i64
  %self = alloca %"core::ptr::Shared<alloc::vec::Vec<u8>>"
  store i64 %0, i64* %abi_cast
  %1 = bitcast %"core::ptr::Shared<alloc::vec::Vec<u8>>"* %self to i8*
  %2 = bitcast i64* %abi_cast to i8*
  call void @llvm.memcpy.p0i8.p0i8.i64(i8* %1, i8* %2, i64 8, i32 8, i1 false)
  call void @llvm.dbg.declare(metadata %"core::ptr::Shared<alloc::vec::Vec<u8>>"* %self, metadata !497, metadata !165), !dbg !498
  %3 = getelementptr inbounds %"core::ptr::Shared<alloc::vec::Vec<u8>>", %"core::ptr::Shared<alloc::vec::Vec<u8>>"* %self, i32 0, i32 0, !dbg !499
  %4 = bitcast %"core::nonzero::NonZero<*const alloc::vec::Vec<u8>>"* %3 to i8*, !dbg !499
  %5 = bitcast %"core::nonzero::NonZero<*const alloc::vec::Vec<u8>>"* %_3 to i8*, !dbg !499
  call void @llvm.memcpy.p0i8.p0i8.i64(i8* %5, i8* %4, i64 8, i32 8, i1 false), !dbg !499
  %6 = bitcast %"core::nonzero::NonZero<*const alloc::vec::Vec<u8>>"* %_3 to i64*, !dbg !499
  %7 = load i64, i64* %6, align 8, !dbg !499
; call <core::nonzero::NonZero<T>>::get
  %8 = call %"alloc::vec::Vec<u8>"* @"_ZN40_$LT$core..nonzero..NonZero$LT$T$GT$$GT$3get17h7bf37f56f2131c87E"(i64 %7), !dbg !499
  br label %bb1, !dbg !499

bb1:                                              ; preds = %start
  ret %"alloc::vec::Vec<u8>"* %8, !dbg !500
}

; <core::ptr::Shared<T>>::as_ptr
; Function Attrs: uwtable
define internal %"alloc::arc::ArcInner<std::sys_common::remutex::ReentrantMutex<core::cell::RefCell<std::io::buffered::LineWriter<std::io::stdio::Maybe<std::io::stdio::StdoutRaw>>>>>"* @"_ZN35_$LT$core..ptr..Shared$LT$T$GT$$GT$6as_ptr17hb66602376dae19e0E"(i64) unnamed_addr #1 !dbg !501 {
start:
  %_3 = alloca %"core::nonzero::NonZero<*const alloc::arc::ArcInner<std::sys_common::remutex::ReentrantMutex<core::cell::RefCell<std::io::buffered::LineWriter<std::io::stdio::Maybe<std::io::stdio::StdoutRaw>>>>>>"
  %abi_cast = alloca i64
  %self = alloca %"core::ptr::Shared<alloc::arc::ArcInner<std::sys_common::remutex::ReentrantMutex<core::cell::RefCell<std::io::buffered::LineWriter<std::io::stdio::Maybe<std::io::stdio::StdoutRaw>>>>>>"
  store i64 %0, i64* %abi_cast
  %1 = bitcast %"core::ptr::Shared<alloc::arc::ArcInner<std::sys_common::remutex::ReentrantMutex<core::cell::RefCell<std::io::buffered::LineWriter<std::io::stdio::Maybe<std::io::stdio::StdoutRaw>>>>>>"* %self to i8*
  %2 = bitcast i64* %abi_cast to i8*
  call void @llvm.memcpy.p0i8.p0i8.i64(i8* %1, i8* %2, i64 8, i32 8, i1 false)
  call void @llvm.dbg.declare(metadata %"core::ptr::Shared<alloc::arc::ArcInner<std::sys_common::remutex::ReentrantMutex<core::cell::RefCell<std::io::buffered::LineWriter<std::io::stdio::Maybe<std::io::stdio::StdoutRaw>>>>>>"* %self, metadata !504, metadata !165), !dbg !505
  %3 = getelementptr inbounds %"core::ptr::Shared<alloc::arc::ArcInner<std::sys_common::remutex::ReentrantMutex<core::cell::RefCell<std::io::buffered::LineWriter<std::io::stdio::Maybe<std::io::stdio::StdoutRaw>>>>>>", %"core::ptr::Shared<alloc::arc::ArcInner<std::sys_common::remutex::ReentrantMutex<core::cell::RefCell<std::io::buffered::LineWriter<std::io::stdio::Maybe<std::io::stdio::StdoutRaw>>>>>>"* %self, i32 0, i32 0, !dbg !506
  %4 = bitcast %"core::nonzero::NonZero<*const alloc::arc::ArcInner<std::sys_common::remutex::ReentrantMutex<core::cell::RefCell<std::io::buffered::LineWriter<std::io::stdio::Maybe<std::io::stdio::StdoutRaw>>>>>>"* %3 to i8*, !dbg !506
  %5 = bitcast %"core::nonzero::NonZero<*const alloc::arc::ArcInner<std::sys_common::remutex::ReentrantMutex<core::cell::RefCell<std::io::buffered::LineWriter<std::io::stdio::Maybe<std::io::stdio::StdoutRaw>>>>>>"* %_3 to i8*, !dbg !506
  call void @llvm.memcpy.p0i8.p0i8.i64(i8* %5, i8* %4, i64 8, i32 8, i1 false), !dbg !506
  %6 = bitcast %"core::nonzero::NonZero<*const alloc::arc::ArcInner<std::sys_common::remutex::ReentrantMutex<core::cell::RefCell<std::io::buffered::LineWriter<std::io::stdio::Maybe<std::io::stdio::StdoutRaw>>>>>>"* %_3 to i64*, !dbg !506
  %7 = load i64, i64* %6, align 8, !dbg !506
; call <core::nonzero::NonZero<T>>::get
  %8 = call %"alloc::arc::ArcInner<std::sys_common::remutex::ReentrantMutex<core::cell::RefCell<std::io::buffered::LineWriter<std::io::stdio::Maybe<std::io::stdio::StdoutRaw>>>>>"* @"_ZN40_$LT$core..nonzero..NonZero$LT$T$GT$$GT$3get17h0035a90b5890e6ddE"(i64 %7), !dbg !506
  br label %bb1, !dbg !506

bb1:                                              ; preds = %start
  ret %"alloc::arc::ArcInner<std::sys_common::remutex::ReentrantMutex<core::cell::RefCell<std::io::buffered::LineWriter<std::io::stdio::Maybe<std::io::stdio::StdoutRaw>>>>>"* %8, !dbg !507
}

; <core::ptr::Shared<T>>::as_ref
; Function Attrs: uwtable
define internal dereferenceable(80) %"alloc::arc::ArcInner<std::sys_common::remutex::ReentrantMutex<core::cell::RefCell<std::io::buffered::LineWriter<std::io::stdio::Maybe<std::io::stdio::StdoutRaw>>>>>"* @"_ZN35_$LT$core..ptr..Shared$LT$T$GT$$GT$6as_ref17h0c1281f704e8f6eaE"(%"core::ptr::Shared<alloc::arc::ArcInner<std::sys_common::remutex::ReentrantMutex<core::cell::RefCell<std::io::buffered::LineWriter<std::io::stdio::Maybe<std::io::stdio::StdoutRaw>>>>>>"* noalias readonly dereferenceable(8)) unnamed_addr #1 !dbg !508 {
start:
  %_4 = alloca %"core::ptr::Shared<alloc::arc::ArcInner<std::sys_common::remutex::ReentrantMutex<core::cell::RefCell<std::io::buffered::LineWriter<std::io::stdio::Maybe<std::io::stdio::StdoutRaw>>>>>>"
  %self = alloca %"core::ptr::Shared<alloc::arc::ArcInner<std::sys_common::remutex::ReentrantMutex<core::cell::RefCell<std::io::buffered::LineWriter<std::io::stdio::Maybe<std::io::stdio::StdoutRaw>>>>>>"*
  store %"core::ptr::Shared<alloc::arc::ArcInner<std::sys_common::remutex::ReentrantMutex<core::cell::RefCell<std::io::buffered::LineWriter<std::io::stdio::Maybe<std::io::stdio::StdoutRaw>>>>>>"* %0, %"core::ptr::Shared<alloc::arc::ArcInner<std::sys_common::remutex::ReentrantMutex<core::cell::RefCell<std::io::buffered::LineWriter<std::io::stdio::Maybe<std::io::stdio::StdoutRaw>>>>>>"** %self
  call void @llvm.dbg.declare(metadata %"core::ptr::Shared<alloc::arc::ArcInner<std::sys_common::remutex::ReentrantMutex<core::cell::RefCell<std::io::buffered::LineWriter<std::io::stdio::Maybe<std::io::stdio::StdoutRaw>>>>>>"** %self, metadata !512, metadata !165), !dbg !513
  %1 = load %"core::ptr::Shared<alloc::arc::ArcInner<std::sys_common::remutex::ReentrantMutex<core::cell::RefCell<std::io::buffered::LineWriter<std::io::stdio::Maybe<std::io::stdio::StdoutRaw>>>>>>"*, %"core::ptr::Shared<alloc::arc::ArcInner<std::sys_common::remutex::ReentrantMutex<core::cell::RefCell<std::io::buffered::LineWriter<std::io::stdio::Maybe<std::io::stdio::StdoutRaw>>>>>>"** %self, !dbg !514, !nonnull !162
  %2 = bitcast %"core::ptr::Shared<alloc::arc::ArcInner<std::sys_common::remutex::ReentrantMutex<core::cell::RefCell<std::io::buffered::LineWriter<std::io::stdio::Maybe<std::io::stdio::StdoutRaw>>>>>>"* %1 to i8*, !dbg !514
  %3 = bitcast %"core::ptr::Shared<alloc::arc::ArcInner<std::sys_common::remutex::ReentrantMutex<core::cell::RefCell<std::io::buffered::LineWriter<std::io::stdio::Maybe<std::io::stdio::StdoutRaw>>>>>>"* %_4 to i8*, !dbg !514
  call void @llvm.memcpy.p0i8.p0i8.i64(i8* %3, i8* %2, i64 8, i32 8, i1 false), !dbg !514
  %4 = bitcast %"core::ptr::Shared<alloc::arc::ArcInner<std::sys_common::remutex::ReentrantMutex<core::cell::RefCell<std::io::buffered::LineWriter<std::io::stdio::Maybe<std::io::stdio::StdoutRaw>>>>>>"* %_4 to i64*, !dbg !514
  %5 = load i64, i64* %4, align 8, !dbg !514
; call <core::ptr::Shared<T>>::as_ptr
  %6 = call %"alloc::arc::ArcInner<std::sys_common::remutex::ReentrantMutex<core::cell::RefCell<std::io::buffered::LineWriter<std::io::stdio::Maybe<std::io::stdio::StdoutRaw>>>>>"* @"_ZN35_$LT$core..ptr..Shared$LT$T$GT$$GT$6as_ptr17hb66602376dae19e0E"(i64 %5), !dbg !514
  br label %bb1, !dbg !514

bb1:                                              ; preds = %start
  ret %"alloc::arc::ArcInner<std::sys_common::remutex::ReentrantMutex<core::cell::RefCell<std::io::buffered::LineWriter<std::io::stdio::Maybe<std::io::stdio::StdoutRaw>>>>>"* %6, !dbg !515
}

; <core::ptr::Unique<T>>::new_unchecked
; Function Attrs: uwtable
define internal i64 @"_ZN35_$LT$core..ptr..Unique$LT$T$GT$$GT$13new_unchecked17ha50b82d70fac72bcE"(i8*) unnamed_addr #1 !dbg !516 {
start:
  %abi_cast = alloca i64
  %_2 = alloca %"core::nonzero::NonZero<*const u8>"
  %_0 = alloca %"core::ptr::Unique<u8>"
  %ptr = alloca i8*
  store i8* %0, i8** %ptr
  call void @llvm.dbg.declare(metadata i8** %ptr, metadata !520, metadata !165), !dbg !521
  %1 = load i8*, i8** %ptr, !dbg !522
; call <core::nonzero::NonZero<T>>::new_unchecked
  %2 = call i64 @"_ZN40_$LT$core..nonzero..NonZero$LT$T$GT$$GT$13new_unchecked17h9e5c3d48981fdcb5E"(i8* %1), !dbg !522
  store i64 %2, i64* %abi_cast, !dbg !522
  %3 = bitcast %"core::nonzero::NonZero<*const u8>"* %_2 to i8*, !dbg !522
  %4 = bitcast i64* %abi_cast to i8*, !dbg !522
  call void @llvm.memcpy.p0i8.p0i8.i64(i8* %3, i8* %4, i64 8, i32 8, i1 false), !dbg !522
  br label %bb1, !dbg !522

bb1:                                              ; preds = %start
  %5 = getelementptr inbounds %"core::ptr::Unique<u8>", %"core::ptr::Unique<u8>"* %_0, i32 0, i32 0, !dbg !522
  %6 = bitcast %"core::nonzero::NonZero<*const u8>"* %_2 to i8*, !dbg !522
  %7 = bitcast %"core::nonzero::NonZero<*const u8>"* %5 to i8*, !dbg !522
  call void @llvm.memcpy.p0i8.p0i8.i64(i8* %7, i8* %6, i64 8, i32 8, i1 false), !dbg !522
  %8 = bitcast %"core::ptr::Unique<u8>"* %_0 to i64*, !dbg !523
  %9 = load i64, i64* %8, align 8, !dbg !523
  ret i64 %9, !dbg !523
}

; <core::ptr::Unique<T>>::as_ptr
; Function Attrs: uwtable
define internal i8* @"_ZN35_$LT$core..ptr..Unique$LT$T$GT$$GT$6as_ptr17h7edecbb64d0a3cfdE"(i64) unnamed_addr #1 !dbg !524 {
start:
  %_3 = alloca %"core::nonzero::NonZero<*const u8>"
  %abi_cast = alloca i64
  %self = alloca %"core::ptr::Unique<u8>"
  store i64 %0, i64* %abi_cast
  %1 = bitcast %"core::ptr::Unique<u8>"* %self to i8*
  %2 = bitcast i64* %abi_cast to i8*
  call void @llvm.memcpy.p0i8.p0i8.i64(i8* %1, i8* %2, i64 8, i32 8, i1 false)
  call void @llvm.dbg.declare(metadata %"core::ptr::Unique<u8>"* %self, metadata !527, metadata !165), !dbg !528
  %3 = getelementptr inbounds %"core::ptr::Unique<u8>", %"core::ptr::Unique<u8>"* %self, i32 0, i32 0, !dbg !529
  %4 = bitcast %"core::nonzero::NonZero<*const u8>"* %3 to i8*, !dbg !529
  %5 = bitcast %"core::nonzero::NonZero<*const u8>"* %_3 to i8*, !dbg !529
  call void @llvm.memcpy.p0i8.p0i8.i64(i8* %5, i8* %4, i64 8, i32 8, i1 false), !dbg !529
  %6 = bitcast %"core::nonzero::NonZero<*const u8>"* %_3 to i64*, !dbg !529
  %7 = load i64, i64* %6, align 8, !dbg !529
; call <core::nonzero::NonZero<T>>::get
  %8 = call i8* @"_ZN40_$LT$core..nonzero..NonZero$LT$T$GT$$GT$3get17hdbf617b04276e9e5E"(i64 %7), !dbg !529
  br label %bb1, !dbg !529

bb1:                                              ; preds = %start
  ret i8* %8, !dbg !530
}

; <core::option::Option<T>>::map
; Function Attrs: inlinehint uwtable
define internal i16 @"_ZN38_$LT$core..option..Option$LT$T$GT$$GT$3map17hf096952d7a5fbed5E"(i8*) unnamed_addr #0 personality i32 (...)* @__CxxFrameHandler3 !dbg !531 {
start:
  %_10 = alloca i8
  %_9 = alloca i8
  %_7 = alloca { i8*, [0 x i8] }
  %x = alloca i8*
  %_0 = alloca %"core::option::Option<u8>"
  %f = alloca %closure
  %self = alloca i8*
  store i8* %0, i8** %self
  call void @llvm.dbg.declare(metadata i8** %self, metadata !558, metadata !165), !dbg !559
  call void @llvm.dbg.declare(metadata %closure* %f, metadata !560, metadata !165), !dbg !559
  call void @llvm.dbg.declare(metadata i8** %x, metadata !561, metadata !165), !dbg !563
  store i8 0, i8* %_9, !dbg !563
  store i8 0, i8* %_10, !dbg !563
  store i8 1, i8* %_9, !dbg !563
  store i8 1, i8* %_10, !dbg !563
  %1 = load i8*, i8** %self, !dbg !563
  %2 = icmp ne i8* %1, null, !dbg !563
  %3 = zext i1 %2 to i64, !dbg !563
  switch i64 %3, label %bb2 [
    i64 0, label %bb1
    i64 1, label %bb3
  ], !dbg !563

bb1:                                              ; preds = %start
  %4 = getelementptr inbounds %"core::option::Option<u8>", %"core::option::Option<u8>"* %_0, i32 0, i32 0, !dbg !564
  store i8 0, i8* %4, !dbg !564
  br label %bb6, !dbg !565

bb2:                                              ; preds = %start
  unreachable, !dbg !566

bb3:                                              ; preds = %start
  store i8 0, i8* %_9, !dbg !563
  %5 = load i8*, i8** %self, !dbg !563, !nonnull !162
  store i8* %5, i8** %x, !dbg !563
  store i8 0, i8* %_10, !dbg !563
  %6 = load i8*, i8** %x, !dbg !563, !nonnull !162
  %7 = getelementptr inbounds { i8*, [0 x i8] }, { i8*, [0 x i8] }* %_7, i32 0, i32 0, !dbg !563
  store i8* %6, i8** %7, !dbg !563
  %8 = getelementptr inbounds { i8*, [0 x i8] }, { i8*, [0 x i8] }* %_7, i32 0, i32 0, !dbg !563
  %9 = load i8*, i8** %8, !dbg !563
; invoke <alloc::vec::Drain<'a, T> as core::iter::iterator::Iterator>::next::{{closure}}
  %10 = invoke i8 @"_ZN91_$LT$alloc..vec..Drain$LT$$u27$a$C$$u20$T$GT$$u20$as$u20$core..iter..iterator..Iterator$GT$4next28_$u7b$$u7b$closure$u7d$$u7d$17h222ed37ba92f1fb5E"(i8* noalias readonly dereferenceable(1) %9)
          to label %bb5 unwind label %funclet_bb11, !dbg !563

bb4:                                              ; preds = %bb9, %bb8, %bb10
  cleanupret from %cleanuppad unwind to caller, !dbg !567

bb5:                                              ; preds = %bb3
  %11 = getelementptr inbounds %"core::option::Option<u8>", %"core::option::Option<u8>"* %_0, i32 0, i32 0, !dbg !563
  store i8 1, i8* %11, !dbg !563
  %12 = bitcast %"core::option::Option<u8>"* %_0 to { i8, [0 x i8], i8, [0 x i8] }*, !dbg !563
  %13 = getelementptr inbounds { i8, [0 x i8], i8, [0 x i8] }, { i8, [0 x i8], i8, [0 x i8] }* %12, i32 0, i32 2, !dbg !563
  store i8 %10, i8* %13, !dbg !563
  br label %bb6, !dbg !568

bb6:                                              ; preds = %bb1, %bb5
  %14 = load i8, i8* %_10, !dbg !566, !range !569
  %15 = trunc i8 %14 to i1, !dbg !566
  br i1 %15, label %bb12, label %bb7, !dbg !566

bb7:                                              ; preds = %bb12, %bb6
  %16 = load i8*, i8** %self, !dbg !566
  %17 = icmp ne i8* %16, null, !dbg !566
  %18 = zext i1 %17 to i64, !dbg !566
  switch i64 %18, label %bb16 [
    i64 1, label %bb14
  ], !dbg !566

bb8:                                              ; preds = %bb11
  %19 = load i8, i8* %_9, !dbg !566, !range !569
  %20 = trunc i8 %19 to i1, !dbg !566
  br i1 %20, label %bb9, label %bb4, !dbg !566

bb9:                                              ; preds = %bb8
  store i8 0, i8* %_9, !dbg !566
  br label %bb4, !dbg !566

bb10:                                             ; preds = %bb11
  br label %bb4, !dbg !566

bb11:                                             ; preds = %funclet_bb11
  %21 = load i8*, i8** %self, !dbg !566
  %22 = icmp ne i8* %21, null, !dbg !566
  %23 = zext i1 %22 to i64, !dbg !566
  switch i64 %23, label %bb10 [
    i64 1, label %bb8
  ], !dbg !566

bb12:                                             ; preds = %bb6
  store i8 0, i8* %_10, !dbg !566
  br label %bb7, !dbg !566

bb13:                                             ; preds = %bb15, %bb14, %bb16
  %24 = bitcast %"core::option::Option<u8>"* %_0 to i16*, !dbg !566
  %25 = load i16, i16* %24, align 1, !dbg !566
  ret i16 %25, !dbg !566

bb14:                                             ; preds = %bb7
  %26 = load i8, i8* %_9, !dbg !566, !range !569
  %27 = trunc i8 %26 to i1, !dbg !566
  br i1 %27, label %bb15, label %bb13, !dbg !566

bb15:                                             ; preds = %bb14
  store i8 0, i8* %_9, !dbg !566
  br label %bb13, !dbg !566

bb16:                                             ; preds = %bb7
  br label %bb13, !dbg !566

funclet_bb11:                                     ; preds = %bb3
  %cleanuppad = cleanuppad within none []
  br label %bb11
}

; <core::option::Option<T>>::as_mut
; Function Attrs: inlinehint uwtable
define internal i8* @"_ZN38_$LT$core..option..Option$LT$T$GT$$GT$6as_mut17h923ad01c9a5d0abfE"(%"core::option::Option<std::io::stdio::Maybe<std::io::stdio::StdoutRaw>>"* dereferenceable(2)) unnamed_addr #0 !dbg !570 {
start:
  %x = alloca %"std::io::stdio::Maybe<std::io::stdio::StdoutRaw>"*
  %_0 = alloca i8*
  %self = alloca %"core::option::Option<std::io::stdio::Maybe<std::io::stdio::StdoutRaw>>"*
  store %"core::option::Option<std::io::stdio::Maybe<std::io::stdio::StdoutRaw>>"* %0, %"core::option::Option<std::io::stdio::Maybe<std::io::stdio::StdoutRaw>>"** %self
  call void @llvm.dbg.declare(metadata %"core::option::Option<std::io::stdio::Maybe<std::io::stdio::StdoutRaw>>"** %self, metadata !583, metadata !165), !dbg !584
  call void @llvm.dbg.declare(metadata %"std::io::stdio::Maybe<std::io::stdio::StdoutRaw>"** %x, metadata !585, metadata !165), !dbg !587
  %1 = load %"core::option::Option<std::io::stdio::Maybe<std::io::stdio::StdoutRaw>>"*, %"core::option::Option<std::io::stdio::Maybe<std::io::stdio::StdoutRaw>>"** %self, !dbg !587, !nonnull !162
  %2 = getelementptr inbounds %"core::option::Option<std::io::stdio::Maybe<std::io::stdio::StdoutRaw>>", %"core::option::Option<std::io::stdio::Maybe<std::io::stdio::StdoutRaw>>"* %1, i32 0, i32 0, !dbg !587
  %3 = load i8, i8* %2, !dbg !587, !range !569
  %4 = zext i8 %3 to i64, !dbg !587
  switch i64 %4, label %bb2 [
    i64 0, label %bb1
    i64 1, label %bb3
  ], !dbg !587

bb1:                                              ; preds = %start
  store i8* null, i8** %_0, !dbg !588
  br label %bb4, !dbg !589

bb2:                                              ; preds = %start
  unreachable, !dbg !590

bb3:                                              ; preds = %start
  %5 = load %"core::option::Option<std::io::stdio::Maybe<std::io::stdio::StdoutRaw>>"*, %"core::option::Option<std::io::stdio::Maybe<std::io::stdio::StdoutRaw>>"** %self, !dbg !587, !nonnull !162
  %6 = bitcast %"core::option::Option<std::io::stdio::Maybe<std::io::stdio::StdoutRaw>>"* %5 to { i8, [0 x i8], %"std::io::stdio::Maybe<std::io::stdio::StdoutRaw>", [0 x i8] }*, !dbg !587
  %7 = getelementptr inbounds { i8, [0 x i8], %"std::io::stdio::Maybe<std::io::stdio::StdoutRaw>", [0 x i8] }, { i8, [0 x i8], %"std::io::stdio::Maybe<std::io::stdio::StdoutRaw>", [0 x i8] }* %6, i32 0, i32 2, !dbg !587
  store %"std::io::stdio::Maybe<std::io::stdio::StdoutRaw>"* %7, %"std::io::stdio::Maybe<std::io::stdio::StdoutRaw>"** %x, !dbg !587
  %8 = load %"std::io::stdio::Maybe<std::io::stdio::StdoutRaw>"*, %"std::io::stdio::Maybe<std::io::stdio::StdoutRaw>"** %x, !dbg !587, !nonnull !162
  %9 = bitcast i8** %_0 to %"std::io::stdio::Maybe<std::io::stdio::StdoutRaw>"**, !dbg !587
  store %"std::io::stdio::Maybe<std::io::stdio::StdoutRaw>"* %8, %"std::io::stdio::Maybe<std::io::stdio::StdoutRaw>"** %9, !dbg !587
  br label %bb4, !dbg !589

bb4:                                              ; preds = %bb1, %bb3
  %10 = load i8*, i8** %_0, !dbg !590
  ret i8* %10, !dbg !590
}

; <core::option::Option<T>>::expect
; Function Attrs: inlinehint uwtable
define internal i64 @"_ZN38_$LT$core..option..Option$LT$T$GT$$GT$6expect17h5e08fe806b7c1d03E"(%"core::option::Option<usize>"* noalias nocapture dereferenceable(16) %self, i8* noalias nonnull readonly, i64) unnamed_addr #0 personality i32 (...)* @__CxxFrameHandler3 !dbg !591 {
start:
  %val = alloca i64, !dbg !611
  %msg = alloca %str_slice, !dbg !611
  call void @llvm.dbg.declare(metadata %"core::option::Option<usize>"* %self, metadata !612, metadata !613), !dbg !611
  %2 = getelementptr inbounds %str_slice, %str_slice* %msg, i32 0, i32 0
  store i8* %0, i8** %2
  %3 = getelementptr inbounds %str_slice, %str_slice* %msg, i32 0, i32 1
  store i64 %1, i64* %3
  call void @llvm.dbg.declare(metadata %str_slice* %msg, metadata !614, metadata !165), !dbg !611
  call void @llvm.dbg.declare(metadata i64* %val, metadata !615, metadata !165), !dbg !617
  %4 = getelementptr inbounds %"core::option::Option<usize>", %"core::option::Option<usize>"* %self, i32 0, i32 0, !dbg !617
  %5 = load i64, i64* %4, !dbg !617, !range !618
  switch i64 %5, label %bb2 [
    i64 0, label %bb1
    i64 1, label %bb3
  ], !dbg !617

bb1:                                              ; preds = %start
  %6 = getelementptr inbounds %str_slice, %str_slice* %msg, i32 0, i32 0, !dbg !619
  %7 = load i8*, i8** %6, !dbg !619, !nonnull !162
  %8 = getelementptr inbounds %str_slice, %str_slice* %msg, i32 0, i32 1, !dbg !619
  %9 = load i64, i64* %8, !dbg !619
; invoke core::option::expect_failed
  invoke void @_ZN4core6option13expect_failed17hdbc3572d3ce1134cE(i8* noalias nonnull readonly %7, i64 %9)
          to label %unreachable unwind label %funclet_bb5, !dbg !619

bb2:                                              ; preds = %start
  unreachable, !dbg !620

bb3:                                              ; preds = %start
  %10 = bitcast %"core::option::Option<usize>"* %self to { i64, [0 x i8], i64, [0 x i8] }*, !dbg !617
  %11 = getelementptr inbounds { i64, [0 x i8], i64, [0 x i8] }, { i64, [0 x i8], i64, [0 x i8] }* %10, i32 0, i32 2, !dbg !617
  %12 = load i64, i64* %11, !dbg !617
  store i64 %12, i64* %val, !dbg !617
  %13 = load i64, i64* %val, !dbg !617
  %14 = getelementptr inbounds %"core::option::Option<usize>", %"core::option::Option<usize>"* %self, i32 0, i32 0, !dbg !620
  %15 = load i64, i64* %14, !dbg !620, !range !618
  switch i64 %15, label %bb7 [
    i64 1, label %bb6
  ], !dbg !620

bb4:                                              ; preds = %bb5
  cleanupret from %cleanuppad unwind to caller, !dbg !621

bb5:                                              ; preds = %funclet_bb5
  br label %bb4, !dbg !620

bb6:                                              ; preds = %bb7, %bb3
  ret i64 %13, !dbg !620

bb7:                                              ; preds = %bb3
  br label %bb6, !dbg !620

funclet_bb5:                                      ; preds = %bb1
  %cleanuppad = cleanuppad within none []
  br label %bb5

unreachable:                                      ; preds = %bb1
  unreachable
}

; <core::option::Option<T>>::unwrap
; Function Attrs: inlinehint uwtable
define internal dereferenceable(1) %"std::io::stdio::Maybe<std::io::stdio::StdoutRaw>"* @"_ZN38_$LT$core..option..Option$LT$T$GT$$GT$6unwrap17h0a5ab9723aab9c14E"(i8*) unnamed_addr #0 personality i32 (...)* @__CxxFrameHandler3 !dbg !622 {
start:
  %val = alloca %"std::io::stdio::Maybe<std::io::stdio::StdoutRaw>"*
  %self = alloca i8*
  store i8* %0, i8** %self
  call void @llvm.dbg.declare(metadata i8** %self, metadata !627, metadata !165), !dbg !628
  call void @llvm.dbg.declare(metadata %"std::io::stdio::Maybe<std::io::stdio::StdoutRaw>"** %val, metadata !629, metadata !165), !dbg !631
  %1 = load i8*, i8** %self, !dbg !631
  %2 = icmp ne i8* %1, null, !dbg !631
  %3 = zext i1 %2 to i64, !dbg !631
  switch i64 %3, label %bb2 [
    i64 0, label %bb1
    i64 1, label %bb3
  ], !dbg !631

bb1:                                              ; preds = %start
  %4 = load { %str_slice, [0 x i8], %str_slice, [0 x i8], i32, [0 x i8], i32, [0 x i8] }*, { %str_slice, [0 x i8], %str_slice, [0 x i8], i32, [0 x i8], i32, [0 x i8] }** bitcast ({ %str_slice, %str_slice, i32, i32 }** @const.a to { %str_slice, [0 x i8], %str_slice, [0 x i8], i32, [0 x i8], i32, [0 x i8] }**), !dbg !632, !nonnull !162
; invoke core::panicking::panic
  invoke void @_ZN4core9panicking5panic17hbb9b03eae4db0581E({ %str_slice, [0 x i8], %str_slice, [0 x i8], i32, [0 x i8], i32, [0 x i8] }* noalias readonly dereferenceable(40) %4)
          to label %unreachable unwind label %funclet_bb5, !dbg !632

bb2:                                              ; preds = %start
  unreachable, !dbg !635

bb3:                                              ; preds = %start
  %5 = bitcast i8** %self to %"std::io::stdio::Maybe<std::io::stdio::StdoutRaw>"**, !dbg !631
  %6 = load %"std::io::stdio::Maybe<std::io::stdio::StdoutRaw>"*, %"std::io::stdio::Maybe<std::io::stdio::StdoutRaw>"** %5, !dbg !631, !nonnull !162
  store %"std::io::stdio::Maybe<std::io::stdio::StdoutRaw>"* %6, %"std::io::stdio::Maybe<std::io::stdio::StdoutRaw>"** %val, !dbg !631
  %7 = load %"std::io::stdio::Maybe<std::io::stdio::StdoutRaw>"*, %"std::io::stdio::Maybe<std::io::stdio::StdoutRaw>"** %val, !dbg !631, !nonnull !162
  %8 = load i8*, i8** %self, !dbg !635
  %9 = icmp ne i8* %8, null, !dbg !635
  %10 = zext i1 %9 to i64, !dbg !635
  switch i64 %10, label %bb7 [
    i64 1, label %bb6
  ], !dbg !635

bb4:                                              ; preds = %bb5
  cleanupret from %cleanuppad unwind to caller, !dbg !636

bb5:                                              ; preds = %funclet_bb5
  br label %bb4, !dbg !635

bb6:                                              ; preds = %bb7, %bb3
  ret %"std::io::stdio::Maybe<std::io::stdio::StdoutRaw>"* %7, !dbg !635

bb7:                                              ; preds = %bb3
  br label %bb6, !dbg !635

funclet_bb5:                                      ; preds = %bb1
  %cleanuppad = cleanuppad within none []
  br label %bb5

unreachable:                                      ; preds = %bb1
  unreachable
}

; <core::option::Option<T>>::unwrap
; Function Attrs: inlinehint uwtable
define internal void @"_ZN38_$LT$core..option..Option$LT$T$GT$$GT$6unwrap17hf172bcf7a337fb58E"(%"alloc::allocator::Layout"* noalias nocapture sret dereferenceable(16), %"core::option::Option<alloc::allocator::Layout>"* noalias nocapture dereferenceable(24) %self) unnamed_addr #0 personality i32 (...)* @__CxxFrameHandler3 !dbg !637 {
start:
  %val = alloca %"alloc::allocator::Layout", !dbg !657
  call void @llvm.dbg.declare(metadata %"core::option::Option<alloc::allocator::Layout>"* %self, metadata !658, metadata !613), !dbg !657
  call void @llvm.dbg.declare(metadata %"alloc::allocator::Layout"* %val, metadata !659, metadata !165), !dbg !661
  %1 = getelementptr inbounds %"core::option::Option<alloc::allocator::Layout>", %"core::option::Option<alloc::allocator::Layout>"* %self, i32 0, i32 0, !dbg !661
  %2 = load i64, i64* %1, !dbg !661, !range !618
  switch i64 %2, label %bb2 [
    i64 0, label %bb1
    i64 1, label %bb3
  ], !dbg !661

bb1:                                              ; preds = %start
  %3 = load { %str_slice, [0 x i8], %str_slice, [0 x i8], i32, [0 x i8], i32, [0 x i8] }*, { %str_slice, [0 x i8], %str_slice, [0 x i8], i32, [0 x i8], i32, [0 x i8] }** bitcast ({ %str_slice, %str_slice, i32, i32 }** @const.a to { %str_slice, [0 x i8], %str_slice, [0 x i8], i32, [0 x i8], i32, [0 x i8] }**), !dbg !662, !nonnull !162
; invoke core::panicking::panic
  invoke void @_ZN4core9panicking5panic17hbb9b03eae4db0581E({ %str_slice, [0 x i8], %str_slice, [0 x i8], i32, [0 x i8], i32, [0 x i8] }* noalias readonly dereferenceable(40) %3)
          to label %unreachable unwind label %funclet_bb5, !dbg !662

bb2:                                              ; preds = %start
  unreachable, !dbg !664

bb3:                                              ; preds = %start
  %4 = bitcast %"core::option::Option<alloc::allocator::Layout>"* %self to { i64, [0 x i8], %"alloc::allocator::Layout", [0 x i8] }*, !dbg !661
  %5 = getelementptr inbounds { i64, [0 x i8], %"alloc::allocator::Layout", [0 x i8] }, { i64, [0 x i8], %"alloc::allocator::Layout", [0 x i8] }* %4, i32 0, i32 2, !dbg !661
  %6 = getelementptr inbounds %"alloc::allocator::Layout", %"alloc::allocator::Layout"* %5, i32 0, i32 0, !dbg !661
  %7 = getelementptr inbounds %"alloc::allocator::Layout", %"alloc::allocator::Layout"* %5, i32 0, i32 2, !dbg !661
  %8 = load i64, i64* %6, !dbg !661
  %9 = load i64, i64* %7, !dbg !661
  %10 = getelementptr inbounds %"alloc::allocator::Layout", %"alloc::allocator::Layout"* %val, i32 0, i32 0, !dbg !661
  store i64 %8, i64* %10, !dbg !661
  %11 = getelementptr inbounds %"alloc::allocator::Layout", %"alloc::allocator::Layout"* %val, i32 0, i32 2, !dbg !661
  store i64 %9, i64* %11, !dbg !661
  %12 = getelementptr inbounds %"alloc::allocator::Layout", %"alloc::allocator::Layout"* %val, i32 0, i32 0, !dbg !661
  %13 = getelementptr inbounds %"alloc::allocator::Layout", %"alloc::allocator::Layout"* %val, i32 0, i32 2, !dbg !661
  %14 = load i64, i64* %12, !dbg !661
  %15 = load i64, i64* %13, !dbg !661
  %16 = getelementptr inbounds %"alloc::allocator::Layout", %"alloc::allocator::Layout"* %0, i32 0, i32 0, !dbg !661
  store i64 %14, i64* %16, !dbg !661
  %17 = getelementptr inbounds %"alloc::allocator::Layout", %"alloc::allocator::Layout"* %0, i32 0, i32 2, !dbg !661
  store i64 %15, i64* %17, !dbg !661
  %18 = getelementptr inbounds %"core::option::Option<alloc::allocator::Layout>", %"core::option::Option<alloc::allocator::Layout>"* %self, i32 0, i32 0, !dbg !664
  %19 = load i64, i64* %18, !dbg !664, !range !618
  switch i64 %19, label %bb7 [
    i64 1, label %bb6
  ], !dbg !664

bb4:                                              ; preds = %bb5
  cleanupret from %cleanuppad unwind to caller, !dbg !665

bb5:                                              ; preds = %funclet_bb5
  br label %bb4, !dbg !664

bb6:                                              ; preds = %bb7, %bb3
  ret void, !dbg !664

bb7:                                              ; preds = %bb3
  br label %bb6, !dbg !664

funclet_bb5:                                      ; preds = %bb1
  %cleanuppad = cleanuppad within none []
  br label %bb5

unreachable:                                      ; preds = %bb1
  unreachable
}

; <core::option::Option<T>>::is_some
; Function Attrs: inlinehint uwtable
define internal zeroext i1 @"_ZN38_$LT$core..option..Option$LT$T$GT$$GT$7is_some17h81582ea7aa941811E"(%"core::option::Option<std::io::stdio::Maybe<std::io::stdio::StdoutRaw>>"* noalias readonly dereferenceable(2)) unnamed_addr #0 !dbg !666 {
start:
  %_0 = alloca i8
  %self = alloca %"core::option::Option<std::io::stdio::Maybe<std::io::stdio::StdoutRaw>>"*
  store %"core::option::Option<std::io::stdio::Maybe<std::io::stdio::StdoutRaw>>"* %0, %"core::option::Option<std::io::stdio::Maybe<std::io::stdio::StdoutRaw>>"** %self
  call void @llvm.dbg.declare(metadata %"core::option::Option<std::io::stdio::Maybe<std::io::stdio::StdoutRaw>>"** %self, metadata !670, metadata !165), !dbg !671
  %1 = load %"core::option::Option<std::io::stdio::Maybe<std::io::stdio::StdoutRaw>>"*, %"core::option::Option<std::io::stdio::Maybe<std::io::stdio::StdoutRaw>>"** %self, !dbg !672, !nonnull !162
  %2 = getelementptr inbounds %"core::option::Option<std::io::stdio::Maybe<std::io::stdio::StdoutRaw>>", %"core::option::Option<std::io::stdio::Maybe<std::io::stdio::StdoutRaw>>"* %1, i32 0, i32 0, !dbg !672
  %3 = load i8, i8* %2, !dbg !672, !range !569
  %4 = zext i8 %3 to i64, !dbg !672
  switch i64 %4, label %bb3 [
    i64 0, label %bb2
    i64 1, label %bb1
  ], !dbg !672

bb1:                                              ; preds = %start
  store i8 1, i8* %_0, !dbg !672
  br label %bb4, !dbg !673

bb2:                                              ; preds = %start
  store i8 0, i8* %_0, !dbg !674
  br label %bb4, !dbg !673

bb3:                                              ; preds = %start
  unreachable, !dbg !675

bb4:                                              ; preds = %bb2, %bb1
  %5 = load i8, i8* %_0, !dbg !675, !range !569
  %6 = trunc i8 %5 to i1, !dbg !675
  ret i1 %6, !dbg !675
}

; std::io::error::Error::new
; Function Attrs: uwtable
define internal void @_ZN3std2io5error5Error3new17hb8e71924c268f916E(%"std::io::error::Error"* noalias nocapture sret dereferenceable(16), i8, i8* noalias nonnull readonly, i64) unnamed_addr #1 !dbg !676 {
start:
  %_3 = alloca i8
  %error = alloca %str_slice
  %kind = alloca i8
  store i8 %1, i8* %kind
  call void @llvm.dbg.declare(metadata i8* %kind, metadata !712, metadata !165), !dbg !713
  %4 = getelementptr inbounds %str_slice, %str_slice* %error, i32 0, i32 0
  store i8* %2, i8** %4
  %5 = getelementptr inbounds %str_slice, %str_slice* %error, i32 0, i32 1
  store i64 %3, i64* %5
  call void @llvm.dbg.declare(metadata %str_slice* %error, metadata !714, metadata !165), !dbg !713
  %6 = load i8, i8* %kind, !dbg !715
  store i8 %6, i8* %_3, !dbg !715
  %7 = getelementptr inbounds %str_slice, %str_slice* %error, i32 0, i32 0, !dbg !715
  %8 = load i8*, i8** %7, !dbg !715, !nonnull !162
  %9 = getelementptr inbounds %str_slice, %str_slice* %error, i32 0, i32 1, !dbg !715
  %10 = load i64, i64* %9, !dbg !715
; call <T as core::convert::Into<U>>::into
  %11 = call { i8*, void (i8*)** } @"_ZN50_$LT$T$u20$as$u20$core..convert..Into$LT$U$GT$$GT$4into17h977e8cb61390221bE"(i8* noalias nonnull readonly %8, i64 %10), !dbg !715
  %12 = extractvalue { i8*, void (i8*)** } %11, 0, !dbg !715
  %13 = extractvalue { i8*, void (i8*)** } %11, 1, !dbg !715
  br label %bb1, !dbg !715

bb1:                                              ; preds = %start
  %14 = load i8, i8* %_3, !dbg !715
  %15 = bitcast i8* %12 to {}*, !dbg !715
  %16 = bitcast void (i8*)** %13 to {}*, !dbg !715
; call std::io::error::Error::_new
  call void @_ZN3std2io5error5Error4_new17hea8c6412424cc262E(%"std::io::error::Error"* noalias nocapture sret dereferenceable(16) %0, i8 %14, {}* noalias nonnull %15, {}* noalias nonnull readonly %16), !dbg !715
  br label %bb2, !dbg !715

bb2:                                              ; preds = %bb1
  ret void, !dbg !716
}

; std::io::stdio::handle_ebadf
; Function Attrs: uwtable
define internal void @_ZN3std2io5stdio12handle_ebadf17h06747a28b6c91e19E(%"core::result::Result<usize, std::io::error::Error>"* noalias nocapture sret dereferenceable(24), %"core::result::Result<usize, std::io::error::Error>"* noalias nocapture dereferenceable(24) %r, i64) unnamed_addr #1 personality i32 (...)* @__CxxFrameHandler3 !dbg !717 {
start:
  %_11 = alloca i8, !dbg !733
  %_10 = alloca i8, !dbg !733
  %_9 = alloca %"core::result::Result<usize, std::io::error::Error>", !dbg !733
  %r2 = alloca %"core::result::Result<usize, std::io::error::Error>", !dbg !733
  %e = alloca %"std::io::error::Error"*, !dbg !733
  %default = alloca i64, !dbg !733
  call void @llvm.dbg.declare(metadata %"core::result::Result<usize, std::io::error::Error>"* %r, metadata !734, metadata !613), !dbg !733
  store i64 %1, i64* %default
  call void @llvm.dbg.declare(metadata i64* %default, metadata !735, metadata !165), !dbg !733
  call void @llvm.dbg.declare(metadata %"std::io::error::Error"** %e, metadata !736, metadata !165), !dbg !739
  call void @llvm.dbg.declare(metadata %"core::result::Result<usize, std::io::error::Error>"* %r2, metadata !740, metadata !165), !dbg !742
  store i8 0, i8* %_10, !dbg !743
  store i8 0, i8* %_11, !dbg !743
  store i8 1, i8* %_10, !dbg !743
  store i8 1, i8* %_11, !dbg !743
  %2 = getelementptr inbounds %"core::result::Result<usize, std::io::error::Error>", %"core::result::Result<usize, std::io::error::Error>"* %r, i32 0, i32 0, !dbg !743
  %3 = load i64, i64* %2, !dbg !743, !range !618
  switch i64 %3, label %bb7 [
    i64 1, label %bb2
  ], !dbg !743

bb1:                                              ; preds = %bb3
  store i8 0, i8* %_11, !dbg !739
  %4 = load i64, i64* %default, !dbg !739
  %5 = getelementptr inbounds %"core::result::Result<usize, std::io::error::Error>", %"core::result::Result<usize, std::io::error::Error>"* %0, i32 0, i32 0, !dbg !739
  store i64 0, i64* %5, !dbg !739
  %6 = bitcast %"core::result::Result<usize, std::io::error::Error>"* %0 to { i64, [0 x i8], i64, [0 x i8] }*, !dbg !739
  %7 = getelementptr inbounds { i64, [0 x i8], i64, [0 x i8] }, { i64, [0 x i8], i64, [0 x i8] }* %6, i32 0, i32 2, !dbg !739
  store i64 %4, i64* %7, !dbg !739
  br label %bb8, !dbg !744

bb2:                                              ; preds = %start
  %8 = bitcast %"core::result::Result<usize, std::io::error::Error>"* %r to { i64, [0 x i8], %"std::io::error::Error", [0 x i8] }*, !dbg !743
  %9 = getelementptr inbounds { i64, [0 x i8], %"std::io::error::Error", [0 x i8] }, { i64, [0 x i8], %"std::io::error::Error", [0 x i8] }* %8, i32 0, i32 2, !dbg !743
  store %"std::io::error::Error"* %9, %"std::io::error::Error"** %e, !dbg !743
  %10 = load %"std::io::error::Error"*, %"std::io::error::Error"** %e, !dbg !743, !nonnull !162
; invoke std::sys::imp::stdio::is_ebadf
  %11 = invoke zeroext i1 @_ZN3std3sys3imp5stdio8is_ebadf17he3fdb8cd016adcd2E(%"std::io::error::Error"* noalias readonly dereferenceable(16) %10)
          to label %bb3 unwind label %funclet_bb6, !dbg !743

bb3:                                              ; preds = %bb2
  br i1 %11, label %bb1, label %bb7, !dbg !743

bb4:                                              ; preds = %bb11, %bb5
  cleanupret from %cleanuppad unwind to caller, !dbg !745

bb5:                                              ; preds = %funclet_bb5
  %12 = load i8, i8* %_10, !dbg !746, !range !569
  %13 = trunc i8 %12 to i1, !dbg !746
  br i1 %13, label %bb11, label %bb4, !dbg !746

bb6:                                              ; preds = %funclet_bb6
  store i8 0, i8* %_11, !dbg !746
  cleanupret from %cleanuppad1 unwind label %funclet_bb5, !dbg !746

bb7:                                              ; preds = %bb3, %start
  store i8 0, i8* %_10, !dbg !742
  %14 = bitcast %"core::result::Result<usize, std::io::error::Error>"* %r to i8*, !dbg !742
  %15 = bitcast %"core::result::Result<usize, std::io::error::Error>"* %r2 to i8*, !dbg !742
  call void @llvm.memcpy.p0i8.p0i8.i64(i8* %15, i8* %14, i64 24, i32 8, i1 false), !dbg !742
  %16 = bitcast %"core::result::Result<usize, std::io::error::Error>"* %r2 to i8*, !dbg !742
  %17 = bitcast %"core::result::Result<usize, std::io::error::Error>"* %_9 to i8*, !dbg !742
  call void @llvm.memcpy.p0i8.p0i8.i64(i8* %17, i8* %16, i64 24, i32 8, i1 false), !dbg !742
  %18 = bitcast %"core::result::Result<usize, std::io::error::Error>"* %_9 to i8*, !dbg !742
  %19 = bitcast %"core::result::Result<usize, std::io::error::Error>"* %0 to i8*, !dbg !742
  call void @llvm.memcpy.p0i8.p0i8.i64(i8* %19, i8* %18, i64 24, i32 8, i1 false), !dbg !742
  br label %bb8, !dbg !744

bb8:                                              ; preds = %bb7, %bb1
  %20 = load i8, i8* %_11, !dbg !746, !range !569
  %21 = trunc i8 %20 to i1, !dbg !746
  br i1 %21, label %bb12, label %bb9, !dbg !746

bb9:                                              ; preds = %bb12, %bb8
  %22 = load i8, i8* %_10, !dbg !746, !range !569
  %23 = trunc i8 %22 to i1, !dbg !746
  br i1 %23, label %bb13, label %bb10, !dbg !746

bb10:                                             ; preds = %bb13, %bb9
  ret void, !dbg !746

bb11:                                             ; preds = %bb5
  store i8 0, i8* %_10, !dbg !746
; call core::ptr::drop_in_place
  call void @_ZN4core3ptr13drop_in_place17h7b81efce04f12754E(%"core::result::Result<usize, std::io::error::Error>"* %r) #12 [ "funclet"(token %cleanuppad) ], !dbg !746
  br label %bb4, !dbg !746

bb12:                                             ; preds = %bb8
  store i8 0, i8* %_11, !dbg !746
  br label %bb9, !dbg !746

bb13:                                             ; preds = %bb9
  store i8 0, i8* %_10, !dbg !746
; call core::ptr::drop_in_place
  call void @_ZN4core3ptr13drop_in_place17h7b81efce04f12754E(%"core::result::Result<usize, std::io::error::Error>"* %r), !dbg !746
  br label %bb10, !dbg !746

funclet_bb5:                                      ; preds = %bb6
  %cleanuppad = cleanuppad within none []
  br label %bb5

funclet_bb6:                                      ; preds = %bb2
  %cleanuppad1 = cleanuppad within none []
  br label %bb6
}

; <alloc::raw_vec::RawVec<T>>::with_capacity
; Function Attrs: inlinehint uwtable
define internal void @"_ZN40_$LT$alloc..raw_vec..RawVec$LT$T$GT$$GT$13with_capacity17haccf3ded1224c464E"(%"alloc::raw_vec::RawVec<u8, alloc::heap::Heap>"* noalias nocapture sret dereferenceable(16), i64) unnamed_addr #0 !dbg !747 {
start:
  %cap = alloca i64
  store i64 %1, i64* %cap
  call void @llvm.dbg.declare(metadata i64* %cap, metadata !751, metadata !165), !dbg !752
  %2 = load i64, i64* %cap, !dbg !753
; call <alloc::raw_vec::RawVec<T, A>>::allocate_in
  call void @"_ZN49_$LT$alloc..raw_vec..RawVec$LT$T$C$$u20$A$GT$$GT$11allocate_in17h2f4df83b6f50df90E"(%"alloc::raw_vec::RawVec<u8, alloc::heap::Heap>"* noalias nocapture sret dereferenceable(16) %0, i64 %2, i1 zeroext false), !dbg !753
  br label %bb1, !dbg !753

bb1:                                              ; preds = %start
  ret void, !dbg !754
}

; <alloc::raw_vec::RawVec<T>>::with_capacity_zeroed
; Function Attrs: inlinehint uwtable
define internal void @"_ZN40_$LT$alloc..raw_vec..RawVec$LT$T$GT$$GT$20with_capacity_zeroed17h7a6fb3c64370fb1dE"(%"alloc::raw_vec::RawVec<u8, alloc::heap::Heap>"* noalias nocapture sret dereferenceable(16), i64) unnamed_addr #0 !dbg !755 {
start:
  %cap = alloca i64
  store i64 %1, i64* %cap
  call void @llvm.dbg.declare(metadata i64* %cap, metadata !756, metadata !165), !dbg !757
  %2 = load i64, i64* %cap, !dbg !758
; call <alloc::raw_vec::RawVec<T, A>>::allocate_in
  call void @"_ZN49_$LT$alloc..raw_vec..RawVec$LT$T$C$$u20$A$GT$$GT$11allocate_in17h2f4df83b6f50df90E"(%"alloc::raw_vec::RawVec<u8, alloc::heap::Heap>"* noalias nocapture sret dereferenceable(16) %0, i64 %2, i1 zeroext true), !dbg !758
  br label %bb1, !dbg !758

bb1:                                              ; preds = %start
  ret void, !dbg !759
}

; <core::cell::UnsafeCell<T>>::get
; Function Attrs: inlinehint uwtable
define internal i64* @"_ZN40_$LT$core..cell..UnsafeCell$LT$T$GT$$GT$3get17h1e012e956d9f3ce2E"(%"core::cell::UnsafeCell<usize>"* dereferenceable(8)) unnamed_addr #0 !dbg !760 {
start:
  %self = alloca %"core::cell::UnsafeCell<usize>"*
  store %"core::cell::UnsafeCell<usize>"* %0, %"core::cell::UnsafeCell<usize>"** %self
  call void @llvm.dbg.declare(metadata %"core::cell::UnsafeCell<usize>"** %self, metadata !766, metadata !165), !dbg !767
  %1 = load %"core::cell::UnsafeCell<usize>"*, %"core::cell::UnsafeCell<usize>"** %self, !dbg !768, !nonnull !162
  %2 = getelementptr inbounds %"core::cell::UnsafeCell<usize>", %"core::cell::UnsafeCell<usize>"* %1, i32 0, i32 0, !dbg !768
  ret i64* %2, !dbg !769
}

; <core::nonzero::NonZero<T>>::new_unchecked
; Function Attrs: inlinehint uwtable
define internal i64 @"_ZN40_$LT$core..nonzero..NonZero$LT$T$GT$$GT$13new_unchecked17h9e5c3d48981fdcb5E"(i8*) unnamed_addr #0 !dbg !770 {
start:
  %_0 = alloca %"core::nonzero::NonZero<*const u8>"
  %inner = alloca i8*
  store i8* %0, i8** %inner
  call void @llvm.dbg.declare(metadata i8** %inner, metadata !775, metadata !165), !dbg !776
  %1 = load i8*, i8** %inner, !dbg !777
  %2 = getelementptr inbounds %"core::nonzero::NonZero<*const u8>", %"core::nonzero::NonZero<*const u8>"* %_0, i32 0, i32 0, !dbg !777
  store i8* %1, i8** %2, !dbg !777
  %3 = bitcast %"core::nonzero::NonZero<*const u8>"* %_0 to i64*, !dbg !778
  %4 = load i64, i64* %3, align 8, !dbg !778
  ret i64 %4, !dbg !778
}

; <core::nonzero::NonZero<T>>::get
; Function Attrs: uwtable
define internal %"alloc::arc::ArcInner<std::sys_common::remutex::ReentrantMutex<core::cell::RefCell<std::io::buffered::LineWriter<std::io::stdio::Maybe<std::io::stdio::StdoutRaw>>>>>"* @"_ZN40_$LT$core..nonzero..NonZero$LT$T$GT$$GT$3get17h0035a90b5890e6ddE"(i64) unnamed_addr #1 !dbg !779 {
start:
  %abi_cast = alloca i64
  %self = alloca %"core::nonzero::NonZero<*const alloc::arc::ArcInner<std::sys_common::remutex::ReentrantMutex<core::cell::RefCell<std::io::buffered::LineWriter<std::io::stdio::Maybe<std::io::stdio::StdoutRaw>>>>>>"
  store i64 %0, i64* %abi_cast
  %1 = bitcast %"core::nonzero::NonZero<*const alloc::arc::ArcInner<std::sys_common::remutex::ReentrantMutex<core::cell::RefCell<std::io::buffered::LineWriter<std::io::stdio::Maybe<std::io::stdio::StdoutRaw>>>>>>"* %self to i8*
  %2 = bitcast i64* %abi_cast to i8*
  call void @llvm.memcpy.p0i8.p0i8.i64(i8* %1, i8* %2, i64 8, i32 8, i1 false)
  call void @llvm.dbg.declare(metadata %"core::nonzero::NonZero<*const alloc::arc::ArcInner<std::sys_common::remutex::ReentrantMutex<core::cell::RefCell<std::io::buffered::LineWriter<std::io::stdio::Maybe<std::io::stdio::StdoutRaw>>>>>>"* %self, metadata !784, metadata !165), !dbg !785
  %3 = getelementptr inbounds %"core::nonzero::NonZero<*const alloc::arc::ArcInner<std::sys_common::remutex::ReentrantMutex<core::cell::RefCell<std::io::buffered::LineWriter<std::io::stdio::Maybe<std::io::stdio::StdoutRaw>>>>>>", %"core::nonzero::NonZero<*const alloc::arc::ArcInner<std::sys_common::remutex::ReentrantMutex<core::cell::RefCell<std::io::buffered::LineWriter<std::io::stdio::Maybe<std::io::stdio::StdoutRaw>>>>>>"* %self, i32 0, i32 0, !dbg !786
  %4 = load %"alloc::arc::ArcInner<std::sys_common::remutex::ReentrantMutex<core::cell::RefCell<std::io::buffered::LineWriter<std::io::stdio::Maybe<std::io::stdio::StdoutRaw>>>>>"*, %"alloc::arc::ArcInner<std::sys_common::remutex::ReentrantMutex<core::cell::RefCell<std::io::buffered::LineWriter<std::io::stdio::Maybe<std::io::stdio::StdoutRaw>>>>>"** %3, !dbg !786
  ret %"alloc::arc::ArcInner<std::sys_common::remutex::ReentrantMutex<core::cell::RefCell<std::io::buffered::LineWriter<std::io::stdio::Maybe<std::io::stdio::StdoutRaw>>>>>"* %4, !dbg !787
}

; <core::nonzero::NonZero<T>>::get
; Function Attrs: uwtable
define internal %"alloc::vec::Vec<u8>"* @"_ZN40_$LT$core..nonzero..NonZero$LT$T$GT$$GT$3get17h7bf37f56f2131c87E"(i64) unnamed_addr #1 !dbg !788 {
start:
  %abi_cast = alloca i64
  %self = alloca %"core::nonzero::NonZero<*const alloc::vec::Vec<u8>>"
  store i64 %0, i64* %abi_cast
  %1 = bitcast %"core::nonzero::NonZero<*const alloc::vec::Vec<u8>>"* %self to i8*
  %2 = bitcast i64* %abi_cast to i8*
  call void @llvm.memcpy.p0i8.p0i8.i64(i8* %1, i8* %2, i64 8, i32 8, i1 false)
  call void @llvm.dbg.declare(metadata %"core::nonzero::NonZero<*const alloc::vec::Vec<u8>>"* %self, metadata !793, metadata !165), !dbg !794
  %3 = getelementptr inbounds %"core::nonzero::NonZero<*const alloc::vec::Vec<u8>>", %"core::nonzero::NonZero<*const alloc::vec::Vec<u8>>"* %self, i32 0, i32 0, !dbg !795
  %4 = load %"alloc::vec::Vec<u8>"*, %"alloc::vec::Vec<u8>"** %3, !dbg !795
  ret %"alloc::vec::Vec<u8>"* %4, !dbg !796
}

; <core::nonzero::NonZero<T>>::get
; Function Attrs: uwtable
define internal i8* @"_ZN40_$LT$core..nonzero..NonZero$LT$T$GT$$GT$3get17hdbf617b04276e9e5E"(i64) unnamed_addr #1 !dbg !797 {
start:
  %abi_cast = alloca i64
  %self = alloca %"core::nonzero::NonZero<*const u8>"
  store i64 %0, i64* %abi_cast
  %1 = bitcast %"core::nonzero::NonZero<*const u8>"* %self to i8*
  %2 = bitcast i64* %abi_cast to i8*
  call void @llvm.memcpy.p0i8.p0i8.i64(i8* %1, i8* %2, i64 8, i32 8, i1 false)
  call void @llvm.dbg.declare(metadata %"core::nonzero::NonZero<*const u8>"* %self, metadata !800, metadata !165), !dbg !801
  %3 = getelementptr inbounds %"core::nonzero::NonZero<*const u8>", %"core::nonzero::NonZero<*const u8>"* %self, i32 0, i32 0, !dbg !802
  %4 = load i8*, i8** %3, !dbg !802
  ret i8* %4, !dbg !803
}

; <core::mem::ManuallyDrop<T>>::into_inner
; Function Attrs: inlinehint uwtable
define internal void @"_ZN41_$LT$core..mem..ManuallyDrop$LT$T$GT$$GT$10into_inner17hd116ec61f71a9285E"(%"alloc::allocator::AllocErr"* noalias nocapture sret dereferenceable(24), %"core::mem::ManuallyDrop<alloc::allocator::AllocErr>"* noalias nocapture dereferenceable(24) %slot) unnamed_addr #0 !dbg !804 {
start:
  %_2 = alloca %"alloc::allocator::AllocErr", !dbg !826
  call void @llvm.dbg.declare(metadata %"core::mem::ManuallyDrop<alloc::allocator::AllocErr>"* %slot, metadata !827, metadata !613), !dbg !826
  %1 = bitcast %"core::mem::ManuallyDrop<alloc::allocator::AllocErr>"* %slot to %"alloc::allocator::AllocErr"*, !dbg !828
  %2 = bitcast %"alloc::allocator::AllocErr"* %1 to i8*, !dbg !828
  %3 = bitcast %"alloc::allocator::AllocErr"* %_2 to i8*, !dbg !828
  call void @llvm.memcpy.p0i8.p0i8.i64(i8* %3, i8* %2, i64 24, i32 8, i1 false), !dbg !828
  %4 = bitcast %"alloc::allocator::AllocErr"* %_2 to i8*, !dbg !828
  %5 = bitcast %"alloc::allocator::AllocErr"* %0 to i8*, !dbg !828
  call void @llvm.memcpy.p0i8.p0i8.i64(i8* %5, i8* %4, i64 24, i32 8, i1 false), !dbg !828
  ret void, !dbg !830
}

; <core::mem::ManuallyDrop<T>>::new
; Function Attrs: inlinehint uwtable
define internal void @"_ZN41_$LT$core..mem..ManuallyDrop$LT$T$GT$$GT$3new17ha6b393727efca0bcE"(%"core::mem::ManuallyDrop<alloc::allocator::AllocErr>"* noalias nocapture sret dereferenceable(24), %"alloc::allocator::AllocErr"* noalias nocapture dereferenceable(24) %value) unnamed_addr #0 !dbg !831 {
start:
  %_2 = alloca %"alloc::allocator::AllocErr", !dbg !834
  call void @llvm.dbg.declare(metadata %"alloc::allocator::AllocErr"* %value, metadata !835, metadata !613), !dbg !834
  %1 = bitcast %"alloc::allocator::AllocErr"* %value to i8*, !dbg !836
  %2 = bitcast %"alloc::allocator::AllocErr"* %_2 to i8*, !dbg !836
  call void @llvm.memcpy.p0i8.p0i8.i64(i8* %2, i8* %1, i64 24, i32 8, i1 false), !dbg !836
  %3 = bitcast %"core::mem::ManuallyDrop<alloc::allocator::AllocErr>"* %0 to %"alloc::allocator::AllocErr"*, !dbg !836
  %4 = bitcast %"alloc::allocator::AllocErr"* %_2 to i8*, !dbg !836
  %5 = bitcast %"alloc::allocator::AllocErr"* %3 to i8*, !dbg !836
  call void @llvm.memcpy.p0i8.p0i8.i64(i8* %5, i8* %4, i64 24, i32 8, i1 false), !dbg !836
  ret void, !dbg !837
}

; <std::io::buffered::BufWriter<W>>::flush_buf
; Function Attrs: uwtable
define internal void @"_ZN46_$LT$std..io..buffered..BufWriter$LT$W$GT$$GT$9flush_buf17h3feebf1504823cb9E"(%"core::result::Result<(), std::io::error::Error>"* noalias nocapture sret dereferenceable(24), %"std::io::buffered::BufWriter<std::io::stdio::Maybe<std::io::stdio::StdoutRaw>>"* dereferenceable(32)) unnamed_addr #1 personality i32 (...)* @__CxxFrameHandler3 !dbg !838 {
start:
  %_46 = alloca i8
  %_45 = alloca %"core::result::Result<(), std::io::error::Error>"
  %_43 = alloca %"core::ops::range::RangeTo<usize>"
  %_41 = alloca %"alloc::vec::Drain<u8>"
  %_38 = alloca {}
  %_37 = alloca %"std::io::error::Error"
  %_36 = alloca %"core::result::Result<(), std::io::error::Error>"
  %_34 = alloca i8
  %_33 = alloca %"std::io::error::Error"
  %_32 = alloca %"core::result::Result<(), std::io::error::Error>"
  %_29 = alloca i8
  %e4 = alloca %"std::io::error::Error"
  %e = alloca %"std::io::error::Error"*
  %n = alloca i64
  %_21 = alloca %"core::ops::range::RangeFrom<usize>"
  %_15 = alloca i8*
  %r = alloca %"core::result::Result<usize, std::io::error::Error>"
  %_7 = alloca {}
  %ret = alloca %"core::result::Result<(), std::io::error::Error>"
  %len = alloca i64
  %written = alloca i64
  %self = alloca %"std::io::buffered::BufWriter<std::io::stdio::Maybe<std::io::stdio::StdoutRaw>>"*
  store %"std::io::buffered::BufWriter<std::io::stdio::Maybe<std::io::stdio::StdoutRaw>>"* %1, %"std::io::buffered::BufWriter<std::io::stdio::Maybe<std::io::stdio::StdoutRaw>>"** %self
  call void @llvm.dbg.declare(metadata %"std::io::buffered::BufWriter<std::io::stdio::Maybe<std::io::stdio::StdoutRaw>>"** %self, metadata !858, metadata !165), !dbg !859
  call void @llvm.dbg.declare(metadata i64* %written, metadata !860, metadata !165), !dbg !862
  call void @llvm.dbg.declare(metadata i64* %len, metadata !863, metadata !165), !dbg !865
  call void @llvm.dbg.declare(metadata %"core::result::Result<(), std::io::error::Error>"* %ret, metadata !866, metadata !165), !dbg !868
  call void @llvm.dbg.declare(metadata %"core::result::Result<usize, std::io::error::Error>"* %r, metadata !869, metadata !165), !dbg !871
  call void @llvm.dbg.declare(metadata i64* %n, metadata !872, metadata !165), !dbg !874
  call void @llvm.dbg.declare(metadata %"std::io::error::Error"** %e, metadata !875, metadata !165), !dbg !877
  call void @llvm.dbg.declare(metadata %"std::io::error::Error"* %e4, metadata !878, metadata !165), !dbg !880
  store i8 0, i8* %_46, !dbg !862
  store i64 0, i64* %written, !dbg !862
  %2 = load %"std::io::buffered::BufWriter<std::io::stdio::Maybe<std::io::stdio::StdoutRaw>>"*, %"std::io::buffered::BufWriter<std::io::stdio::Maybe<std::io::stdio::StdoutRaw>>"** %self, !dbg !865, !nonnull !162
  %3 = getelementptr inbounds %"std::io::buffered::BufWriter<std::io::stdio::Maybe<std::io::stdio::StdoutRaw>>", %"std::io::buffered::BufWriter<std::io::stdio::Maybe<std::io::stdio::StdoutRaw>>"* %2, i32 0, i32 0, !dbg !865
; call <alloc::vec::Vec<T>>::len
  %4 = call i64 @"_ZN33_$LT$alloc..vec..Vec$LT$T$GT$$GT$3len17h568703544c3b3fedE"(%"alloc::vec::Vec<u8>"* noalias readonly dereferenceable(24) %3), !dbg !865
  store i64 %4, i64* %len, !dbg !865
  br label %bb1, !dbg !865

bb1:                                              ; preds = %start
  %5 = getelementptr inbounds %"core::result::Result<(), std::io::error::Error>", %"core::result::Result<(), std::io::error::Error>"* %ret, i32 0, i32 0, !dbg !868
  store i64 0, i64* %5, !dbg !868
  br label %bb2, !dbg !881

bb2:                                              ; preds = %bb23, %bb1
  %6 = load i64, i64* %written, !dbg !881
  %7 = load i64, i64* %len, !dbg !881
  %8 = icmp ult i64 %6, %7, !dbg !881
  br i1 %8, label %bb4, label %bb3, !dbg !881

bb3:                                              ; preds = %bb35, %bb2
  %9 = load i64, i64* %written, !dbg !882
  %10 = icmp ugt i64 %9, 0, !dbg !882
  br i1 %10, label %bb24, label %bb25, !dbg !882

bb4:                                              ; preds = %bb2
  %11 = load %"std::io::buffered::BufWriter<std::io::stdio::Maybe<std::io::stdio::StdoutRaw>>"*, %"std::io::buffered::BufWriter<std::io::stdio::Maybe<std::io::stdio::StdoutRaw>>"** %self, !dbg !883, !nonnull !162
  %12 = getelementptr inbounds %"std::io::buffered::BufWriter<std::io::stdio::Maybe<std::io::stdio::StdoutRaw>>", %"std::io::buffered::BufWriter<std::io::stdio::Maybe<std::io::stdio::StdoutRaw>>"* %11, i32 0, i32 4, !dbg !883
  store i8 1, i8* %12, !dbg !883
  %13 = load %"std::io::buffered::BufWriter<std::io::stdio::Maybe<std::io::stdio::StdoutRaw>>"*, %"std::io::buffered::BufWriter<std::io::stdio::Maybe<std::io::stdio::StdoutRaw>>"** %self, !dbg !871, !nonnull !162
  %14 = getelementptr inbounds %"std::io::buffered::BufWriter<std::io::stdio::Maybe<std::io::stdio::StdoutRaw>>", %"std::io::buffered::BufWriter<std::io::stdio::Maybe<std::io::stdio::StdoutRaw>>"* %13, i32 0, i32 2, !dbg !871
; invoke <core::option::Option<T>>::as_mut
  %15 = invoke i8* @"_ZN38_$LT$core..option..Option$LT$T$GT$$GT$6as_mut17h923ad01c9a5d0abfE"(%"core::option::Option<std::io::stdio::Maybe<std::io::stdio::StdoutRaw>>"* dereferenceable(2) %14)
          to label %bb5 unwind label %funclet_bb7, !dbg !871

bb5:                                              ; preds = %bb4
  store i8* %15, i8** %_15, !dbg !871
  %16 = load i8*, i8** %_15, !dbg !871
; invoke <core::option::Option<T>>::unwrap
  %17 = invoke dereferenceable(1) %"std::io::stdio::Maybe<std::io::stdio::StdoutRaw>"* @"_ZN38_$LT$core..option..Option$LT$T$GT$$GT$6unwrap17h0a5ab9723aab9c14E"(i8* %16)
          to label %bb8 unwind label %funclet_bb7, !dbg !871

bb6:                                              ; preds = %bb7
  cleanupret from %cleanuppad unwind to caller, !dbg !884

bb7:                                              ; preds = %funclet_bb7
; call core::ptr::drop_in_place
  call void @_ZN4core3ptr13drop_in_place17h68a5779931a43a4eE(%"core::result::Result<(), std::io::error::Error>"* %ret) #12 [ "funclet"(token %cleanuppad) ], !dbg !885
  br label %bb6, !dbg !885

bb8:                                              ; preds = %bb5
  %18 = load %"std::io::buffered::BufWriter<std::io::stdio::Maybe<std::io::stdio::StdoutRaw>>"*, %"std::io::buffered::BufWriter<std::io::stdio::Maybe<std::io::stdio::StdoutRaw>>"** %self, !dbg !871, !nonnull !162
  %19 = getelementptr inbounds %"std::io::buffered::BufWriter<std::io::stdio::Maybe<std::io::stdio::StdoutRaw>>", %"std::io::buffered::BufWriter<std::io::stdio::Maybe<std::io::stdio::StdoutRaw>>"* %18, i32 0, i32 0, !dbg !871
  %20 = load i64, i64* %written, !dbg !871
  %21 = getelementptr inbounds %"core::ops::range::RangeFrom<usize>", %"core::ops::range::RangeFrom<usize>"* %_21, i32 0, i32 0, !dbg !871
  store i64 %20, i64* %21, !dbg !871
  %22 = bitcast %"core::ops::range::RangeFrom<usize>"* %_21 to i64*, !dbg !871
  %23 = load i64, i64* %22, align 8, !dbg !871
; invoke <alloc::vec::Vec<T> as core::ops::index::Index<core::ops::range::RangeFrom<usize>>>::index
  %24 = invoke { i8*, i64 } @"_ZN116_$LT$alloc..vec..Vec$LT$T$GT$$u20$as$u20$core..ops..index..Index$LT$core..ops..range..RangeFrom$LT$usize$GT$$GT$$GT$5index17heea27e4abba06dfbE"(%"alloc::vec::Vec<u8>"* noalias readonly dereferenceable(24) %19, i64 %23)
          to label %bb9 unwind label %funclet_bb7, !dbg !871

bb9:                                              ; preds = %bb8
  %25 = extractvalue { i8*, i64 } %24, 0, !dbg !871
  %26 = extractvalue { i8*, i64 } %24, 1, !dbg !871
; invoke <std::io::stdio::Maybe<W> as std::io::Write>::write
  invoke void @"_ZN65_$LT$std..io..stdio..Maybe$LT$W$GT$$u20$as$u20$std..io..Write$GT$5write17h18660c6b53616443E"(%"core::result::Result<usize, std::io::error::Error>"* noalias nocapture sret dereferenceable(24) %r, %"std::io::stdio::Maybe<std::io::stdio::StdoutRaw>"* dereferenceable(1) %17, i8* noalias nonnull readonly %25, i64 %26)
          to label %bb10 unwind label %funclet_bb7, !dbg !871

bb10:                                             ; preds = %bb9
  store i8 1, i8* %_46, !dbg !871
  %27 = load %"std::io::buffered::BufWriter<std::io::stdio::Maybe<std::io::stdio::StdoutRaw>>"*, %"std::io::buffered::BufWriter<std::io::stdio::Maybe<std::io::stdio::StdoutRaw>>"** %self, !dbg !886, !nonnull !162
  %28 = getelementptr inbounds %"std::io::buffered::BufWriter<std::io::stdio::Maybe<std::io::stdio::StdoutRaw>>", %"std::io::buffered::BufWriter<std::io::stdio::Maybe<std::io::stdio::StdoutRaw>>"* %27, i32 0, i32 4, !dbg !886
  store i8 0, i8* %28, !dbg !886
  %29 = getelementptr inbounds %"core::result::Result<usize, std::io::error::Error>", %"core::result::Result<usize, std::io::error::Error>"* %r, i32 0, i32 0, !dbg !887
  %30 = load i64, i64* %29, !dbg !887, !range !618
  switch i64 %30, label %bb16 [
    i64 0, label %bb15
    i64 1, label %bb17
  ], !dbg !887

bb11:                                             ; preds = %bb19
  br label %bb22, !dbg !888

bb12:                                             ; preds = %bb15
  store i8 14, i8* %_34, !dbg !889
  %31 = load i8, i8* %_34, !dbg !889
; invoke std::io::error::Error::new
  invoke void @_ZN3std2io5error5Error3new17hb8e71924c268f916E(%"std::io::error::Error"* noalias nocapture sret dereferenceable(16) %_33, i8 %31, i8* noalias nonnull readonly getelementptr inbounds ([33 x i8], [33 x i8]* @str.c, i32 0, i32 0), i64 33)
          to label %bb20 unwind label %funclet_bb32, !dbg !889

bb13:                                             ; preds = %bb15
  %32 = bitcast %"core::result::Result<usize, std::io::error::Error>"* %r to { i64, [0 x i8], i64, [0 x i8] }*, !dbg !890
  %33 = getelementptr inbounds { i64, [0 x i8], i64, [0 x i8] }, { i64, [0 x i8], i64, [0 x i8] }* %32, i32 0, i32 2, !dbg !890
  %34 = load i64, i64* %33, !dbg !890
  store i64 %34, i64* %n, !dbg !890
  %35 = load i64, i64* %n, !dbg !874
  %36 = load i64, i64* %written, !dbg !874
  %37 = add i64 %36, %35, !dbg !874
  store i64 %37, i64* %written, !dbg !874
  br label %bb22, !dbg !891

bb14:                                             ; preds = %bb19
  store i8 0, i8* %_46, !dbg !880
  %38 = bitcast %"core::result::Result<usize, std::io::error::Error>"* %r to { i64, [0 x i8], %"std::io::error::Error", [0 x i8] }*, !dbg !880
  %39 = getelementptr inbounds { i64, [0 x i8], %"std::io::error::Error", [0 x i8] }, { i64, [0 x i8], %"std::io::error::Error", [0 x i8] }* %38, i32 0, i32 2, !dbg !880
  %40 = bitcast %"std::io::error::Error"* %39 to i8*, !dbg !880
  %41 = bitcast %"std::io::error::Error"* %e4 to i8*, !dbg !880
  call void @llvm.memcpy.p0i8.p0i8.i64(i8* %41, i8* %40, i64 16, i32 8, i1 false), !dbg !880
  %42 = bitcast %"std::io::error::Error"* %e4 to i8*, !dbg !880
  %43 = bitcast %"std::io::error::Error"* %_37 to i8*, !dbg !880
  call void @llvm.memcpy.p0i8.p0i8.i64(i8* %43, i8* %42, i64 16, i32 8, i1 false), !dbg !880
  %44 = getelementptr inbounds %"core::result::Result<(), std::io::error::Error>", %"core::result::Result<(), std::io::error::Error>"* %_36, i32 0, i32 0, !dbg !880
  store i64 1, i64* %44, !dbg !880
  %45 = bitcast %"core::result::Result<(), std::io::error::Error>"* %_36 to { i64, [0 x i8], %"std::io::error::Error", [0 x i8] }*, !dbg !880
  %46 = getelementptr inbounds { i64, [0 x i8], %"std::io::error::Error", [0 x i8] }, { i64, [0 x i8], %"std::io::error::Error", [0 x i8] }* %45, i32 0, i32 2, !dbg !880
  %47 = bitcast %"std::io::error::Error"* %_37 to i8*, !dbg !880
  %48 = bitcast %"std::io::error::Error"* %46 to i8*, !dbg !880
  call void @llvm.memcpy.p0i8.p0i8.i64(i8* %48, i8* %47, i64 16, i32 8, i1 false), !dbg !880
; invoke core::ptr::drop_in_place
  invoke void @_ZN4core3ptr13drop_in_place17h68a5779931a43a4eE(%"core::result::Result<(), std::io::error::Error>"* %ret)
          to label %bb40 unwind label %funclet_bb39, !dbg !880

bb15:                                             ; preds = %bb10
  %49 = bitcast %"core::result::Result<usize, std::io::error::Error>"* %r to { i64, [0 x i8], i64, [0 x i8] }*, !dbg !887
  %50 = getelementptr inbounds { i64, [0 x i8], i64, [0 x i8] }, { i64, [0 x i8], i64, [0 x i8] }* %49, i32 0, i32 2, !dbg !887
  %51 = load i64, i64* %50, !dbg !887
  switch i64 %51, label %bb13 [
    i64 0, label %bb12
  ], !dbg !887

bb16:                                             ; preds = %bb10
  unreachable, !dbg !892

bb17:                                             ; preds = %bb10
  %52 = bitcast %"core::result::Result<usize, std::io::error::Error>"* %r to { i64, [0 x i8], %"std::io::error::Error", [0 x i8] }*, !dbg !893
  %53 = getelementptr inbounds { i64, [0 x i8], %"std::io::error::Error", [0 x i8] }, { i64, [0 x i8], %"std::io::error::Error", [0 x i8] }* %52, i32 0, i32 2, !dbg !893
  store %"std::io::error::Error"* %53, %"std::io::error::Error"** %e, !dbg !893
  %54 = load %"std::io::error::Error"*, %"std::io::error::Error"** %e, !dbg !893, !nonnull !162
; invoke std::io::error::Error::kind
  %55 = invoke i8 @_ZN3std2io5error5Error4kind17h70e7dba010aba0ecE(%"std::io::error::Error"* noalias readonly dereferenceable(16) %54)
          to label %bb18 unwind label %funclet_bb32, !dbg !893

bb18:                                             ; preds = %bb17
  store i8 %55, i8* %_29, !dbg !893
; invoke <std::io::error::ErrorKind as core::cmp::PartialEq>::eq
  %56 = invoke zeroext i1 @"_ZN66_$LT$std..io..error..ErrorKind$u20$as$u20$core..cmp..PartialEq$GT$2eq17h6076896d8dc2293aE"(i8* noalias readonly dereferenceable(1) %_29, i8* noalias readonly dereferenceable(1) @ref.b)
          to label %bb19 unwind label %funclet_bb32, !dbg !893

bb19:                                             ; preds = %bb18
  br i1 %56, label %bb11, label %bb14, !dbg !893

bb20:                                             ; preds = %bb12
  %57 = getelementptr inbounds %"core::result::Result<(), std::io::error::Error>", %"core::result::Result<(), std::io::error::Error>"* %_32, i32 0, i32 0, !dbg !889
  store i64 1, i64* %57, !dbg !889
  %58 = bitcast %"core::result::Result<(), std::io::error::Error>"* %_32 to { i64, [0 x i8], %"std::io::error::Error", [0 x i8] }*, !dbg !889
  %59 = getelementptr inbounds { i64, [0 x i8], %"std::io::error::Error", [0 x i8] }, { i64, [0 x i8], %"std::io::error::Error", [0 x i8] }* %58, i32 0, i32 2, !dbg !889
  %60 = bitcast %"std::io::error::Error"* %_33 to i8*, !dbg !889
  %61 = bitcast %"std::io::error::Error"* %59 to i8*, !dbg !889
  call void @llvm.memcpy.p0i8.p0i8.i64(i8* %61, i8* %60, i64 16, i32 8, i1 false), !dbg !889
; invoke core::ptr::drop_in_place
  invoke void @_ZN4core3ptr13drop_in_place17h68a5779931a43a4eE(%"core::result::Result<(), std::io::error::Error>"* %ret)
          to label %bb34 unwind label %funclet_bb33, !dbg !889

bb21:                                             ; preds = %bb34, %bb40
  %62 = getelementptr inbounds %"core::result::Result<usize, std::io::error::Error>", %"core::result::Result<usize, std::io::error::Error>"* %r, i32 0, i32 0, !dbg !894
  %63 = load i64, i64* %62, !dbg !894, !range !618
  switch i64 %63, label %bb38 [
    i64 1, label %bb36
  ], !dbg !894

bb22:                                             ; preds = %bb13, %bb11
  store i8 0, i8* %_46, !dbg !894
; invoke core::ptr::drop_in_place
  invoke void @_ZN4core3ptr13drop_in_place17h7b81efce04f12754E(%"core::result::Result<usize, std::io::error::Error>"* %r)
          to label %bb23 unwind label %funclet_bb7, !dbg !894

bb23:                                             ; preds = %bb22
  store i8 0, i8* %_46, !dbg !894
  br label %bb2, !dbg !881

bb24:                                             ; preds = %bb3
  %64 = load %"std::io::buffered::BufWriter<std::io::stdio::Maybe<std::io::stdio::StdoutRaw>>"*, %"std::io::buffered::BufWriter<std::io::stdio::Maybe<std::io::stdio::StdoutRaw>>"** %self, !dbg !895, !nonnull !162
  %65 = getelementptr inbounds %"std::io::buffered::BufWriter<std::io::stdio::Maybe<std::io::stdio::StdoutRaw>>", %"std::io::buffered::BufWriter<std::io::stdio::Maybe<std::io::stdio::StdoutRaw>>"* %64, i32 0, i32 0, !dbg !895
  %66 = load i64, i64* %written, !dbg !895
  %67 = getelementptr inbounds %"core::ops::range::RangeTo<usize>", %"core::ops::range::RangeTo<usize>"* %_43, i32 0, i32 0, !dbg !895
  store i64 %66, i64* %67, !dbg !895
  %68 = bitcast %"core::ops::range::RangeTo<usize>"* %_43 to i64*, !dbg !895
  %69 = load i64, i64* %68, align 8, !dbg !895
; invoke <alloc::vec::Vec<T>>::drain
  invoke void @"_ZN33_$LT$alloc..vec..Vec$LT$T$GT$$GT$5drain17h251b4641036f73f4E"(%"alloc::vec::Drain<u8>"* noalias nocapture sret dereferenceable(40) %_41, %"alloc::vec::Vec<u8>"* dereferenceable(24) %65, i64 %69)
          to label %bb26 unwind label %funclet_bb7, !dbg !895

bb25:                                             ; preds = %bb3
  br label %bb28, !dbg !882

bb26:                                             ; preds = %bb24
; invoke core::ptr::drop_in_place
  invoke void @_ZN4core3ptr13drop_in_place17h1f06d59c6a004abcE(%"alloc::vec::Drain<u8>"* %_41)
          to label %bb27 unwind label %funclet_bb7, !dbg !895

bb27:                                             ; preds = %bb26
  br label %bb28, !dbg !882

bb28:                                             ; preds = %bb25, %bb27
  %70 = bitcast %"core::result::Result<(), std::io::error::Error>"* %ret to i8*, !dbg !896
  %71 = bitcast %"core::result::Result<(), std::io::error::Error>"* %_45 to i8*, !dbg !896
  call void @llvm.memcpy.p0i8.p0i8.i64(i8* %71, i8* %70, i64 24, i32 8, i1 false), !dbg !896
  %72 = bitcast %"core::result::Result<(), std::io::error::Error>"* %_45 to i8*, !dbg !896
  %73 = bitcast %"core::result::Result<(), std::io::error::Error>"* %0 to i8*, !dbg !896
  call void @llvm.memcpy.p0i8.p0i8.i64(i8* %73, i8* %72, i64 24, i32 8, i1 false), !dbg !896
  ret void, !dbg !892

bb29:                                             ; preds = %bb32
  %74 = load i8, i8* %_46, !dbg !894, !range !569
  %75 = trunc i8 %74 to i1, !dbg !894
  br i1 %75, label %bb30, label %bb29_cleanup_trampoline_bb7, !dbg !894

bb30:                                             ; preds = %bb29
  store i8 0, i8* %_46, !dbg !894
  %76 = bitcast %"core::result::Result<usize, std::io::error::Error>"* %r to { i64, [0 x i8], %"std::io::error::Error", [0 x i8] }*, !dbg !894
  %77 = getelementptr inbounds { i64, [0 x i8], %"std::io::error::Error", [0 x i8] }, { i64, [0 x i8], %"std::io::error::Error", [0 x i8] }* %76, i32 0, i32 2, !dbg !894
; call core::ptr::drop_in_place
  call void @_ZN4core3ptr13drop_in_place17haab759829a9a98e1E(%"std::io::error::Error"* %77) #12 [ "funclet"(token %cleanuppad1) ], !dbg !894
  cleanupret from %cleanuppad1 unwind label %funclet_bb7, !dbg !894

bb31:                                             ; preds = %bb32
; call core::ptr::drop_in_place
  call void @_ZN4core3ptr13drop_in_place17h7b81efce04f12754E(%"core::result::Result<usize, std::io::error::Error>"* %r) #12 [ "funclet"(token %cleanuppad1) ], !dbg !894
  cleanupret from %cleanuppad1 unwind label %funclet_bb7, !dbg !894

bb32:                                             ; preds = %funclet_bb32
  %78 = getelementptr inbounds %"core::result::Result<usize, std::io::error::Error>", %"core::result::Result<usize, std::io::error::Error>"* %r, i32 0, i32 0, !dbg !894
  %79 = load i64, i64* %78, !dbg !894, !range !618
  switch i64 %79, label %bb31 [
    i64 1, label %bb29
  ], !dbg !894

bb33:                                             ; preds = %funclet_bb33
  %80 = bitcast %"core::result::Result<(), std::io::error::Error>"* %_32 to i8*, !dbg !889
  %81 = bitcast %"core::result::Result<(), std::io::error::Error>"* %ret to i8*, !dbg !889
  call void @llvm.memcpy.p0i8.p0i8.i64(i8* %81, i8* %80, i64 24, i32 8, i1 false), !dbg !889
  cleanupret from %cleanuppad2 unwind label %funclet_bb32, !dbg !889

bb34:                                             ; preds = %bb20
  %82 = bitcast %"core::result::Result<(), std::io::error::Error>"* %_32 to i8*, !dbg !889
  %83 = bitcast %"core::result::Result<(), std::io::error::Error>"* %ret to i8*, !dbg !889
  call void @llvm.memcpy.p0i8.p0i8.i64(i8* %83, i8* %82, i64 24, i32 8, i1 false), !dbg !889
  br label %bb21, !dbg !897

bb35:                                             ; preds = %bb37, %bb36, %bb38
  store i8 0, i8* %_46, !dbg !894
  br label %bb3, !dbg !898

bb36:                                             ; preds = %bb21
  %84 = load i8, i8* %_46, !dbg !894, !range !569
  %85 = trunc i8 %84 to i1, !dbg !894
  br i1 %85, label %bb37, label %bb35, !dbg !894

bb37:                                             ; preds = %bb36
  store i8 0, i8* %_46, !dbg !894
  %86 = bitcast %"core::result::Result<usize, std::io::error::Error>"* %r to { i64, [0 x i8], %"std::io::error::Error", [0 x i8] }*, !dbg !894
  %87 = getelementptr inbounds { i64, [0 x i8], %"std::io::error::Error", [0 x i8] }, { i64, [0 x i8], %"std::io::error::Error", [0 x i8] }* %86, i32 0, i32 2, !dbg !894
; call core::ptr::drop_in_place
  call void @_ZN4core3ptr13drop_in_place17haab759829a9a98e1E(%"std::io::error::Error"* %87), !dbg !894
  br label %bb35, !dbg !894

bb38:                                             ; preds = %bb21
; call core::ptr::drop_in_place
  call void @_ZN4core3ptr13drop_in_place17h7b81efce04f12754E(%"core::result::Result<usize, std::io::error::Error>"* %r), !dbg !894
  br label %bb35, !dbg !894

bb39:                                             ; preds = %funclet_bb39
  %88 = bitcast %"core::result::Result<(), std::io::error::Error>"* %_36 to i8*, !dbg !880
  %89 = bitcast %"core::result::Result<(), std::io::error::Error>"* %ret to i8*, !dbg !880
  call void @llvm.memcpy.p0i8.p0i8.i64(i8* %89, i8* %88, i64 24, i32 8, i1 false), !dbg !880
  cleanupret from %cleanuppad3 unwind label %funclet_bb32, !dbg !880

bb40:                                             ; preds = %bb14
  %90 = bitcast %"core::result::Result<(), std::io::error::Error>"* %_36 to i8*, !dbg !880
  %91 = bitcast %"core::result::Result<(), std::io::error::Error>"* %ret to i8*, !dbg !880
  call void @llvm.memcpy.p0i8.p0i8.i64(i8* %91, i8* %90, i64 24, i32 8, i1 false), !dbg !880
  br label %bb21, !dbg !880

funclet_bb7:                                      ; preds = %bb26, %bb24, %bb30, %bb29_cleanup_trampoline_bb7, %bb31, %bb22, %bb9, %bb8, %bb5, %bb4
  %cleanuppad = cleanuppad within none []
  br label %bb7

funclet_bb32:                                     ; preds = %bb33, %bb12, %bb39, %bb18, %bb17
  %cleanuppad1 = cleanuppad within none []
  br label %bb32

funclet_bb33:                                     ; preds = %bb20
  %cleanuppad2 = cleanuppad within none []
  br label %bb33

funclet_bb39:                                     ; preds = %bb14
  %cleanuppad3 = cleanuppad within none []
  br label %bb39

bb29_cleanup_trampoline_bb7:                      ; preds = %bb29
  cleanupret from %cleanuppad1 unwind label %funclet_bb7
}

; <core::result::Result<T, E>>::unwrap
; Function Attrs: inlinehint uwtable
define internal void @"_ZN47_$LT$core..result..Result$LT$T$C$$u20$E$GT$$GT$6unwrap17h940069913812f927E"(%"core::result::Result<(), std::io::error::Error>"* noalias nocapture dereferenceable(24) %self) unnamed_addr #0 personality i32 (...)* @__CxxFrameHandler3 !dbg !899 {
start:
  %_8 = alloca %"std::io::error::Error", !dbg !906
  %e = alloca %"std::io::error::Error", !dbg !906
  %t = alloca {}, !dbg !906
  call void @llvm.dbg.declare(metadata %"core::result::Result<(), std::io::error::Error>"* %self, metadata !907, metadata !613), !dbg !906
  call void @llvm.dbg.declare(metadata {}* %t, metadata !908, metadata !165), !dbg !910
  call void @llvm.dbg.declare(metadata %"std::io::error::Error"* %e, metadata !911, metadata !165), !dbg !913
  %0 = getelementptr inbounds %"core::result::Result<(), std::io::error::Error>", %"core::result::Result<(), std::io::error::Error>"* %self, i32 0, i32 0, !dbg !914
  %1 = load i64, i64* %0, !dbg !914, !range !618
  switch i64 %1, label %bb1 [
    i64 0, label %bb2
    i64 1, label %bb3
  ], !dbg !914

bb1:                                              ; preds = %start
  unreachable, !dbg !915

bb2:                                              ; preds = %start
  %2 = bitcast %"core::result::Result<(), std::io::error::Error>"* %self to { i64, [0 x i8], {}, [0 x i8] }*, !dbg !914
  %3 = getelementptr inbounds { i64, [0 x i8], {}, [0 x i8] }, { i64, [0 x i8], {}, [0 x i8] }* %2, i32 0, i32 2, !dbg !914
  %4 = getelementptr inbounds %"core::result::Result<(), std::io::error::Error>", %"core::result::Result<(), std::io::error::Error>"* %self, i32 0, i32 0, !dbg !915
  %5 = load i64, i64* %4, !dbg !915, !range !618
  switch i64 %5, label %bb8 [
    i64 0, label %bb7
  ], !dbg !915

bb3:                                              ; preds = %start
  %6 = bitcast %"core::result::Result<(), std::io::error::Error>"* %self to { i64, [0 x i8], %"std::io::error::Error", [0 x i8] }*, !dbg !913
  %7 = getelementptr inbounds { i64, [0 x i8], %"std::io::error::Error", [0 x i8] }, { i64, [0 x i8], %"std::io::error::Error", [0 x i8] }* %6, i32 0, i32 2, !dbg !913
  %8 = bitcast %"std::io::error::Error"* %7 to i8*, !dbg !913
  %9 = bitcast %"std::io::error::Error"* %e to i8*, !dbg !913
  call void @llvm.memcpy.p0i8.p0i8.i64(i8* %9, i8* %8, i64 16, i32 8, i1 false), !dbg !913
  %10 = bitcast %"std::io::error::Error"* %e to i8*, !dbg !913
  %11 = bitcast %"std::io::error::Error"* %_8 to i8*, !dbg !913
  call void @llvm.memcpy.p0i8.p0i8.i64(i8* %11, i8* %10, i64 16, i32 8, i1 false), !dbg !913
; invoke core::result::unwrap_failed
  invoke void @_ZN4core6result13unwrap_failed17h04189389979af204E(i8* noalias nonnull readonly getelementptr inbounds ([43 x i8], [43 x i8]* @str.d, i32 0, i32 0), i64 43, %"std::io::error::Error"* noalias nocapture dereferenceable(16) %_8)
          to label %unreachable unwind label %funclet_bb6, !dbg !913

bb4:                                              ; preds = %bb5, %bb6
  cleanupret from %cleanuppad unwind to caller, !dbg !916

bb5:                                              ; preds = %bb6
  br label %bb4, !dbg !915

bb6:                                              ; preds = %funclet_bb6
  %12 = getelementptr inbounds %"core::result::Result<(), std::io::error::Error>", %"core::result::Result<(), std::io::error::Error>"* %self, i32 0, i32 0, !dbg !915
  %13 = load i64, i64* %12, !dbg !915, !range !618
  switch i64 %13, label %bb4 [
    i64 0, label %bb5
  ], !dbg !915

bb7:                                              ; preds = %bb8, %bb2
  ret void, !dbg !915

bb8:                                              ; preds = %bb2
  %14 = bitcast %"core::result::Result<(), std::io::error::Error>"* %self to { i64, [0 x i8], %"std::io::error::Error", [0 x i8] }*, !dbg !915
  %15 = getelementptr inbounds { i64, [0 x i8], %"std::io::error::Error", [0 x i8] }, { i64, [0 x i8], %"std::io::error::Error", [0 x i8] }* %14, i32 0, i32 2, !dbg !915
; call core::ptr::drop_in_place
  call void @_ZN4core3ptr13drop_in_place17haab759829a9a98e1E(%"std::io::error::Error"* %15), !dbg !915
  br label %bb7, !dbg !915

funclet_bb6:                                      ; preds = %bb3
  %cleanuppad = cleanuppad within none []
  br label %bb6

unreachable:                                      ; preds = %bb3
  unreachable
}

; <u8 as alloc::vec::SpecFromElem>::from_elem
; Function Attrs: inlinehint uwtable
define internal void @"_ZN47_$LT$u8$u20$as$u20$alloc..vec..SpecFromElem$GT$9from_elem17h376eb0ff8f6b136eE"(%"alloc::vec::Vec<u8>"* noalias nocapture sret dereferenceable(24), i8, i64) unnamed_addr #0 personality i32 (...)* @__CxxFrameHandler3 !dbg !917 {
start:
  %_21 = alloca %"alloc::vec::Vec<u8>"
  %v = alloca %"alloc::vec::Vec<u8>"
  %_6 = alloca %"alloc::raw_vec::RawVec<u8, alloc::heap::Heap>"
  %n = alloca i64
  %elem = alloca i8
  store i8 %1, i8* %elem
  call void @llvm.dbg.declare(metadata i8* %elem, metadata !920, metadata !165), !dbg !921
  store i64 %2, i64* %n
  call void @llvm.dbg.declare(metadata i64* %n, metadata !922, metadata !165), !dbg !921
  call void @llvm.dbg.declare(metadata %"alloc::vec::Vec<u8>"* %v, metadata !923, metadata !165), !dbg !926
  %3 = load i8, i8* %elem, !dbg !927
  %4 = icmp eq i8 %3, 0, !dbg !927
  br i1 %4, label %bb1, label %bb2, !dbg !927

bb1:                                              ; preds = %start
  %5 = load i64, i64* %n, !dbg !928
; call <alloc::raw_vec::RawVec<T>>::with_capacity_zeroed
  call void @"_ZN40_$LT$alloc..raw_vec..RawVec$LT$T$GT$$GT$20with_capacity_zeroed17h7a6fb3c64370fb1dE"(%"alloc::raw_vec::RawVec<u8, alloc::heap::Heap>"* noalias nocapture sret dereferenceable(16) %_6, i64 %5), !dbg !928
  br label %bb3, !dbg !928

bb2:                                              ; preds = %start
  %6 = load i64, i64* %n, !dbg !926
; call <alloc::vec::Vec<T>>::with_capacity
  call void @"_ZN33_$LT$alloc..vec..Vec$LT$T$GT$$GT$13with_capacity17hd50efc3e926c5010E"(%"alloc::vec::Vec<u8>"* noalias nocapture sret dereferenceable(24) %v, i64 %6), !dbg !926
  br label %bb5, !dbg !926

bb3:                                              ; preds = %bb1
  %7 = load i64, i64* %n, !dbg !929
  %8 = getelementptr inbounds %"alloc::vec::Vec<u8>", %"alloc::vec::Vec<u8>"* %0, i32 0, i32 0, !dbg !930
  %9 = bitcast %"alloc::raw_vec::RawVec<u8, alloc::heap::Heap>"* %_6 to i8*, !dbg !930
  %10 = bitcast %"alloc::raw_vec::RawVec<u8, alloc::heap::Heap>"* %8 to i8*, !dbg !930
  call void @llvm.memcpy.p0i8.p0i8.i64(i8* %10, i8* %9, i64 16, i32 8, i1 false), !dbg !930
  %11 = getelementptr inbounds %"alloc::vec::Vec<u8>", %"alloc::vec::Vec<u8>"* %0, i32 0, i32 2, !dbg !930
  store i64 %7, i64* %11, !dbg !930
  br label %bb4, !dbg !930

bb4:                                              ; preds = %bb11, %bb3
  ret void, !dbg !931

bb5:                                              ; preds = %bb2
; invoke <alloc::vec::Vec<T> as core::ops::deref::DerefMut>::deref_mut
  %12 = invoke { i8*, i64 } @"_ZN71_$LT$alloc..vec..Vec$LT$T$GT$$u20$as$u20$core..ops..deref..DerefMut$GT$9deref_mut17he76617dae7e17b91E"(%"alloc::vec::Vec<u8>"* dereferenceable(24) %v)
          to label %bb6 unwind label %funclet_bb8, !dbg !932

bb6:                                              ; preds = %bb5
  %13 = extractvalue { i8*, i64 } %12, 0, !dbg !932
  %14 = extractvalue { i8*, i64 } %12, 1, !dbg !932
; invoke alloc::slice::<impl [T]>::as_mut_ptr
  %15 = invoke i8* @"_ZN5alloc5slice29_$LT$impl$u20$$u5b$T$u5d$$GT$10as_mut_ptr17ha22dccb560b274deE"(i8* nonnull %13, i64 %14)
          to label %bb9 unwind label %funclet_bb8, !dbg !932

bb7:                                              ; preds = %bb8
  cleanupret from %cleanuppad unwind to caller, !dbg !933

bb8:                                              ; preds = %funclet_bb8
; call core::ptr::drop_in_place
  call void @_ZN4core3ptr13drop_in_place17h227cbf47de50b823E(%"alloc::vec::Vec<u8>"* %v) #12 [ "funclet"(token %cleanuppad) ], !dbg !934
  br label %bb7, !dbg !934

bb9:                                              ; preds = %bb6
  %16 = load i8, i8* %elem, !dbg !932
  %17 = load i64, i64* %n, !dbg !932
  %18 = mul i64 1, %17, !dbg !932
  call void @llvm.memset.p0i8.i64(i8* %15, i8 %16, i64 %18, i32 1, i1 false), !dbg !932
  br label %bb10, !dbg !932

bb10:                                             ; preds = %bb9
  %19 = load i64, i64* %n, !dbg !935
; invoke <alloc::vec::Vec<T>>::set_len
  invoke void @"_ZN33_$LT$alloc..vec..Vec$LT$T$GT$$GT$7set_len17he09cd3aa6b5ec6b2E"(%"alloc::vec::Vec<u8>"* dereferenceable(24) %v, i64 %19)
          to label %bb11 unwind label %funclet_bb8, !dbg !935

bb11:                                             ; preds = %bb10
  %20 = bitcast %"alloc::vec::Vec<u8>"* %v to i8*, !dbg !936
  %21 = bitcast %"alloc::vec::Vec<u8>"* %_21 to i8*, !dbg !936
  call void @llvm.memcpy.p0i8.p0i8.i64(i8* %21, i8* %20, i64 24, i32 8, i1 false), !dbg !936
  %22 = bitcast %"alloc::vec::Vec<u8>"* %_21 to i8*, !dbg !936
  %23 = bitcast %"alloc::vec::Vec<u8>"* %0 to i8*, !dbg !936
  call void @llvm.memcpy.p0i8.p0i8.i64(i8* %23, i8* %22, i64 24, i32 8, i1 false), !dbg !936
  br label %bb4, !dbg !931

funclet_bb8:                                      ; preds = %bb10, %bb6, %bb5
  %cleanuppad = cleanuppad within none []
  br label %bb8
}

; <alloc::raw_vec::RawVec<T, A>>::allocate_in
; Function Attrs: uwtable
define internal void @"_ZN49_$LT$alloc..raw_vec..RawVec$LT$T$C$$u20$A$GT$$GT$11allocate_in17h2f4df83b6f50df90E"(%"alloc::raw_vec::RawVec<u8, alloc::heap::Heap>"* noalias nocapture sret dereferenceable(16), i64, i1 zeroext) unnamed_addr #1 personality i32 (...)* @__CxxFrameHandler3 !dbg !937 {
start:
  %abi_cast = alloca i64
  %arg3 = alloca %"alloc::allocator::Layout"
  %tmp_ret2 = alloca %"alloc::allocator::Layout"
  %arg = alloca %"alloc::allocator::Layout"
  %tmp_ret = alloca %"alloc::allocator::Layout"
  %_36 = alloca %"core::ptr::Unique<u8>"
  %_35 = alloca %"alloc::allocator::AllocErr"
  %err = alloca %"alloc::allocator::AllocErr"
  %ptr1 = alloca i8*
  %_27 = alloca %"core::option::Option<alloc::allocator::Layout>"
  %_22 = alloca %"core::option::Option<alloc::allocator::Layout>"
  %result = alloca %"core::result::Result<*mut u8, alloc::allocator::AllocErr>"
  %align = alloca i64
  %ptr = alloca i8*
  %_6 = alloca %"core::option::Option<usize>"
  %alloc_size = alloca i64
  %elem_size = alloca i64
  %a = alloca %"alloc::heap::Heap"
  %zeroed = alloca i8
  %cap = alloca i64
  store i64 %1, i64* %cap
  call void @llvm.dbg.declare(metadata i64* %cap, metadata !942, metadata !165), !dbg !943
  %3 = zext i1 %2 to i8
  store i8 %3, i8* %zeroed
  call void @llvm.dbg.declare(metadata i8* %zeroed, metadata !944, metadata !165), !dbg !943
  call void @llvm.dbg.declare(metadata %"alloc::heap::Heap"* %a, metadata !945, metadata !165), !dbg !943
  call void @llvm.dbg.declare(metadata i64* %elem_size, metadata !946, metadata !165), !dbg !949
  call void @llvm.dbg.declare(metadata i64* %alloc_size, metadata !950, metadata !165), !dbg !952
  call void @llvm.dbg.declare(metadata i8** %ptr, metadata !953, metadata !165), !dbg !955
  call void @llvm.dbg.declare(metadata i64* %align, metadata !956, metadata !165), !dbg !958
  call void @llvm.dbg.declare(metadata %"core::result::Result<*mut u8, alloc::allocator::AllocErr>"* %result, metadata !959, metadata !165), !dbg !973
  call void @llvm.dbg.declare(metadata i8** %ptr1, metadata !974, metadata !165), !dbg !976
  call void @llvm.dbg.declare(metadata %"alloc::allocator::AllocErr"* %err, metadata !977, metadata !165), !dbg !979
; invoke core::mem::size_of
  %4 = invoke i64 @_ZN4core3mem7size_of17h976769d29f21fbf5E()
          to label %bb1 unwind label %funclet_bb3, !dbg !949

bb1:                                              ; preds = %start
  store i64 %4, i64* %elem_size, !dbg !949
  %5 = load i64, i64* %cap, !dbg !952
  %6 = load i64, i64* %elem_size, !dbg !952
; invoke core::num::<impl usize>::checked_mul
  invoke void @"_ZN4core3num23_$LT$impl$u20$usize$GT$11checked_mul17h6b6a9ad96be17a79E"(%"core::option::Option<usize>"* noalias nocapture sret dereferenceable(16) %_6, i64 %5, i64 %6)
          to label %bb4 unwind label %funclet_bb3, !dbg !952

bb2:                                              ; preds = %bb3
  cleanupret from %cleanuppad unwind to caller, !dbg !980

bb3:                                              ; preds = %funclet_bb3
  br label %bb2, !dbg !981

bb4:                                              ; preds = %bb1
; invoke <core::option::Option<T>>::expect
  %7 = invoke i64 @"_ZN38_$LT$core..option..Option$LT$T$GT$$GT$6expect17h5e08fe806b7c1d03E"(%"core::option::Option<usize>"* noalias nocapture dereferenceable(16) %_6, i8* noalias nonnull readonly getelementptr inbounds ([17 x i8], [17 x i8]* @str.e, i32 0, i32 0), i64 17)
          to label %bb5 unwind label %funclet_bb3, !dbg !952

bb5:                                              ; preds = %bb4
  store i64 %7, i64* %alloc_size, !dbg !952
  %8 = load i64, i64* %alloc_size, !dbg !982
; invoke alloc::raw_vec::alloc_guard
  invoke void @_ZN5alloc7raw_vec11alloc_guard17h189b925766b90276E(i64 %8)
          to label %bb6 unwind label %funclet_bb3, !dbg !982

bb6:                                              ; preds = %bb5
  %9 = load i64, i64* %alloc_size, !dbg !955
  %10 = icmp eq i64 %9, 0, !dbg !955
  br i1 %10, label %bb7, label %bb8, !dbg !955

bb7:                                              ; preds = %bb6
; invoke core::mem::align_of
  %11 = invoke i64 @_ZN4core3mem8align_of17he967146f9075b9b1E()
          to label %bb9 unwind label %funclet_bb3, !dbg !983

bb8:                                              ; preds = %bb6
; invoke core::mem::align_of
  %12 = invoke i64 @_ZN4core3mem8align_of17he967146f9075b9b1E()
          to label %bb10 unwind label %funclet_bb3, !dbg !958

bb9:                                              ; preds = %bb7
  %13 = inttoptr i64 %11 to i8*, !dbg !983
  store i8* %13, i8** %ptr, !dbg !983
  br label %bb23, !dbg !955

bb10:                                             ; preds = %bb8
  store i64 %12, i64* %align, !dbg !958
  %14 = load i8, i8* %zeroed, !dbg !973, !range !569
  %15 = trunc i8 %14 to i1, !dbg !973
  br i1 %15, label %bb11, label %bb12, !dbg !973

bb11:                                             ; preds = %bb10
  %16 = load i64, i64* %alloc_size, !dbg !984
  %17 = load i64, i64* %align, !dbg !984
; invoke alloc::allocator::Layout::from_size_align
  invoke void @_ZN5alloc9allocator6Layout15from_size_align17hbce9503e29168436E(%"core::option::Option<alloc::allocator::Layout>"* noalias nocapture sret dereferenceable(24) %_22, i64 %16, i64 %17)
          to label %bb13 unwind label %funclet_bb3, !dbg !984

bb12:                                             ; preds = %bb10
  %18 = load i64, i64* %alloc_size, !dbg !985
  %19 = load i64, i64* %align, !dbg !985
; invoke alloc::allocator::Layout::from_size_align
  invoke void @_ZN5alloc9allocator6Layout15from_size_align17hbce9503e29168436E(%"core::option::Option<alloc::allocator::Layout>"* noalias nocapture sret dereferenceable(24) %_27, i64 %18, i64 %19)
          to label %bb16 unwind label %funclet_bb3, !dbg !985

bb13:                                             ; preds = %bb11
; invoke <core::option::Option<T>>::unwrap
  invoke void @"_ZN38_$LT$core..option..Option$LT$T$GT$$GT$6unwrap17hf172bcf7a337fb58E"(%"alloc::allocator::Layout"* noalias nocapture sret dereferenceable(16) %tmp_ret, %"core::option::Option<alloc::allocator::Layout>"* noalias nocapture dereferenceable(24) %_22)
          to label %bb14 unwind label %funclet_bb3, !dbg !984

bb14:                                             ; preds = %bb13
  %20 = getelementptr inbounds %"alloc::allocator::Layout", %"alloc::allocator::Layout"* %tmp_ret, i32 0, i32 0, !dbg !984
  %21 = getelementptr inbounds %"alloc::allocator::Layout", %"alloc::allocator::Layout"* %tmp_ret, i32 0, i32 2, !dbg !984
  %22 = load i64, i64* %20, !dbg !984
  %23 = load i64, i64* %21, !dbg !984
  %24 = getelementptr inbounds %"alloc::allocator::Layout", %"alloc::allocator::Layout"* %arg, i32 0, i32 0, !dbg !984
  store i64 %22, i64* %24, !dbg !984
  %25 = getelementptr inbounds %"alloc::allocator::Layout", %"alloc::allocator::Layout"* %arg, i32 0, i32 2, !dbg !984
  store i64 %23, i64* %25, !dbg !984
; invoke <alloc::heap::Heap as alloc::allocator::Alloc>::alloc_zeroed
  invoke void @"_ZN61_$LT$alloc..heap..Heap$u20$as$u20$alloc..allocator..Alloc$GT$12alloc_zeroed17h85203201669aa299E"(%"core::result::Result<*mut u8, alloc::allocator::AllocErr>"* noalias nocapture sret dereferenceable(32) %result, %"alloc::heap::Heap"* %a, %"alloc::allocator::Layout"* noalias nocapture dereferenceable(16) %arg)
          to label %bb15 unwind label %funclet_bb3, !dbg !984

bb15:                                             ; preds = %bb14
  br label %bb19, !dbg !973

bb16:                                             ; preds = %bb12
; invoke <core::option::Option<T>>::unwrap
  invoke void @"_ZN38_$LT$core..option..Option$LT$T$GT$$GT$6unwrap17hf172bcf7a337fb58E"(%"alloc::allocator::Layout"* noalias nocapture sret dereferenceable(16) %tmp_ret2, %"core::option::Option<alloc::allocator::Layout>"* noalias nocapture dereferenceable(24) %_27)
          to label %bb17 unwind label %funclet_bb3, !dbg !985

bb17:                                             ; preds = %bb16
  %26 = getelementptr inbounds %"alloc::allocator::Layout", %"alloc::allocator::Layout"* %tmp_ret2, i32 0, i32 0, !dbg !985
  %27 = getelementptr inbounds %"alloc::allocator::Layout", %"alloc::allocator::Layout"* %tmp_ret2, i32 0, i32 2, !dbg !985
  %28 = load i64, i64* %26, !dbg !985
  %29 = load i64, i64* %27, !dbg !985
  %30 = getelementptr inbounds %"alloc::allocator::Layout", %"alloc::allocator::Layout"* %arg3, i32 0, i32 0, !dbg !985
  store i64 %28, i64* %30, !dbg !985
  %31 = getelementptr inbounds %"alloc::allocator::Layout", %"alloc::allocator::Layout"* %arg3, i32 0, i32 2, !dbg !985
  store i64 %29, i64* %31, !dbg !985
; invoke <alloc::heap::Heap as alloc::allocator::Alloc>::alloc
  invoke void @"_ZN61_$LT$alloc..heap..Heap$u20$as$u20$alloc..allocator..Alloc$GT$5alloc17he41dc22ad406dafdE"(%"core::result::Result<*mut u8, alloc::allocator::AllocErr>"* noalias nocapture sret dereferenceable(32) %result, %"alloc::heap::Heap"* %a, %"alloc::allocator::Layout"* noalias nocapture dereferenceable(16) %arg3)
          to label %bb18 unwind label %funclet_bb3, !dbg !985

bb18:                                             ; preds = %bb17
  br label %bb19, !dbg !973

bb19:                                             ; preds = %bb18, %bb15
  %32 = getelementptr inbounds %"core::result::Result<*mut u8, alloc::allocator::AllocErr>", %"core::result::Result<*mut u8, alloc::allocator::AllocErr>"* %result, i32 0, i32 0, !dbg !986
  %33 = load i64, i64* %32, !dbg !986, !range !618
  switch i64 %33, label %bb20 [
    i64 0, label %bb21
    i64 1, label %bb22
  ], !dbg !986

bb20:                                             ; preds = %bb19
  unreachable, !dbg !981

bb21:                                             ; preds = %bb19
  %34 = bitcast %"core::result::Result<*mut u8, alloc::allocator::AllocErr>"* %result to { i64, [0 x i8], i8*, [0 x i8] }*, !dbg !986
  %35 = getelementptr inbounds { i64, [0 x i8], i8*, [0 x i8] }, { i64, [0 x i8], i8*, [0 x i8] }* %34, i32 0, i32 2, !dbg !986
  %36 = load i8*, i8** %35, !dbg !986
  store i8* %36, i8** %ptr1, !dbg !986
  %37 = load i8*, i8** %ptr1, !dbg !976
  store i8* %37, i8** %ptr, !dbg !976
  br label %bb23, !dbg !955

bb22:                                             ; preds = %bb19
  %38 = bitcast %"core::result::Result<*mut u8, alloc::allocator::AllocErr>"* %result to { i64, [0 x i8], %"alloc::allocator::AllocErr", [0 x i8] }*, !dbg !979
  %39 = getelementptr inbounds { i64, [0 x i8], %"alloc::allocator::AllocErr", [0 x i8] }, { i64, [0 x i8], %"alloc::allocator::AllocErr", [0 x i8] }* %38, i32 0, i32 2, !dbg !979
  %40 = bitcast %"alloc::allocator::AllocErr"* %39 to i8*, !dbg !979
  %41 = bitcast %"alloc::allocator::AllocErr"* %err to i8*, !dbg !979
  call void @llvm.memcpy.p0i8.p0i8.i64(i8* %41, i8* %40, i64 24, i32 8, i1 false), !dbg !979
  %42 = bitcast %"alloc::allocator::AllocErr"* %err to i8*, !dbg !979
  %43 = bitcast %"alloc::allocator::AllocErr"* %_35 to i8*, !dbg !979
  call void @llvm.memcpy.p0i8.p0i8.i64(i8* %43, i8* %42, i64 24, i32 8, i1 false), !dbg !979
; invoke <alloc::heap::Heap as alloc::allocator::Alloc>::oom
  invoke void @"_ZN61_$LT$alloc..heap..Heap$u20$as$u20$alloc..allocator..Alloc$GT$3oom17h39f10fefe4dcd2c2E"(%"alloc::heap::Heap"* %a, %"alloc::allocator::AllocErr"* noalias nocapture dereferenceable(24) %_35)
          to label %unreachable unwind label %funclet_bb3, !dbg !979

bb23:                                             ; preds = %bb21, %bb9
  %44 = load i8*, i8** %ptr, !dbg !987
; invoke <core::ptr::Unique<T>>::new_unchecked
  %45 = invoke i64 @"_ZN35_$LT$core..ptr..Unique$LT$T$GT$$GT$13new_unchecked17ha50b82d70fac72bcE"(i8* %44)
          to label %bb24 unwind label %funclet_bb3, !dbg !987

bb24:                                             ; preds = %bb23
  store i64 %45, i64* %abi_cast, !dbg !987
  %46 = bitcast %"core::ptr::Unique<u8>"* %_36 to i8*, !dbg !987
  %47 = bitcast i64* %abi_cast to i8*, !dbg !987
  call void @llvm.memcpy.p0i8.p0i8.i64(i8* %46, i8* %47, i64 8, i32 8, i1 false), !dbg !987
  %48 = load i64, i64* %cap, !dbg !988
  %49 = getelementptr inbounds %"alloc::raw_vec::RawVec<u8, alloc::heap::Heap>", %"alloc::raw_vec::RawVec<u8, alloc::heap::Heap>"* %0, i32 0, i32 0, !dbg !989
  %50 = bitcast %"core::ptr::Unique<u8>"* %_36 to i8*, !dbg !989
  %51 = bitcast %"core::ptr::Unique<u8>"* %49 to i8*, !dbg !989
  call void @llvm.memcpy.p0i8.p0i8.i64(i8* %51, i8* %50, i64 8, i32 8, i1 false), !dbg !989
  %52 = getelementptr inbounds %"alloc::raw_vec::RawVec<u8, alloc::heap::Heap>", %"alloc::raw_vec::RawVec<u8, alloc::heap::Heap>"* %0, i32 0, i32 2, !dbg !989
  store i64 %48, i64* %52, !dbg !989
  ret void, !dbg !981

funclet_bb3:                                      ; preds = %bb23, %bb22, %bb17, %bb16, %bb12, %bb14, %bb13, %bb11, %bb8, %bb7, %bb5, %bb4, %bb1, %start
  %cleanuppad = cleanuppad within none []
  br label %bb3

unreachable:                                      ; preds = %bb22
  unreachable
}

; <alloc::raw_vec::RawVec<T, A>>::current_layout
; Function Attrs: uwtable
define internal void @"_ZN49_$LT$alloc..raw_vec..RawVec$LT$T$C$$u20$A$GT$$GT$14current_layout17h9e5665c4a56e2387E"(%"core::option::Option<alloc::allocator::Layout>"* noalias nocapture sret dereferenceable(24), %"alloc::raw_vec::RawVec<u8, alloc::heap::Heap>"* noalias readonly dereferenceable(16)) unnamed_addr #1 !dbg !990 {
start:
  %tmp_ret = alloca %"alloc::allocator::Layout"
  %size = alloca i64
  %align = alloca i64
  %self = alloca %"alloc::raw_vec::RawVec<u8, alloc::heap::Heap>"*
  store %"alloc::raw_vec::RawVec<u8, alloc::heap::Heap>"* %1, %"alloc::raw_vec::RawVec<u8, alloc::heap::Heap>"** %self
  call void @llvm.dbg.declare(metadata %"alloc::raw_vec::RawVec<u8, alloc::heap::Heap>"** %self, metadata !994, metadata !165), !dbg !995
  call void @llvm.dbg.declare(metadata i64* %align, metadata !996, metadata !165), !dbg !999
  call void @llvm.dbg.declare(metadata i64* %size, metadata !1000, metadata !165), !dbg !1002
  %2 = load %"alloc::raw_vec::RawVec<u8, alloc::heap::Heap>"*, %"alloc::raw_vec::RawVec<u8, alloc::heap::Heap>"** %self, !dbg !1003, !nonnull !162
  %3 = getelementptr inbounds %"alloc::raw_vec::RawVec<u8, alloc::heap::Heap>", %"alloc::raw_vec::RawVec<u8, alloc::heap::Heap>"* %2, i32 0, i32 2, !dbg !1003
  %4 = load i64, i64* %3, !dbg !1003
  %5 = icmp eq i64 %4, 0, !dbg !1003
  br i1 %5, label %bb1, label %bb2, !dbg !1003

bb1:                                              ; preds = %start
  %6 = getelementptr inbounds %"core::option::Option<alloc::allocator::Layout>", %"core::option::Option<alloc::allocator::Layout>"* %0, i32 0, i32 0, !dbg !1004
  store i64 0, i64* %6, !dbg !1004
  br label %bb6, !dbg !1003

bb2:                                              ; preds = %start
; call core::mem::align_of
  %7 = call i64 @_ZN4core3mem8align_of17he967146f9075b9b1E(), !dbg !999
  store i64 %7, i64* %align, !dbg !999
  br label %bb3, !dbg !999

bb3:                                              ; preds = %bb2
; call core::mem::size_of
  %8 = call i64 @_ZN4core3mem7size_of17h976769d29f21fbf5E(), !dbg !1002
  br label %bb4, !dbg !1002

bb4:                                              ; preds = %bb3
  %9 = load %"alloc::raw_vec::RawVec<u8, alloc::heap::Heap>"*, %"alloc::raw_vec::RawVec<u8, alloc::heap::Heap>"** %self, !dbg !1002, !nonnull !162
  %10 = getelementptr inbounds %"alloc::raw_vec::RawVec<u8, alloc::heap::Heap>", %"alloc::raw_vec::RawVec<u8, alloc::heap::Heap>"* %9, i32 0, i32 2, !dbg !1002
  %11 = load i64, i64* %10, !dbg !1002
  %12 = mul i64 %8, %11, !dbg !1002
  store i64 %12, i64* %size, !dbg !1002
  %13 = load i64, i64* %size, !dbg !1005
  %14 = load i64, i64* %align, !dbg !1005
; call alloc::allocator::Layout::from_size_align_unchecked
  call void @_ZN5alloc9allocator6Layout25from_size_align_unchecked17heb426d857432c697E(%"alloc::allocator::Layout"* noalias nocapture sret dereferenceable(16) %tmp_ret, i64 %13, i64 %14), !dbg !1005
  %15 = getelementptr inbounds %"alloc::allocator::Layout", %"alloc::allocator::Layout"* %tmp_ret, i32 0, i32 0, !dbg !1005
  %16 = getelementptr inbounds %"alloc::allocator::Layout", %"alloc::allocator::Layout"* %tmp_ret, i32 0, i32 2, !dbg !1005
  %17 = load i64, i64* %15, !dbg !1005
  %18 = load i64, i64* %16, !dbg !1005
  br label %bb5, !dbg !1005

bb5:                                              ; preds = %bb4
  %19 = getelementptr inbounds %"core::option::Option<alloc::allocator::Layout>", %"core::option::Option<alloc::allocator::Layout>"* %0, i32 0, i32 0, !dbg !1005
  store i64 1, i64* %19, !dbg !1005
  %20 = bitcast %"core::option::Option<alloc::allocator::Layout>"* %0 to { i64, [0 x i8], %"alloc::allocator::Layout", [0 x i8] }*, !dbg !1005
  %21 = getelementptr inbounds { i64, [0 x i8], %"alloc::allocator::Layout", [0 x i8] }, { i64, [0 x i8], %"alloc::allocator::Layout", [0 x i8] }* %20, i32 0, i32 2, !dbg !1005
  %22 = getelementptr inbounds %"alloc::allocator::Layout", %"alloc::allocator::Layout"* %21, i32 0, i32 0, !dbg !1005
  store i64 %17, i64* %22, !dbg !1005
  %23 = getelementptr inbounds %"alloc::allocator::Layout", %"alloc::allocator::Layout"* %21, i32 0, i32 2, !dbg !1005
  store i64 %18, i64* %23, !dbg !1005
  br label %bb6, !dbg !1003

bb6:                                              ; preds = %bb5, %bb1
  ret void, !dbg !1006
}

; <alloc::raw_vec::RawVec<T, A>>::dealloc_buffer
; Function Attrs: uwtable
define internal void @"_ZN49_$LT$alloc..raw_vec..RawVec$LT$T$C$$u20$A$GT$$GT$14dealloc_buffer17h3332cd294e603556E"(%"alloc::raw_vec::RawVec<u8, alloc::heap::Heap>"* dereferenceable(16)) unnamed_addr #1 !dbg !1007 {
start:
  %arg = alloca %"alloc::allocator::Layout"
  %ptr = alloca i8*
  %layout = alloca %"alloc::allocator::Layout"
  %_5 = alloca %"core::option::Option<alloc::allocator::Layout>"
  %elem_size = alloca i64
  %_0 = alloca {}
  %self = alloca %"alloc::raw_vec::RawVec<u8, alloc::heap::Heap>"*
  store %"alloc::raw_vec::RawVec<u8, alloc::heap::Heap>"* %0, %"alloc::raw_vec::RawVec<u8, alloc::heap::Heap>"** %self
  call void @llvm.dbg.declare(metadata %"alloc::raw_vec::RawVec<u8, alloc::heap::Heap>"** %self, metadata !1011, metadata !165), !dbg !1012
  call void @llvm.dbg.declare(metadata i64* %elem_size, metadata !1013, metadata !165), !dbg !1015
  call void @llvm.dbg.declare(metadata %"alloc::allocator::Layout"* %layout, metadata !1016, metadata !165), !dbg !1018
  call void @llvm.dbg.declare(metadata i8** %ptr, metadata !1019, metadata !165), !dbg !1021
; call core::mem::size_of
  %1 = call i64 @_ZN4core3mem7size_of17h976769d29f21fbf5E(), !dbg !1015
  store i64 %1, i64* %elem_size, !dbg !1015
  br label %bb1, !dbg !1015

bb1:                                              ; preds = %start
  %2 = load i64, i64* %elem_size, !dbg !1022
  %3 = icmp ne i64 %2, 0, !dbg !1022
  br i1 %3, label %bb2, label %bb3, !dbg !1022

bb2:                                              ; preds = %bb1
  %4 = load %"alloc::raw_vec::RawVec<u8, alloc::heap::Heap>"*, %"alloc::raw_vec::RawVec<u8, alloc::heap::Heap>"** %self, !dbg !1023, !nonnull !162
; call <alloc::raw_vec::RawVec<T, A>>::current_layout
  call void @"_ZN49_$LT$alloc..raw_vec..RawVec$LT$T$C$$u20$A$GT$$GT$14current_layout17h9e5665c4a56e2387E"(%"core::option::Option<alloc::allocator::Layout>"* noalias nocapture sret dereferenceable(24) %_5, %"alloc::raw_vec::RawVec<u8, alloc::heap::Heap>"* noalias readonly dereferenceable(16) %4), !dbg !1023
  br label %bb4, !dbg !1023

bb3:                                              ; preds = %bb1
  br label %bb10, !dbg !1022

bb4:                                              ; preds = %bb2
  %5 = getelementptr inbounds %"core::option::Option<alloc::allocator::Layout>", %"core::option::Option<alloc::allocator::Layout>"* %_5, i32 0, i32 0, !dbg !1018
  %6 = load i64, i64* %5, !dbg !1018, !range !618
  switch i64 %6, label %bb5 [
    i64 1, label %bb6
  ], !dbg !1018

bb5:                                              ; preds = %bb4
  br label %bb7, !dbg !1018

bb6:                                              ; preds = %bb4
  %7 = bitcast %"core::option::Option<alloc::allocator::Layout>"* %_5 to { i64, [0 x i8], %"alloc::allocator::Layout", [0 x i8] }*, !dbg !1018
  %8 = getelementptr inbounds { i64, [0 x i8], %"alloc::allocator::Layout", [0 x i8] }, { i64, [0 x i8], %"alloc::allocator::Layout", [0 x i8] }* %7, i32 0, i32 2, !dbg !1018
  %9 = getelementptr inbounds %"alloc::allocator::Layout", %"alloc::allocator::Layout"* %8, i32 0, i32 0, !dbg !1018
  %10 = getelementptr inbounds %"alloc::allocator::Layout", %"alloc::allocator::Layout"* %8, i32 0, i32 2, !dbg !1018
  %11 = load i64, i64* %9, !dbg !1018
  %12 = load i64, i64* %10, !dbg !1018
  %13 = getelementptr inbounds %"alloc::allocator::Layout", %"alloc::allocator::Layout"* %layout, i32 0, i32 0, !dbg !1018
  store i64 %11, i64* %13, !dbg !1018
  %14 = getelementptr inbounds %"alloc::allocator::Layout", %"alloc::allocator::Layout"* %layout, i32 0, i32 2, !dbg !1018
  store i64 %12, i64* %14, !dbg !1018
  %15 = load %"alloc::raw_vec::RawVec<u8, alloc::heap::Heap>"*, %"alloc::raw_vec::RawVec<u8, alloc::heap::Heap>"** %self, !dbg !1021, !nonnull !162
; call <alloc::raw_vec::RawVec<T, A>>::ptr
  %16 = call i8* @"_ZN49_$LT$alloc..raw_vec..RawVec$LT$T$C$$u20$A$GT$$GT$3ptr17h6a55179f000e356bE"(%"alloc::raw_vec::RawVec<u8, alloc::heap::Heap>"* noalias readonly dereferenceable(16) %15), !dbg !1021
  br label %bb8, !dbg !1021

bb7:                                              ; preds = %bb9, %bb5
  br label %bb10, !dbg !1022

bb8:                                              ; preds = %bb6
  store i8* %16, i8** %ptr, !dbg !1021
  %17 = load %"alloc::raw_vec::RawVec<u8, alloc::heap::Heap>"*, %"alloc::raw_vec::RawVec<u8, alloc::heap::Heap>"** %self, !dbg !1024, !nonnull !162
  %18 = getelementptr inbounds %"alloc::raw_vec::RawVec<u8, alloc::heap::Heap>", %"alloc::raw_vec::RawVec<u8, alloc::heap::Heap>"* %17, i32 0, i32 4, !dbg !1024
  %19 = load i8*, i8** %ptr, !dbg !1024
  %20 = getelementptr inbounds %"alloc::allocator::Layout", %"alloc::allocator::Layout"* %layout, i32 0, i32 0, !dbg !1024
  %21 = getelementptr inbounds %"alloc::allocator::Layout", %"alloc::allocator::Layout"* %layout, i32 0, i32 2, !dbg !1024
  %22 = load i64, i64* %20, !dbg !1024
  %23 = load i64, i64* %21, !dbg !1024
  %24 = getelementptr inbounds %"alloc::allocator::Layout", %"alloc::allocator::Layout"* %arg, i32 0, i32 0, !dbg !1024
  store i64 %22, i64* %24, !dbg !1024
  %25 = getelementptr inbounds %"alloc::allocator::Layout", %"alloc::allocator::Layout"* %arg, i32 0, i32 2, !dbg !1024
  store i64 %23, i64* %25, !dbg !1024
; call <alloc::heap::Heap as alloc::allocator::Alloc>::dealloc
  call void @"_ZN61_$LT$alloc..heap..Heap$u20$as$u20$alloc..allocator..Alloc$GT$7dealloc17h9e2615e0f1b1145aE"(%"alloc::heap::Heap"* %18, i8* %19, %"alloc::allocator::Layout"* noalias nocapture dereferenceable(16) %arg), !dbg !1024
  br label %bb9, !dbg !1024

bb9:                                              ; preds = %bb8
  br label %bb7, !dbg !1018

bb10:                                             ; preds = %bb3, %bb7
  ret void, !dbg !1025
}

; <alloc::raw_vec::RawVec<T, A>>::ptr
; Function Attrs: uwtable
define internal i8* @"_ZN49_$LT$alloc..raw_vec..RawVec$LT$T$C$$u20$A$GT$$GT$3ptr17h6a55179f000e356bE"(%"alloc::raw_vec::RawVec<u8, alloc::heap::Heap>"* noalias readonly dereferenceable(16)) unnamed_addr #1 !dbg !1026 {
start:
  %_2 = alloca %"core::ptr::Unique<u8>"
  %self = alloca %"alloc::raw_vec::RawVec<u8, alloc::heap::Heap>"*
  store %"alloc::raw_vec::RawVec<u8, alloc::heap::Heap>"* %0, %"alloc::raw_vec::RawVec<u8, alloc::heap::Heap>"** %self
  call void @llvm.dbg.declare(metadata %"alloc::raw_vec::RawVec<u8, alloc::heap::Heap>"** %self, metadata !1029, metadata !165), !dbg !1030
  %1 = load %"alloc::raw_vec::RawVec<u8, alloc::heap::Heap>"*, %"alloc::raw_vec::RawVec<u8, alloc::heap::Heap>"** %self, !dbg !1031, !nonnull !162
  %2 = getelementptr inbounds %"alloc::raw_vec::RawVec<u8, alloc::heap::Heap>", %"alloc::raw_vec::RawVec<u8, alloc::heap::Heap>"* %1, i32 0, i32 0, !dbg !1031
  %3 = bitcast %"core::ptr::Unique<u8>"* %2 to i8*, !dbg !1031
  %4 = bitcast %"core::ptr::Unique<u8>"* %_2 to i8*, !dbg !1031
  call void @llvm.memcpy.p0i8.p0i8.i64(i8* %4, i8* %3, i64 8, i32 8, i1 false), !dbg !1031
  %5 = bitcast %"core::ptr::Unique<u8>"* %_2 to i64*, !dbg !1031
  %6 = load i64, i64* %5, align 8, !dbg !1031
; call <core::ptr::Unique<T>>::as_ptr
  %7 = call i8* @"_ZN35_$LT$core..ptr..Unique$LT$T$GT$$GT$6as_ptr17h7edecbb64d0a3cfdE"(i64 %6), !dbg !1031
  br label %bb1, !dbg !1031

bb1:                                              ; preds = %start
  ret i8* %7, !dbg !1032
}

; <isize as core::iter::range::Step>::add_usize
; Function Attrs: inlinehint uwtable
define internal void @"_ZN49_$LT$isize$u20$as$u20$core..iter..range..Step$GT$9add_usize17h6a32e7b82f2cf9bbE"(%"core::option::Option<isize>"* noalias nocapture sret dereferenceable(16), i64* noalias readonly dereferenceable(8), i64) unnamed_addr #0 !dbg !1033 {
start:
  %wrapped = alloca i64
  %n_as_unsigned = alloca i64
  %_3 = alloca %"core::result::Result<usize, core::convert::Infallible>"
  %n = alloca i64
  %self = alloca i64*
  store i64* %1, i64** %self
  call void @llvm.dbg.declare(metadata i64** %self, metadata !1053, metadata !165), !dbg !1054
  store i64 %2, i64* %n
  call void @llvm.dbg.declare(metadata i64* %n, metadata !1055, metadata !165), !dbg !1054
  call void @llvm.dbg.declare(metadata i64* %n_as_unsigned, metadata !1056, metadata !165), !dbg !1058
  call void @llvm.dbg.declare(metadata i64* %wrapped, metadata !1059, metadata !165), !dbg !1061
  %3 = load i64, i64* %n, !dbg !1062
; call <T as core::convert::TryFrom<U>>::try_from
  call void @"_ZN53_$LT$T$u20$as$u20$core..convert..TryFrom$LT$U$GT$$GT$8try_from17hf36fe5924c15a470E"(%"core::result::Result<usize, core::convert::Infallible>"* noalias nocapture sret dereferenceable(16) %_3, i64 %3), !dbg !1062
  br label %bb1, !dbg !1062

bb1:                                              ; preds = %start
  %4 = bitcast %"core::result::Result<usize, core::convert::Infallible>"* %_3 to { i64, [0 x i8], i64, [0 x i8] }*, !dbg !1058
  %5 = getelementptr inbounds { i64, [0 x i8], i64, [0 x i8] }, { i64, [0 x i8], i64, [0 x i8] }* %4, i32 0, i32 2, !dbg !1058
  %6 = load i64, i64* %5, !dbg !1058
  store i64 %6, i64* %n_as_unsigned, !dbg !1058
  %7 = load i64*, i64** %self, !dbg !1061, !nonnull !162
  %8 = load i64, i64* %7, !dbg !1061
  %9 = load i64, i64* %n_as_unsigned, !dbg !1061
; call core::num::<impl usize>::wrapping_add
  %10 = call i64 @"_ZN4core3num23_$LT$impl$u20$usize$GT$12wrapping_add17h3b1287caaad45883E"(i64 %8, i64 %9), !dbg !1061
  br label %bb2, !dbg !1061

bb2:                                              ; preds = %bb1
  store i64 %10, i64* %wrapped, !dbg !1061
  %11 = load i64, i64* %wrapped, !dbg !1063
  %12 = load i64*, i64** %self, !dbg !1063, !nonnull !162
  %13 = load i64, i64* %12, !dbg !1063
  %14 = icmp sge i64 %11, %13, !dbg !1063
  br i1 %14, label %bb3, label %bb4, !dbg !1063

bb3:                                              ; preds = %bb2
  %15 = load i64, i64* %wrapped, !dbg !1064
  %16 = getelementptr inbounds %"core::option::Option<isize>", %"core::option::Option<isize>"* %0, i32 0, i32 0, !dbg !1064
  store i64 1, i64* %16, !dbg !1064
  %17 = bitcast %"core::option::Option<isize>"* %0 to { i64, [0 x i8], i64, [0 x i8] }*, !dbg !1064
  %18 = getelementptr inbounds { i64, [0 x i8], i64, [0 x i8] }, { i64, [0 x i8], i64, [0 x i8] }* %17, i32 0, i32 2, !dbg !1064
  store i64 %15, i64* %18, !dbg !1064
  br label %bb5, !dbg !1063

bb4:                                              ; preds = %bb2
  %19 = getelementptr inbounds %"core::option::Option<isize>", %"core::option::Option<isize>"* %0, i32 0, i32 0, !dbg !1065
  store i64 0, i64* %19, !dbg !1065
  br label %bb5, !dbg !1063

bb5:                                              ; preds = %bb4, %bb3
  ret void, !dbg !1066
}

; <usize as core::iter::range::Step>::add_usize
; Function Attrs: inlinehint uwtable
define internal void @"_ZN49_$LT$usize$u20$as$u20$core..iter..range..Step$GT$9add_usize17ha1c376e32929e939E"(%"core::option::Option<usize>"* noalias nocapture sret dereferenceable(16), i64* noalias readonly dereferenceable(8), i64) unnamed_addr #0 !dbg !1067 {
start:
  %n_as_t = alloca i64
  %_3 = alloca %"core::result::Result<usize, core::convert::Infallible>"
  %n = alloca i64
  %self = alloca i64*
  store i64* %1, i64** %self
  call void @llvm.dbg.declare(metadata i64** %self, metadata !1071, metadata !165), !dbg !1072
  store i64 %2, i64* %n
  call void @llvm.dbg.declare(metadata i64* %n, metadata !1073, metadata !165), !dbg !1072
  call void @llvm.dbg.declare(metadata i64* %n_as_t, metadata !1074, metadata !165), !dbg !1076
  %3 = load i64, i64* %n, !dbg !1077
; call <T as core::convert::TryFrom<U>>::try_from
  call void @"_ZN53_$LT$T$u20$as$u20$core..convert..TryFrom$LT$U$GT$$GT$8try_from17hf36fe5924c15a470E"(%"core::result::Result<usize, core::convert::Infallible>"* noalias nocapture sret dereferenceable(16) %_3, i64 %3), !dbg !1077
  br label %bb1, !dbg !1077

bb1:                                              ; preds = %start
  %4 = bitcast %"core::result::Result<usize, core::convert::Infallible>"* %_3 to { i64, [0 x i8], i64, [0 x i8] }*, !dbg !1076
  %5 = getelementptr inbounds { i64, [0 x i8], i64, [0 x i8] }, { i64, [0 x i8], i64, [0 x i8] }* %4, i32 0, i32 2, !dbg !1076
  %6 = load i64, i64* %5, !dbg !1076
  store i64 %6, i64* %n_as_t, !dbg !1076
  %7 = load i64*, i64** %self, !dbg !1076, !nonnull !162
  %8 = load i64, i64* %7, !dbg !1076
  %9 = load i64, i64* %n_as_t, !dbg !1076
; call core::num::<impl usize>::checked_add
  call void @"_ZN4core3num23_$LT$impl$u20$usize$GT$11checked_add17h6fd22aa5d6f9e05cE"(%"core::option::Option<usize>"* noalias nocapture sret dereferenceable(16) %0, i64 %8, i64 %9), !dbg !1076
  br label %bb2, !dbg !1076

bb2:                                              ; preds = %bb1
  ret void, !dbg !1078
}

; core::cmp::Ord::min
; Function Attrs: uwtable
define internal i64 @_ZN4core3cmp3Ord3min17ha3969fdacf5ed1d2E(i64, i64) unnamed_addr #1 personality i32 (...)* @__CxxFrameHandler3 !dbg !1079 {
start:
  %_9 = alloca i8
  %_8 = alloca i8
  %_0 = alloca i64
  %other = alloca i64
  %self = alloca i64
  store i64 %0, i64* %self
  call void @llvm.dbg.declare(metadata i64* %self, metadata !1087, metadata !165), !dbg !1088
  store i64 %1, i64* %other
  call void @llvm.dbg.declare(metadata i64* %other, metadata !1089, metadata !165), !dbg !1088
  store i8 0, i8* %_8, !dbg !1090
  store i8 0, i8* %_9, !dbg !1090
  store i8 1, i8* %_8, !dbg !1090
  store i8 1, i8* %_9, !dbg !1090
; invoke core::cmp::impls::<impl core::cmp::PartialOrd for usize>::le
  %2 = invoke zeroext i1 @"_ZN4core3cmp5impls57_$LT$impl$u20$core..cmp..PartialOrd$u20$for$u20$usize$GT$2le17h59701e106f0f8e2aE"(i64* noalias readonly dereferenceable(8) %self, i64* noalias readonly dereferenceable(8) %other)
          to label %bb1 unwind label %funclet_bb4, !dbg !1090

bb1:                                              ; preds = %start
  br i1 %2, label %bb5, label %bb6, !dbg !1090

bb2:                                              ; preds = %bb10, %bb3
  cleanupret from %cleanuppad unwind to caller, !dbg !1091

bb3:                                              ; preds = %funclet_bb3
  %3 = load i8, i8* %_8, !dbg !1092, !range !569
  %4 = trunc i8 %3 to i1, !dbg !1092
  br i1 %4, label %bb10, label %bb2, !dbg !1092

bb4:                                              ; preds = %funclet_bb4
  store i8 0, i8* %_9, !dbg !1092
  cleanupret from %cleanuppad1 unwind label %funclet_bb3, !dbg !1092

bb5:                                              ; preds = %bb1
  store i8 0, i8* %_8, !dbg !1090
  %5 = load i64, i64* %self, !dbg !1090
  store i64 %5, i64* %_0, !dbg !1090
  br label %bb7, !dbg !1090

bb6:                                              ; preds = %bb1
  store i8 0, i8* %_9, !dbg !1090
  %6 = load i64, i64* %other, !dbg !1090
  store i64 %6, i64* %_0, !dbg !1090
  br label %bb7, !dbg !1090

bb7:                                              ; preds = %bb6, %bb5
  %7 = load i8, i8* %_9, !dbg !1092, !range !569
  %8 = trunc i8 %7 to i1, !dbg !1092
  br i1 %8, label %bb11, label %bb8, !dbg !1092

bb8:                                              ; preds = %bb11, %bb7
  %9 = load i8, i8* %_8, !dbg !1092, !range !569
  %10 = trunc i8 %9 to i1, !dbg !1092
  br i1 %10, label %bb12, label %bb9, !dbg !1092

bb9:                                              ; preds = %bb12, %bb8
  %11 = load i64, i64* %_0, !dbg !1092
  ret i64 %11, !dbg !1092

bb10:                                             ; preds = %bb3
  store i8 0, i8* %_8, !dbg !1092
  br label %bb2, !dbg !1092

bb11:                                             ; preds = %bb7
  store i8 0, i8* %_9, !dbg !1092
  br label %bb8, !dbg !1092

bb12:                                             ; preds = %bb8
  store i8 0, i8* %_8, !dbg !1092
  br label %bb9, !dbg !1092

funclet_bb3:                                      ; preds = %bb4
  %cleanuppad = cleanuppad within none []
  br label %bb3

funclet_bb4:                                      ; preds = %start
  %cleanuppad1 = cleanuppad within none []
  br label %bb4
}

; core::cmp::impls::<impl core::cmp::PartialOrd for isize>::lt
; Function Attrs: inlinehint uwtable
define internal zeroext i1 @"_ZN4core3cmp5impls57_$LT$impl$u20$core..cmp..PartialOrd$u20$for$u20$isize$GT$2lt17h95e14cc4150985a5E"(i64* noalias readonly dereferenceable(8), i64* noalias readonly dereferenceable(8)) unnamed_addr #0 !dbg !1093 {
start:
  %other = alloca i64*
  %self = alloca i64*
  store i64* %0, i64** %self
  call void @llvm.dbg.declare(metadata i64** %self, metadata !1098, metadata !165), !dbg !1099
  store i64* %1, i64** %other
  call void @llvm.dbg.declare(metadata i64** %other, metadata !1100, metadata !165), !dbg !1099
  %2 = load i64*, i64** %self, !dbg !1101, !nonnull !162
  %3 = load i64, i64* %2, !dbg !1101
  %4 = load i64*, i64** %other, !dbg !1101, !nonnull !162
  %5 = load i64, i64* %4, !dbg !1101
  %6 = icmp slt i64 %3, %5, !dbg !1101
  ret i1 %6, !dbg !1101
}

; core::cmp::impls::<impl core::cmp::PartialOrd for usize>::le
; Function Attrs: inlinehint uwtable
define internal zeroext i1 @"_ZN4core3cmp5impls57_$LT$impl$u20$core..cmp..PartialOrd$u20$for$u20$usize$GT$2le17h59701e106f0f8e2aE"(i64* noalias readonly dereferenceable(8), i64* noalias readonly dereferenceable(8)) unnamed_addr #0 !dbg !1102 {
start:
  %other = alloca i64*
  %self = alloca i64*
  store i64* %0, i64** %self
  call void @llvm.dbg.declare(metadata i64** %self, metadata !1105, metadata !165), !dbg !1106
  store i64* %1, i64** %other
  call void @llvm.dbg.declare(metadata i64** %other, metadata !1107, metadata !165), !dbg !1106
  %2 = load i64*, i64** %self, !dbg !1108, !nonnull !162
  %3 = load i64, i64* %2, !dbg !1108
  %4 = load i64*, i64** %other, !dbg !1108, !nonnull !162
  %5 = load i64, i64* %4, !dbg !1108
  %6 = icmp ule i64 %3, %5, !dbg !1108
  ret i1 %6, !dbg !1108
}

; core::cmp::impls::<impl core::cmp::PartialOrd for usize>::lt
; Function Attrs: inlinehint uwtable
define internal zeroext i1 @"_ZN4core3cmp5impls57_$LT$impl$u20$core..cmp..PartialOrd$u20$for$u20$usize$GT$2lt17h5a3617ddfd4439c9E"(i64* noalias readonly dereferenceable(8), i64* noalias readonly dereferenceable(8)) unnamed_addr #0 !dbg !1109 {
start:
  %other = alloca i64*
  %self = alloca i64*
  store i64* %0, i64** %self
  call void @llvm.dbg.declare(metadata i64** %self, metadata !1110, metadata !165), !dbg !1111
  store i64* %1, i64** %other
  call void @llvm.dbg.declare(metadata i64** %other, metadata !1112, metadata !165), !dbg !1111
  %2 = load i64*, i64** %self, !dbg !1113, !nonnull !162
  %3 = load i64, i64* %2, !dbg !1113
  %4 = load i64*, i64** %other, !dbg !1113, !nonnull !162
  %5 = load i64, i64* %4, !dbg !1113
  %6 = icmp ult i64 %3, %5, !dbg !1113
  ret i1 %6, !dbg !1113
}

; core::fmt::ArgumentV1::new
; Function Attrs: uwtable
define internal void @_ZN4core3fmt10ArgumentV13new17h3038ca9bdca51426E(%"core::fmt::ArgumentV1"* noalias nocapture sret dereferenceable(16), %"std::io::error::Error"* noalias readonly dereferenceable(16), i8 (%"std::io::error::Error"*, %"core::fmt::Formatter"*)*) unnamed_addr #1 !dbg !1114 {
start:
  %transmute_temp1 = alloca %"core::fmt::Void"*
  %transmute_temp = alloca i8 (%"core::fmt::Void"*, %"core::fmt::Formatter"*)*
  %f = alloca i8 (%"std::io::error::Error"*, %"core::fmt::Formatter"*)*
  %x = alloca %"std::io::error::Error"*
  store %"std::io::error::Error"* %1, %"std::io::error::Error"** %x
  call void @llvm.dbg.declare(metadata %"std::io::error::Error"** %x, metadata !1174, metadata !165), !dbg !1175
  store i8 (%"std::io::error::Error"*, %"core::fmt::Formatter"*)* %2, i8 (%"std::io::error::Error"*, %"core::fmt::Formatter"*)** %f
  call void @llvm.dbg.declare(metadata i8 (%"std::io::error::Error"*, %"core::fmt::Formatter"*)** %f, metadata !1176, metadata !165), !dbg !1175
  %3 = load i8 (%"std::io::error::Error"*, %"core::fmt::Formatter"*)*, i8 (%"std::io::error::Error"*, %"core::fmt::Formatter"*)** %f, !dbg !1177, !nonnull !162
  %4 = bitcast i8 (%"core::fmt::Void"*, %"core::fmt::Formatter"*)** %transmute_temp to i8 (%"std::io::error::Error"*, %"core::fmt::Formatter"*)**, !dbg !1177
  store i8 (%"std::io::error::Error"*, %"core::fmt::Formatter"*)* %3, i8 (%"std::io::error::Error"*, %"core::fmt::Formatter"*)** %4, align 8, !dbg !1177
  %5 = load i8 (%"core::fmt::Void"*, %"core::fmt::Formatter"*)*, i8 (%"core::fmt::Void"*, %"core::fmt::Formatter"*)** %transmute_temp, !dbg !1177, !nonnull !162
  br label %bb1, !dbg !1177

bb1:                                              ; preds = %start
  %6 = load %"std::io::error::Error"*, %"std::io::error::Error"** %x, !dbg !1179, !nonnull !162
  %7 = bitcast %"core::fmt::Void"** %transmute_temp1 to %"std::io::error::Error"**, !dbg !1179
  store %"std::io::error::Error"* %6, %"std::io::error::Error"** %7, align 8, !dbg !1179
  %8 = load %"core::fmt::Void"*, %"core::fmt::Void"** %transmute_temp1, !dbg !1179, !nonnull !162
  br label %bb2, !dbg !1179

bb2:                                              ; preds = %bb1
  %9 = getelementptr inbounds %"core::fmt::ArgumentV1", %"core::fmt::ArgumentV1"* %0, i32 0, i32 0, !dbg !1180
  store %"core::fmt::Void"* %8, %"core::fmt::Void"** %9, !dbg !1180
  %10 = getelementptr inbounds %"core::fmt::ArgumentV1", %"core::fmt::ArgumentV1"* %0, i32 0, i32 2, !dbg !1180
  store i8 (%"core::fmt::Void"*, %"core::fmt::Formatter"*)* %5, i8 (%"core::fmt::Void"*, %"core::fmt::Formatter"*)** %10, !dbg !1180
  ret void, !dbg !1181
}

; core::fmt::ArgumentV1::new
; Function Attrs: uwtable
define internal void @_ZN4core3fmt10ArgumentV13new17h86d305727ef160b7E(%"core::fmt::ArgumentV1"* noalias nocapture sret dereferenceable(16), %str_slice* noalias readonly dereferenceable(16), i8 (%str_slice*, %"core::fmt::Formatter"*)*) unnamed_addr #1 !dbg !1182 {
start:
  %transmute_temp1 = alloca %"core::fmt::Void"*
  %transmute_temp = alloca i8 (%"core::fmt::Void"*, %"core::fmt::Formatter"*)*
  %f = alloca i8 (%str_slice*, %"core::fmt::Formatter"*)*
  %x = alloca %str_slice*
  store %str_slice* %1, %str_slice** %x
  call void @llvm.dbg.declare(metadata %str_slice** %x, metadata !1191, metadata !165), !dbg !1192
  store i8 (%str_slice*, %"core::fmt::Formatter"*)* %2, i8 (%str_slice*, %"core::fmt::Formatter"*)** %f
  call void @llvm.dbg.declare(metadata i8 (%str_slice*, %"core::fmt::Formatter"*)** %f, metadata !1193, metadata !165), !dbg !1192
  %3 = load i8 (%str_slice*, %"core::fmt::Formatter"*)*, i8 (%str_slice*, %"core::fmt::Formatter"*)** %f, !dbg !1194, !nonnull !162
  %4 = bitcast i8 (%"core::fmt::Void"*, %"core::fmt::Formatter"*)** %transmute_temp to i8 (%str_slice*, %"core::fmt::Formatter"*)**, !dbg !1194
  store i8 (%str_slice*, %"core::fmt::Formatter"*)* %3, i8 (%str_slice*, %"core::fmt::Formatter"*)** %4, align 8, !dbg !1194
  %5 = load i8 (%"core::fmt::Void"*, %"core::fmt::Formatter"*)*, i8 (%"core::fmt::Void"*, %"core::fmt::Formatter"*)** %transmute_temp, !dbg !1194, !nonnull !162
  br label %bb1, !dbg !1194

bb1:                                              ; preds = %start
  %6 = load %str_slice*, %str_slice** %x, !dbg !1196, !nonnull !162
  %7 = bitcast %"core::fmt::Void"** %transmute_temp1 to %str_slice**, !dbg !1196
  store %str_slice* %6, %str_slice** %7, align 8, !dbg !1196
  %8 = load %"core::fmt::Void"*, %"core::fmt::Void"** %transmute_temp1, !dbg !1196, !nonnull !162
  br label %bb2, !dbg !1196

bb2:                                              ; preds = %bb1
  %9 = getelementptr inbounds %"core::fmt::ArgumentV1", %"core::fmt::ArgumentV1"* %0, i32 0, i32 0, !dbg !1197
  store %"core::fmt::Void"* %8, %"core::fmt::Void"** %9, !dbg !1197
  %10 = getelementptr inbounds %"core::fmt::ArgumentV1", %"core::fmt::ArgumentV1"* %0, i32 0, i32 2, !dbg !1197
  store i8 (%"core::fmt::Void"*, %"core::fmt::Formatter"*)* %5, i8 (%"core::fmt::Void"*, %"core::fmt::Formatter"*)** %10, !dbg !1197
  ret void, !dbg !1198
}

; core::fmt::Arguments::new_v1_formatted
; Function Attrs: inlinehint uwtable
define internal void @_ZN4core3fmt9Arguments16new_v1_formatted17h5bd2b313ca467536E(%"core::fmt::Arguments"* noalias nocapture sret dereferenceable(48), %str_slice* noalias nonnull readonly, i64, %"core::fmt::ArgumentV1"* noalias nonnull readonly, i64, %"core::fmt::rt::v1::Argument"* noalias nonnull readonly, i64) unnamed_addr #0 !dbg !1199 {
start:
  %_5 = alloca %"core::option::Option<&[core::fmt::rt::v1::Argument]>"
  %fmt = alloca { %"core::fmt::rt::v1::Argument"*, i64 }
  %args = alloca { %"core::fmt::ArgumentV1"*, i64 }
  %pieces = alloca { %str_slice*, i64 }
  %7 = getelementptr inbounds { %str_slice*, i64 }, { %str_slice*, i64 }* %pieces, i32 0, i32 0
  store %str_slice* %1, %str_slice** %7
  %8 = getelementptr inbounds { %str_slice*, i64 }, { %str_slice*, i64 }* %pieces, i32 0, i32 1
  store i64 %2, i64* %8
  call void @llvm.dbg.declare(metadata { %str_slice*, i64 }* %pieces, metadata !1265, metadata !165), !dbg !1266
  %9 = getelementptr inbounds { %"core::fmt::ArgumentV1"*, i64 }, { %"core::fmt::ArgumentV1"*, i64 }* %args, i32 0, i32 0
  store %"core::fmt::ArgumentV1"* %3, %"core::fmt::ArgumentV1"** %9
  %10 = getelementptr inbounds { %"core::fmt::ArgumentV1"*, i64 }, { %"core::fmt::ArgumentV1"*, i64 }* %args, i32 0, i32 1
  store i64 %4, i64* %10
  call void @llvm.dbg.declare(metadata { %"core::fmt::ArgumentV1"*, i64 }* %args, metadata !1267, metadata !165), !dbg !1266
  %11 = getelementptr inbounds { %"core::fmt::rt::v1::Argument"*, i64 }, { %"core::fmt::rt::v1::Argument"*, i64 }* %fmt, i32 0, i32 0
  store %"core::fmt::rt::v1::Argument"* %5, %"core::fmt::rt::v1::Argument"** %11
  %12 = getelementptr inbounds { %"core::fmt::rt::v1::Argument"*, i64 }, { %"core::fmt::rt::v1::Argument"*, i64 }* %fmt, i32 0, i32 1
  store i64 %6, i64* %12
  call void @llvm.dbg.declare(metadata { %"core::fmt::rt::v1::Argument"*, i64 }* %fmt, metadata !1268, metadata !165), !dbg !1266
  %13 = getelementptr inbounds { %str_slice*, i64 }, { %str_slice*, i64 }* %pieces, i32 0, i32 0, !dbg !1269
  %14 = load %str_slice*, %str_slice** %13, !dbg !1269, !nonnull !162
  %15 = getelementptr inbounds { %str_slice*, i64 }, { %str_slice*, i64 }* %pieces, i32 0, i32 1, !dbg !1269
  %16 = load i64, i64* %15, !dbg !1269
  %17 = getelementptr inbounds { %"core::fmt::rt::v1::Argument"*, i64 }, { %"core::fmt::rt::v1::Argument"*, i64 }* %fmt, i32 0, i32 0, !dbg !1270
  %18 = load %"core::fmt::rt::v1::Argument"*, %"core::fmt::rt::v1::Argument"** %17, !dbg !1270, !nonnull !162
  %19 = getelementptr inbounds { %"core::fmt::rt::v1::Argument"*, i64 }, { %"core::fmt::rt::v1::Argument"*, i64 }* %fmt, i32 0, i32 1, !dbg !1270
  %20 = load i64, i64* %19, !dbg !1270
  %21 = getelementptr inbounds %"core::option::Option<&[core::fmt::rt::v1::Argument]>", %"core::option::Option<&[core::fmt::rt::v1::Argument]>"* %_5, i32 0, i32 0, !dbg !1270
  %22 = getelementptr inbounds { %"core::fmt::rt::v1::Argument"*, i64 }, { %"core::fmt::rt::v1::Argument"*, i64 }* %21, i32 0, i32 0, !dbg !1270
  store %"core::fmt::rt::v1::Argument"* %18, %"core::fmt::rt::v1::Argument"** %22, !dbg !1270
  %23 = getelementptr inbounds { %"core::fmt::rt::v1::Argument"*, i64 }, { %"core::fmt::rt::v1::Argument"*, i64 }* %21, i32 0, i32 1, !dbg !1270
  store i64 %20, i64* %23, !dbg !1270
  %24 = getelementptr inbounds { %"core::fmt::ArgumentV1"*, i64 }, { %"core::fmt::ArgumentV1"*, i64 }* %args, i32 0, i32 0, !dbg !1271
  %25 = load %"core::fmt::ArgumentV1"*, %"core::fmt::ArgumentV1"** %24, !dbg !1271, !nonnull !162
  %26 = getelementptr inbounds { %"core::fmt::ArgumentV1"*, i64 }, { %"core::fmt::ArgumentV1"*, i64 }* %args, i32 0, i32 1, !dbg !1271
  %27 = load i64, i64* %26, !dbg !1271
  %28 = getelementptr inbounds %"core::fmt::Arguments", %"core::fmt::Arguments"* %0, i32 0, i32 0, !dbg !1272
  %29 = getelementptr inbounds { %str_slice*, i64 }, { %str_slice*, i64 }* %28, i32 0, i32 0, !dbg !1272
  store %str_slice* %14, %str_slice** %29, !dbg !1272
  %30 = getelementptr inbounds { %str_slice*, i64 }, { %str_slice*, i64 }* %28, i32 0, i32 1, !dbg !1272
  store i64 %16, i64* %30, !dbg !1272
  %31 = getelementptr inbounds %"core::fmt::Arguments", %"core::fmt::Arguments"* %0, i32 0, i32 2, !dbg !1272
  %32 = bitcast %"core::option::Option<&[core::fmt::rt::v1::Argument]>"* %_5 to i8*, !dbg !1272
  %33 = bitcast %"core::option::Option<&[core::fmt::rt::v1::Argument]>"* %31 to i8*, !dbg !1272
  call void @llvm.memcpy.p0i8.p0i8.i64(i8* %33, i8* %32, i64 16, i32 8, i1 false), !dbg !1272
  %34 = getelementptr inbounds %"core::fmt::Arguments", %"core::fmt::Arguments"* %0, i32 0, i32 4, !dbg !1272
  %35 = getelementptr inbounds { %"core::fmt::ArgumentV1"*, i64 }, { %"core::fmt::ArgumentV1"*, i64 }* %34, i32 0, i32 0, !dbg !1272
  store %"core::fmt::ArgumentV1"* %25, %"core::fmt::ArgumentV1"** %35, !dbg !1272
  %36 = getelementptr inbounds { %"core::fmt::ArgumentV1"*, i64 }, { %"core::fmt::ArgumentV1"*, i64 }* %34, i32 0, i32 1, !dbg !1272
  store i64 %27, i64* %36, !dbg !1272
  ret void, !dbg !1273
}

; core::fmt::Arguments::new_v1
; Function Attrs: inlinehint uwtable
define internal void @_ZN4core3fmt9Arguments6new_v117hfd6ef0fc68f1105bE(%"core::fmt::Arguments"* noalias nocapture sret dereferenceable(48), %str_slice* noalias nonnull readonly, i64, %"core::fmt::ArgumentV1"* noalias nonnull readonly, i64) unnamed_addr #0 !dbg !1274 {
start:
  %_4 = alloca %"core::option::Option<&[core::fmt::rt::v1::Argument]>"
  %args = alloca { %"core::fmt::ArgumentV1"*, i64 }
  %pieces = alloca { %str_slice*, i64 }
  %5 = getelementptr inbounds { %str_slice*, i64 }, { %str_slice*, i64 }* %pieces, i32 0, i32 0
  store %str_slice* %1, %str_slice** %5
  %6 = getelementptr inbounds { %str_slice*, i64 }, { %str_slice*, i64 }* %pieces, i32 0, i32 1
  store i64 %2, i64* %6
  call void @llvm.dbg.declare(metadata { %str_slice*, i64 }* %pieces, metadata !1277, metadata !165), !dbg !1278
  %7 = getelementptr inbounds { %"core::fmt::ArgumentV1"*, i64 }, { %"core::fmt::ArgumentV1"*, i64 }* %args, i32 0, i32 0
  store %"core::fmt::ArgumentV1"* %3, %"core::fmt::ArgumentV1"** %7
  %8 = getelementptr inbounds { %"core::fmt::ArgumentV1"*, i64 }, { %"core::fmt::ArgumentV1"*, i64 }* %args, i32 0, i32 1
  store i64 %4, i64* %8
  call void @llvm.dbg.declare(metadata { %"core::fmt::ArgumentV1"*, i64 }* %args, metadata !1279, metadata !165), !dbg !1278
  %9 = getelementptr inbounds { %str_slice*, i64 }, { %str_slice*, i64 }* %pieces, i32 0, i32 0, !dbg !1280
  %10 = load %str_slice*, %str_slice** %9, !dbg !1280, !nonnull !162
  %11 = getelementptr inbounds { %str_slice*, i64 }, { %str_slice*, i64 }* %pieces, i32 0, i32 1, !dbg !1280
  %12 = load i64, i64* %11, !dbg !1280
  %13 = getelementptr inbounds %"core::option::Option<&[core::fmt::rt::v1::Argument]>", %"core::option::Option<&[core::fmt::rt::v1::Argument]>"* %_4, i32 0, i32 0, i32 0, !dbg !1281
  store %"core::fmt::rt::v1::Argument"* null, %"core::fmt::rt::v1::Argument"** %13, !dbg !1281
  %14 = getelementptr inbounds { %"core::fmt::ArgumentV1"*, i64 }, { %"core::fmt::ArgumentV1"*, i64 }* %args, i32 0, i32 0, !dbg !1282
  %15 = load %"core::fmt::ArgumentV1"*, %"core::fmt::ArgumentV1"** %14, !dbg !1282, !nonnull !162
  %16 = getelementptr inbounds { %"core::fmt::ArgumentV1"*, i64 }, { %"core::fmt::ArgumentV1"*, i64 }* %args, i32 0, i32 1, !dbg !1282
  %17 = load i64, i64* %16, !dbg !1282
  %18 = getelementptr inbounds %"core::fmt::Arguments", %"core::fmt::Arguments"* %0, i32 0, i32 0, !dbg !1283
  %19 = getelementptr inbounds { %str_slice*, i64 }, { %str_slice*, i64 }* %18, i32 0, i32 0, !dbg !1283
  store %str_slice* %10, %str_slice** %19, !dbg !1283
  %20 = getelementptr inbounds { %str_slice*, i64 }, { %str_slice*, i64 }* %18, i32 0, i32 1, !dbg !1283
  store i64 %12, i64* %20, !dbg !1283
  %21 = getelementptr inbounds %"core::fmt::Arguments", %"core::fmt::Arguments"* %0, i32 0, i32 2, !dbg !1283
  %22 = bitcast %"core::option::Option<&[core::fmt::rt::v1::Argument]>"* %_4 to i8*, !dbg !1283
  %23 = bitcast %"core::option::Option<&[core::fmt::rt::v1::Argument]>"* %21 to i8*, !dbg !1283
  call void @llvm.memcpy.p0i8.p0i8.i64(i8* %23, i8* %22, i64 16, i32 8, i1 false), !dbg !1283
  %24 = getelementptr inbounds %"core::fmt::Arguments", %"core::fmt::Arguments"* %0, i32 0, i32 4, !dbg !1283
  %25 = getelementptr inbounds { %"core::fmt::ArgumentV1"*, i64 }, { %"core::fmt::ArgumentV1"*, i64 }* %24, i32 0, i32 0, !dbg !1283
  store %"core::fmt::ArgumentV1"* %15, %"core::fmt::ArgumentV1"** %25, !dbg !1283
  %26 = getelementptr inbounds { %"core::fmt::ArgumentV1"*, i64 }, { %"core::fmt::ArgumentV1"*, i64 }* %24, i32 0, i32 1, !dbg !1283
  store i64 %17, i64* %26, !dbg !1283
  ret void, !dbg !1284
}

; core::mem::size_of_val
; Function Attrs: inlinehint uwtable
define internal i64 @_ZN4core3mem11size_of_val17h0541b51df73bf56fE(%"alloc::arc::ArcInner<std::sys_common::remutex::ReentrantMutex<core::cell::RefCell<std::io::buffered::LineWriter<std::io::stdio::Maybe<std::io::stdio::StdoutRaw>>>>>"* dereferenceable(80)) unnamed_addr #0 !dbg !1285 {
start:
  %tmp_ret = alloca i64
  %val = alloca %"alloc::arc::ArcInner<std::sys_common::remutex::ReentrantMutex<core::cell::RefCell<std::io::buffered::LineWriter<std::io::stdio::Maybe<std::io::stdio::StdoutRaw>>>>>"*
  store %"alloc::arc::ArcInner<std::sys_common::remutex::ReentrantMutex<core::cell::RefCell<std::io::buffered::LineWriter<std::io::stdio::Maybe<std::io::stdio::StdoutRaw>>>>>"* %0, %"alloc::arc::ArcInner<std::sys_common::remutex::ReentrantMutex<core::cell::RefCell<std::io::buffered::LineWriter<std::io::stdio::Maybe<std::io::stdio::StdoutRaw>>>>>"** %val
  call void @llvm.dbg.declare(metadata %"alloc::arc::ArcInner<std::sys_common::remutex::ReentrantMutex<core::cell::RefCell<std::io::buffered::LineWriter<std::io::stdio::Maybe<std::io::stdio::StdoutRaw>>>>>"** %val, metadata !1288, metadata !165), !dbg !1289
  %1 = load %"alloc::arc::ArcInner<std::sys_common::remutex::ReentrantMutex<core::cell::RefCell<std::io::buffered::LineWriter<std::io::stdio::Maybe<std::io::stdio::StdoutRaw>>>>>"*, %"alloc::arc::ArcInner<std::sys_common::remutex::ReentrantMutex<core::cell::RefCell<std::io::buffered::LineWriter<std::io::stdio::Maybe<std::io::stdio::StdoutRaw>>>>>"** %val, !dbg !1290, !nonnull !162
  store i64 80, i64* %tmp_ret, !dbg !1290
  %2 = load i64, i64* %tmp_ret, !dbg !1290
  br label %bb1, !dbg !1290

bb1:                                              ; preds = %start
  ret i64 %2, !dbg !1292
}

; core::mem::align_of_val
; Function Attrs: inlinehint uwtable
define internal i64 @_ZN4core3mem12align_of_val17hf7903d8d757c1e86E(%"alloc::arc::ArcInner<std::sys_common::remutex::ReentrantMutex<core::cell::RefCell<std::io::buffered::LineWriter<std::io::stdio::Maybe<std::io::stdio::StdoutRaw>>>>>"* dereferenceable(80)) unnamed_addr #0 !dbg !1293 {
start:
  %tmp_ret = alloca i64
  %val = alloca %"alloc::arc::ArcInner<std::sys_common::remutex::ReentrantMutex<core::cell::RefCell<std::io::buffered::LineWriter<std::io::stdio::Maybe<std::io::stdio::StdoutRaw>>>>>"*
  store %"alloc::arc::ArcInner<std::sys_common::remutex::ReentrantMutex<core::cell::RefCell<std::io::buffered::LineWriter<std::io::stdio::Maybe<std::io::stdio::StdoutRaw>>>>>"* %0, %"alloc::arc::ArcInner<std::sys_common::remutex::ReentrantMutex<core::cell::RefCell<std::io::buffered::LineWriter<std::io::stdio::Maybe<std::io::stdio::StdoutRaw>>>>>"** %val
  call void @llvm.dbg.declare(metadata %"alloc::arc::ArcInner<std::sys_common::remutex::ReentrantMutex<core::cell::RefCell<std::io::buffered::LineWriter<std::io::stdio::Maybe<std::io::stdio::StdoutRaw>>>>>"** %val, metadata !1294, metadata !165), !dbg !1295
  %1 = load %"alloc::arc::ArcInner<std::sys_common::remutex::ReentrantMutex<core::cell::RefCell<std::io::buffered::LineWriter<std::io::stdio::Maybe<std::io::stdio::StdoutRaw>>>>>"*, %"alloc::arc::ArcInner<std::sys_common::remutex::ReentrantMutex<core::cell::RefCell<std::io::buffered::LineWriter<std::io::stdio::Maybe<std::io::stdio::StdoutRaw>>>>>"** %val, !dbg !1296, !nonnull !162
  store i64 8, i64* %tmp_ret, !dbg !1296
  %2 = load i64, i64* %tmp_ret, !dbg !1296
  br label %bb1, !dbg !1296

bb1:                                              ; preds = %start
  ret i64 %2, !dbg !1298
}

; core::mem::uninitialized
; Function Attrs: inlinehint uwtable
define internal i8 @_ZN4core3mem13uninitialized17h30572383a1b2a2eeE() unnamed_addr #0 !dbg !1299 {
start:
  %tmp_ret = alloca i8
  %0 = load i8, i8* %tmp_ret, !dbg !1302
  br label %bb1, !dbg !1302

bb1:                                              ; preds = %start
  ret i8 %0, !dbg !1303
}

; core::mem::uninitialized
; Function Attrs: inlinehint uwtable
define internal void @_ZN4core3mem13uninitialized17h932dffa1e49142e0E(%"core::ptr::swap_nonoverlapping_bytes::UnalignedBlock"* noalias nocapture sret dereferenceable(32)) unnamed_addr #0 !dbg !1304 {
start:
  br label %bb1, !dbg !1316

bb1:                                              ; preds = %start
  ret void, !dbg !1317
}

; core::mem::uninitialized
; Function Attrs: inlinehint uwtable
define internal void @_ZN4core3mem13uninitialized17hb2e9bcbbea793af0E(%"alloc::allocator::AllocErr"* noalias nocapture sret dereferenceable(24)) unnamed_addr #0 !dbg !1318 {
start:
  br label %bb1, !dbg !1321

bb1:                                              ; preds = %start
  ret void, !dbg !1322
}

; core::mem::uninitialized
; Function Attrs: inlinehint uwtable
define internal <4 x i64> @_ZN4core3mem13uninitialized17he8522eb7eeaf3d6cE() unnamed_addr #0 !dbg !1323 {
start:
  %tmp_ret = alloca <4 x i64>
  %0 = load <4 x i64>, <4 x i64>* %tmp_ret, !dbg !1334
  br label %bb1, !dbg !1334

bb1:                                              ; preds = %start
  ret <4 x i64> %0, !dbg !1335
}

; core::mem::swap
; Function Attrs: inlinehint uwtable
define internal void @_ZN4core3mem4swap17h1484d84360d77f5cE(i64* dereferenceable(8), i64* dereferenceable(8)) unnamed_addr #0 !dbg !1336 {
start:
  %y = alloca i64*
  %x = alloca i64*
  store i64* %0, i64** %x
  call void @llvm.dbg.declare(metadata i64** %x, metadata !1342, metadata !165), !dbg !1343
  store i64* %1, i64** %y
  call void @llvm.dbg.declare(metadata i64** %y, metadata !1344, metadata !165), !dbg !1343
  %2 = load i64*, i64** %x, !dbg !1345, !nonnull !162
  %3 = load i64*, i64** %y, !dbg !1345, !nonnull !162
; call core::ptr::swap_nonoverlapping
  call void @_ZN4core3ptr19swap_nonoverlapping17h47e32d89d617fa6bE(i64* %2, i64* %3, i64 1), !dbg !1345
  br label %bb1, !dbg !1345

bb1:                                              ; preds = %start
  ret void, !dbg !1347
}

; core::mem::swap
; Function Attrs: inlinehint uwtable
define internal void @_ZN4core3mem4swap17h419a0d0519b9a01cE(i64* dereferenceable(8), i64* dereferenceable(8)) unnamed_addr #0 !dbg !1348 {
start:
  %y = alloca i64*
  %x = alloca i64*
  store i64* %0, i64** %x
  call void @llvm.dbg.declare(metadata i64** %x, metadata !1351, metadata !165), !dbg !1352
  store i64* %1, i64** %y
  call void @llvm.dbg.declare(metadata i64** %y, metadata !1353, metadata !165), !dbg !1352
  %2 = load i64*, i64** %x, !dbg !1354, !nonnull !162
  %3 = load i64*, i64** %y, !dbg !1354, !nonnull !162
; call core::ptr::swap_nonoverlapping
  call void @_ZN4core3ptr19swap_nonoverlapping17hf971980b078e7dc0E(i64* %2, i64* %3, i64 1), !dbg !1354
  br label %bb1, !dbg !1354

bb1:                                              ; preds = %start
  ret void, !dbg !1356
}

; core::mem::zeroed
; Function Attrs: inlinehint uwtable
define internal void @_ZN4core3mem6zeroed17h4afbe72b5b6f685fE(%"oaes::AesKey"* noalias nocapture sret dereferenceable(80)) unnamed_addr #0 !dbg !1357 {
start:
  %1 = bitcast %"oaes::AesKey"* %0 to i8*, !dbg !1370
  call void @llvm.memset.p0i8.i64(i8* %1, i8 0, i64 80, i32 8, i1 false), !dbg !1370
  br label %bb1, !dbg !1370

bb1:                                              ; preds = %start
  ret void, !dbg !1371
}

; core::mem::zeroed
; Function Attrs: inlinehint uwtable
define internal void @_ZN4core3mem6zeroed17hb511e376a83e3256E(%"oaes::AesContext"* noalias nocapture sret dereferenceable(80)) unnamed_addr #0 !dbg !1372 {
start:
  %1 = bitcast %"oaes::AesContext"* %0 to i8*, !dbg !1380
  call void @llvm.memset.p0i8.i64(i8* %1, i8 0, i64 80, i32 8, i1 false), !dbg !1380
  br label %bb1, !dbg !1380

bb1:                                              ; preds = %start
  ret void, !dbg !1381
}

; core::mem::zeroed
; Function Attrs: inlinehint uwtable
define internal void @_ZN4core3mem6zeroed17hbe648bdb519f0c0fE(%"cryptonight::CNContext"* noalias nocapture sret dereferenceable(2097608)) unnamed_addr #0 !dbg !1382 {
start:
  %1 = bitcast %"cryptonight::CNContext"* %0 to i8*, !dbg !1423
  call void @llvm.memset.p0i8.i64(i8* %1, i8 0, i64 2097608, i32 8, i1 false), !dbg !1423
  br label %bb1, !dbg !1423

bb1:                                              ; preds = %start
  ret void, !dbg !1424
}

; core::mem::zeroed
; Function Attrs: inlinehint uwtable
define internal void @_ZN4core3mem6zeroed17hdbf68f227d5c8060E([25 x i64]* noalias nocapture sret dereferenceable(200)) unnamed_addr #0 !dbg !1425 {
start:
  %1 = bitcast [25 x i64]* %0 to i8*, !dbg !1430
  call void @llvm.memset.p0i8.i64(i8* %1, i8 0, i64 200, i32 8, i1 false), !dbg !1430
  br label %bb1, !dbg !1430

bb1:                                              ; preds = %start
  ret void, !dbg !1431
}

; core::mem::size_of
; Function Attrs: inlinehint uwtable
define internal i64 @_ZN4core3mem7size_of17h6fffc363894ae33aE() unnamed_addr #0 !dbg !1432 {
start:
  %tmp_ret = alloca i64
  store i64 8, i64* %tmp_ret, !dbg !1435
  %0 = load i64, i64* %tmp_ret, !dbg !1435
  br label %bb1, !dbg !1435

bb1:                                              ; preds = %start
  ret i64 %0, !dbg !1437
}

; core::mem::size_of
; Function Attrs: inlinehint uwtable
define internal i64 @_ZN4core3mem7size_of17h825a576cf11f10eaE() unnamed_addr #0 !dbg !1438 {
start:
  %tmp_ret = alloca i64
  store i64 32, i64* %tmp_ret, !dbg !1439
  %0 = load i64, i64* %tmp_ret, !dbg !1439
  br label %bb1, !dbg !1439

bb1:                                              ; preds = %start
  ret i64 %0, !dbg !1441
}

; core::mem::size_of
; Function Attrs: inlinehint uwtable
define internal i64 @_ZN4core3mem7size_of17h976769d29f21fbf5E() unnamed_addr #0 !dbg !1442 {
start:
  %tmp_ret = alloca i64
  store i64 1, i64* %tmp_ret, !dbg !1443
  %0 = load i64, i64* %tmp_ret, !dbg !1443
  br label %bb1, !dbg !1443

bb1:                                              ; preds = %start
  ret i64 %0, !dbg !1445
}

; core::mem::size_of
; Function Attrs: inlinehint uwtable
define internal i64 @_ZN4core3mem7size_of17had2d73cdaa4623c4E() unnamed_addr #0 !dbg !1446 {
start:
  %tmp_ret = alloca i64
  store i64 8, i64* %tmp_ret, !dbg !1447
  %0 = load i64, i64* %tmp_ret, !dbg !1447
  br label %bb1, !dbg !1447

bb1:                                              ; preds = %start
  ret i64 %0, !dbg !1449
}

; core::mem::size_of
; Function Attrs: inlinehint uwtable
define internal i64 @_ZN4core3mem7size_of17hdbef4def9b1b715eE() unnamed_addr #0 !dbg !1450 {
start:
  %tmp_ret = alloca i64
  store i64 200, i64* %tmp_ret, !dbg !1451
  %0 = load i64, i64* %tmp_ret, !dbg !1451
  br label %bb1, !dbg !1451

bb1:                                              ; preds = %start
  ret i64 %0, !dbg !1453
}

; core::mem::align_of
; Function Attrs: inlinehint uwtable
define internal i64 @_ZN4core3mem8align_of17he967146f9075b9b1E() unnamed_addr #0 !dbg !1454 {
start:
  %tmp_ret = alloca i64
  store i64 1, i64* %tmp_ret, !dbg !1455
  %0 = load i64, i64* %tmp_ret, !dbg !1455
  br label %bb1, !dbg !1455

bb1:                                              ; preds = %start
  ret i64 %0, !dbg !1457
}

; core::num::<impl usize>::checked_add
; Function Attrs: inlinehint uwtable
define internal void @"_ZN4core3num23_$LT$impl$u20$usize$GT$11checked_add17h6fd22aa5d6f9e05cE"(%"core::option::Option<usize>"* noalias nocapture sret dereferenceable(16), i64, i64) unnamed_addr #0 !dbg !1458 {
start:
  %tmp_ret = alloca { i64, [0 x i8], i8, [7 x i8] }
  %b = alloca i8
  %a = alloca i64
  %other = alloca i64
  %self = alloca i64
  store i64 %1, i64* %self
  call void @llvm.dbg.declare(metadata i64* %self, metadata !1464, metadata !165), !dbg !1465
  store i64 %2, i64* %other
  call void @llvm.dbg.declare(metadata i64* %other, metadata !1466, metadata !165), !dbg !1465
  call void @llvm.dbg.declare(metadata i64* %a, metadata !1467, metadata !165), !dbg !1469
  call void @llvm.dbg.declare(metadata i8* %b, metadata !1470, metadata !165), !dbg !1469
  %3 = load i64, i64* %self, !dbg !1469
  %4 = load i64, i64* %other, !dbg !1469
; call core::num::<impl usize>::overflowing_add
  call void @"_ZN4core3num23_$LT$impl$u20$usize$GT$15overflowing_add17h5027d37ddf312eb8E"({ i64, [0 x i8], i8, [7 x i8] }* noalias nocapture sret dereferenceable(16) %tmp_ret, i64 %3, i64 %4), !dbg !1469
  %5 = getelementptr inbounds { i64, [0 x i8], i8, [7 x i8] }, { i64, [0 x i8], i8, [7 x i8] }* %tmp_ret, i32 0, i32 0, !dbg !1469
  %6 = getelementptr inbounds { i64, [0 x i8], i8, [7 x i8] }, { i64, [0 x i8], i8, [7 x i8] }* %tmp_ret, i32 0, i32 2, !dbg !1469
  %7 = load i64, i64* %5, !dbg !1469
  %8 = load i8, i8* %6, !dbg !1469, !range !569
  %9 = trunc i8 %8 to i1, !dbg !1469
  br label %bb1, !dbg !1469

bb1:                                              ; preds = %start
  store i64 %7, i64* %a, !dbg !1469
  %10 = zext i1 %9 to i8, !dbg !1469
  store i8 %10, i8* %b, !dbg !1469
  %11 = load i8, i8* %b, !dbg !1471, !range !569
  %12 = trunc i8 %11 to i1, !dbg !1471
  br i1 %12, label %bb2, label %bb3, !dbg !1471

bb2:                                              ; preds = %bb1
  %13 = getelementptr inbounds %"core::option::Option<usize>", %"core::option::Option<usize>"* %0, i32 0, i32 0, !dbg !1471
  store i64 0, i64* %13, !dbg !1471
  br label %bb4, !dbg !1471

bb3:                                              ; preds = %bb1
  %14 = load i64, i64* %a, !dbg !1471
  %15 = getelementptr inbounds %"core::option::Option<usize>", %"core::option::Option<usize>"* %0, i32 0, i32 0, !dbg !1471
  store i64 1, i64* %15, !dbg !1471
  %16 = bitcast %"core::option::Option<usize>"* %0 to { i64, [0 x i8], i64, [0 x i8] }*, !dbg !1471
  %17 = getelementptr inbounds { i64, [0 x i8], i64, [0 x i8] }, { i64, [0 x i8], i64, [0 x i8] }* %16, i32 0, i32 2, !dbg !1471
  store i64 %14, i64* %17, !dbg !1471
  br label %bb4, !dbg !1471

bb4:                                              ; preds = %bb3, %bb2
  ret void, !dbg !1472
}

; core::num::<impl usize>::checked_mul
; Function Attrs: inlinehint uwtable
