	.text
	.def	 _ZN103_$LT$core..ops..range..RangeFrom$LT$usize$GT$$u20$as$u20$core..slice..SliceIndex$LT$$u5b$T$u5d$$GT$$GT$5index17h409a942690393f68E;
	.scl	3;
	.type	32;
	.endef
	.section	.text,"xr",one_only,_ZN103_$LT$core..ops..range..RangeFrom$LT$usize$GT$$u20$as$u20$core..slice..SliceIndex$LT$$u5b$T$u5d$$GT$$GT$5index17h409a942690393f68E
	.p2align	4, 0x90
_ZN103_$LT$core..ops..range..RangeFrom$LT$usize$GT$$u20$as$u20$core..slice..SliceIndex$LT$$u5b$T$u5d$$GT$$GT$5index17h409a942690393f68E:
.Lfunc_begin0:
	.cv_func_id 0
	.cv_file	1 "C:\\projects\\rust\\src\\libcore\\slice\\mod.rs"
	.cv_loc	0 1 956 0 is_stmt 0
.Lcfi0:
.seh_proc _ZN103_$LT$core..ops..range..RangeFrom$LT$usize$GT$$u20$as$u20$core..slice..SliceIndex$LT$$u5b$T$u5d$$GT$$GT$5index17h409a942690393f68E
	pushq	%rbp
.Lcfi1:
	.seh_pushreg 5
	subq	$128, %rsp
.Lcfi2:
	.seh_stackalloc 128
	leaq	128(%rsp), %rbp
.Lcfi3:
	.seh_setframe 5, 128
.Lcfi4:
	.seh_endprologue
	movq	%rcx, -56(%rbp)
	movq	-56(%rbp), %rcx
	movq	%rcx, -64(%rbp)
	movq	%rdx, -48(%rbp)
	movq	%r8, -40(%rbp)
.Ltmp0:
	.cv_loc	0 1 957 0
	movq	-64(%rbp), %rcx
	movq	-48(%rbp), %rdx
	movq	-40(%rbp), %r8
	movq	%rcx, -72(%rbp)
	movq	%rdx, %rcx
	movq	%r8, %rdx
	callq	_ZN53_$LT$$u5b$T$u5d$$u20$as$u20$core..slice..SliceExt$GT$3len17h639f333c3ed616a7E
	movq	%rax, -80(%rbp)
	leaq	-16(%rbp), %rcx
	movq	-72(%rbp), %rax
	movq	%rax, -32(%rbp)
	movq	-80(%rbp), %rdx
	movq	%rdx, -24(%rbp)
	movq	-48(%rbp), %rdx
	movq	-40(%rbp), %r8
	movq	-32(%rbp), %r9
	movq	-24(%rbp), %r10
	movq	%r9, -16(%rbp)
	movq	%r10, -8(%rbp)
	callq	_ZN99_$LT$core..ops..range..Range$LT$usize$GT$$u20$as$u20$core..slice..SliceIndex$LT$$u5b$T$u5d$$GT$$GT$5index17hb1e0679ddf82a70cE
	movq	%rax, -88(%rbp)
	movq	%rdx, -96(%rbp)
	.cv_loc	0 1 958 0
	movq	-88(%rbp), %rax
	movq	-96(%rbp), %rdx
	addq	$128, %rsp
	popq	%rbp
	retq
.Ltmp1:
.Lfunc_end0:
	.seh_handlerdata
	.section	.text,"xr",one_only,_ZN103_$LT$core..ops..range..RangeFrom$LT$usize$GT$$u20$as$u20$core..slice..SliceIndex$LT$$u5b$T$u5d$$GT$$GT$5index17h409a942690393f68E
.Lcfi5:
	.seh_endproc

	.def	 _ZN106_$LT$alloc..vec..Vec$LT$T$GT$$u20$as$u20$core..ops..index..IndexMut$LT$core..ops..range..RangeFull$GT$$GT$9index_mut17h5fc8699110094cb0E;
	.scl	3;
	.type	32;
	.endef
	.section	.text,"xr",one_only,_ZN106_$LT$alloc..vec..Vec$LT$T$GT$$u20$as$u20$core..ops..index..IndexMut$LT$core..ops..range..RangeFull$GT$$GT$9index_mut17h5fc8699110094cb0E
	.p2align	4, 0x90
_ZN106_$LT$alloc..vec..Vec$LT$T$GT$$u20$as$u20$core..ops..index..IndexMut$LT$core..ops..range..RangeFull$GT$$GT$9index_mut17h5fc8699110094cb0E:
.Lfunc_begin1:
	.cv_func_id 1
	.cv_file	2 "C:\\projects\\rust\\src\\liballoc\\vec.rs"
	.cv_loc	1 2 1662 0
.Lcfi6:
.seh_proc _ZN106_$LT$alloc..vec..Vec$LT$T$GT$$u20$as$u20$core..ops..index..IndexMut$LT$core..ops..range..RangeFull$GT$$GT$9index_mut17h5fc8699110094cb0E
	pushq	%rbp
.Lcfi7:
	.seh_pushreg 5
	subq	$64, %rsp
.Lcfi8:
	.seh_stackalloc 64
	leaq	64(%rsp), %rbp
.Lcfi9:
	.seh_setframe 5, 64
.Lcfi10:
	.seh_endprologue
	movq	%rcx, -16(%rbp)
.Ltmp2:
	.cv_loc	1 2 1663 0
	movq	-16(%rbp), %rcx
	callq	_ZN71_$LT$alloc..vec..Vec$LT$T$GT$$u20$as$u20$core..ops..deref..DerefMut$GT$9deref_mut17h9c91ddda1d0ef1baE
	movq	%rax, -24(%rbp)
	movq	%rdx, -32(%rbp)
	.cv_loc	1 2 1664 0
	movq	-24(%rbp), %rax
	movq	-32(%rbp), %rdx
	addq	$64, %rsp
	popq	%rbp
	retq
.Ltmp3:
.Lfunc_end1:
	.seh_handlerdata
	.section	.text,"xr",one_only,_ZN106_$LT$alloc..vec..Vec$LT$T$GT$$u20$as$u20$core..ops..index..IndexMut$LT$core..ops..range..RangeFull$GT$$GT$9index_mut17h5fc8699110094cb0E
.Lcfi11:
	.seh_endproc

	.def	 _ZN116_$LT$alloc..vec..Vec$LT$T$GT$$u20$as$u20$core..ops..index..Index$LT$core..ops..range..RangeFrom$LT$usize$GT$$GT$$GT$5index17h659fa3dbc53701b1E;
	.scl	3;
	.type	32;
	.endef
	.section	.text,"xr",one_only,_ZN116_$LT$alloc..vec..Vec$LT$T$GT$$u20$as$u20$core..ops..index..Index$LT$core..ops..range..RangeFrom$LT$usize$GT$$GT$$GT$5index17h659fa3dbc53701b1E
	.p2align	4, 0x90
_ZN116_$LT$alloc..vec..Vec$LT$T$GT$$u20$as$u20$core..ops..index..Index$LT$core..ops..range..RangeFrom$LT$usize$GT$$GT$$GT$5index17h659fa3dbc53701b1E:
.Lfunc_begin2:
	.cv_func_id 2
	.cv_loc	2 2 1593 0
.Lcfi12:
.seh_proc _ZN116_$LT$alloc..vec..Vec$LT$T$GT$$u20$as$u20$core..ops..index..Index$LT$core..ops..range..RangeFrom$LT$usize$GT$$GT$$GT$5index17h659fa3dbc53701b1E
	pushq	%rbp
.Lcfi13:
	.seh_pushreg 5
	subq	$96, %rsp
.Lcfi14:
	.seh_stackalloc 96
	leaq	96(%rsp), %rbp
.Lcfi15:
	.seh_setframe 5, 96
.Lcfi16:
	.seh_endprologue
	movq	%rcx, -32(%rbp)
	movq	%rdx, -16(%rbp)
	movq	-16(%rbp), %rcx
	movq	%rcx, -24(%rbp)
.Ltmp4:
	.cv_loc	2 2 1594 0
	movq	-32(%rbp), %rcx
	callq	_ZN68_$LT$alloc..vec..Vec$LT$T$GT$$u20$as$u20$core..ops..deref..Deref$GT$5deref17h4896fb04e5a9b39fE
	movq	%rax, -40(%rbp)
	movq	%rdx, -48(%rbp)
	movq	-24(%rbp), %rax
	movq	%rax, -8(%rbp)
	movq	-8(%rbp), %r8
	movq	-40(%rbp), %rcx
	movq	-48(%rbp), %rdx
	callq	_ZN4core5slice74_$LT$impl$u20$core..ops..index..Index$LT$I$GT$$u20$for$u20$$u5b$T$u5d$$GT$5index17h9073aed9b3858111E
	movq	%rax, -56(%rbp)
	movq	%rdx, -64(%rbp)
	.cv_loc	2 2 1595 0
	movq	-56(%rbp), %rax
	movq	-64(%rbp), %rdx
	addq	$96, %rsp
	popq	%rbp
	retq
.Ltmp5:
.Lfunc_end2:
	.seh_handlerdata
	.section	.text,"xr",one_only,_ZN116_$LT$alloc..vec..Vec$LT$T$GT$$u20$as$u20$core..ops..index..Index$LT$core..ops..range..RangeFrom$LT$usize$GT$$GT$$GT$5index17h659fa3dbc53701b1E
.Lcfi17:
	.seh_endproc

	.def	 _ZN117_$LT$core..nonzero..NonZero$LT$$BP$const$u20$T$GT$$u20$as$u20$core..convert..From$LT$$RF$$u27$a$u20$mut$u20$T$GT$$GT$4from17he6bdfd9ba079858aE;
	.scl	3;
	.type	32;
	.endef
	.section	.text,"xr",one_only,_ZN117_$LT$core..nonzero..NonZero$LT$$BP$const$u20$T$GT$$u20$as$u20$core..convert..From$LT$$RF$$u27$a$u20$mut$u20$T$GT$$GT$4from17he6bdfd9ba079858aE
	.p2align	4, 0x90
_ZN117_$LT$core..nonzero..NonZero$LT$$BP$const$u20$T$GT$$u20$as$u20$core..convert..From$LT$$RF$$u27$a$u20$mut$u20$T$GT$$GT$4from17he6bdfd9ba079858aE:
.Lfunc_begin3:
	.cv_func_id 3
	.cv_file	3 "C:\\projects\\rust\\src\\libcore\\nonzero.rs"
	.cv_loc	3 3 105 0
.Lcfi18:
.seh_proc _ZN117_$LT$core..nonzero..NonZero$LT$$BP$const$u20$T$GT$$u20$as$u20$core..convert..From$LT$$RF$$u27$a$u20$mut$u20$T$GT$$GT$4from17he6bdfd9ba079858aE
	pushq	%rbp
.Lcfi19:
	.seh_pushreg 5
	subq	$24, %rsp
.Lcfi20:
	.seh_stackalloc 24
	leaq	16(%rsp), %rbp
.Lcfi21:
	.seh_setframe 5, 16
.Lcfi22:
	.seh_endprologue
	movq	%rcx, -16(%rbp)
.Ltmp6:
	.cv_loc	3 3 106 0
	movq	-16(%rbp), %rcx
	movq	%rcx, (%rbp)
	.cv_loc	3 3 107 0
	movq	(%rbp), %rcx
	movq	%rcx, -8(%rbp)
.Ltmp7:
	.cv_loc	3 3 108 0
	movq	-8(%rbp), %rax
	addq	$24, %rsp
	popq	%rbp
	retq
.Ltmp8:
.Lfunc_end3:
	.seh_handlerdata
	.section	.text,"xr",one_only,_ZN117_$LT$core..nonzero..NonZero$LT$$BP$const$u20$T$GT$$u20$as$u20$core..convert..From$LT$$RF$$u27$a$u20$mut$u20$T$GT$$GT$4from17he6bdfd9ba079858aE
.Lcfi23:
	.seh_endproc

	.def	 _ZN33_$LT$alloc..arc..Arc$LT$T$GT$$GT$5inner17ha5385045bd2eab83E;
	.scl	3;
	.type	32;
	.endef
	.section	.text,"xr",one_only,_ZN33_$LT$alloc..arc..Arc$LT$T$GT$$GT$5inner17ha5385045bd2eab83E
	.p2align	4, 0x90
_ZN33_$LT$alloc..arc..Arc$LT$T$GT$$GT$5inner17ha5385045bd2eab83E:
.Lfunc_begin4:
	.cv_func_id 4
	.cv_file	4 "C:\\projects\\rust\\src\\liballoc\\arc.rs"
	.cv_loc	4 4 501 0
.Lcfi24:
.seh_proc _ZN33_$LT$alloc..arc..Arc$LT$T$GT$$GT$5inner17ha5385045bd2eab83E
	pushq	%rbp
.Lcfi25:
	.seh_pushreg 5
	subq	$48, %rsp
.Lcfi26:
	.seh_stackalloc 48
	leaq	48(%rsp), %rbp
.Lcfi27:
	.seh_setframe 5, 48
.Lcfi28:
	.seh_endprologue
	movq	%rcx, -8(%rbp)
.Ltmp9:
	.cv_loc	4 4 507 0
	movq	-8(%rbp), %rcx
	callq	_ZN35_$LT$core..ptr..Shared$LT$T$GT$$GT$6as_ref17hf55ea19926731bfdE
	movq	%rax, -16(%rbp)
.Ltmp10:
	.cv_loc	4 4 508 0
	movq	-16(%rbp), %rax
	addq	$48, %rsp
	popq	%rbp
	retq
.Ltmp11:
.Lfunc_end4:
	.seh_handlerdata
	.section	.text,"xr",one_only,_ZN33_$LT$alloc..arc..Arc$LT$T$GT$$GT$5inner17ha5385045bd2eab83E
.Lcfi29:
	.seh_endproc

	.def	 _ZN33_$LT$alloc..arc..Arc$LT$T$GT$$GT$9drop_slow17h1be0247fcb11ef27E;
	.scl	3;
	.type	32;
	.endef
	.section	.text,"xr",one_only,_ZN33_$LT$alloc..arc..Arc$LT$T$GT$$GT$9drop_slow17h1be0247fcb11ef27E
	.p2align	4, 0x90
_ZN33_$LT$alloc..arc..Arc$LT$T$GT$$GT$9drop_slow17h1be0247fcb11ef27E:
.Lfunc_begin5:
	.cv_func_id 5
	.cv_loc	5 4 512 0
.Lcfi30:
.seh_proc _ZN33_$LT$alloc..arc..Arc$LT$T$GT$$GT$9drop_slow17h1be0247fcb11ef27E
	pushq	%rbp
.Lcfi31:
	.seh_pushreg 5
	subq	$160, %rsp
.Lcfi32:
	.seh_stackalloc 160
	leaq	128(%rsp), %rbp
.Lcfi33:
	.seh_setframe 5, 128
.Lcfi34:
	.seh_endprologue
	movq	%rcx, -48(%rbp)
.Ltmp12:
	.cv_loc	5 4 513 0
	movq	-48(%rbp), %rcx
	movq	(%rcx), %rcx
	movq	%rcx, -24(%rbp)
	movq	-24(%rbp), %rcx
	callq	_ZN35_$LT$core..ptr..Shared$LT$T$GT$$GT$6as_ptr17hf14f0f047c8c00b6E
	movq	%rax, -32(%rbp)
	.cv_loc	5 4 517 0
	movq	-48(%rbp), %rcx
	callq	_ZN35_$LT$core..ptr..Shared$LT$T$GT$$GT$6as_mut17h6b645a106322a7d5E
	movq	%rax, -56(%rbp)
	movq	-56(%rbp), %rax
	addq	$16, %rax
	movq	%rax, %rcx
	callq	_ZN4core3ptr13drop_in_place17h1be10147fc54d157E
	.cv_loc	5 4 519 0
	movq	-48(%rbp), %rcx
	callq	_ZN33_$LT$alloc..arc..Arc$LT$T$GT$$GT$5inner17ha5385045bd2eab83E
	movq	%rax, -64(%rbp)
	movl	$1, %eax
	movl	%eax, %edx
	movq	-64(%rbp), %rcx
	addq	$8, %rcx
	movb	$1, -10(%rbp)
	movzbl	-10(%rbp), %r8d
	callq	_ZN4core4sync6atomic11AtomicUsize9fetch_sub17h75d7d6529666448cE
	movq	%rax, -72(%rbp)
	movq	-72(%rbp), %rax
	cmpq	$1, %rax
	jne	.LBB5_7
	.cv_loc	5 4 520 0
	movb	$2, -9(%rbp)
	movzbl	-9(%rbp), %ecx
	callq	_ZN4core4sync6atomic5fence17hf08cafd961182495E
	jmp	.LBB5_8
.LBB5_7:
	.cv_loc	5 4 519 0
	jmp	.LBB5_11
.LBB5_8:
	movq	%rbp, %rcx
	.cv_loc	5 4 521 0
	movq	-32(%rbp), %rax
	movq	-32(%rbp), %rdx
	movq	%rax, -80(%rbp)
	callq	_ZN5alloc9allocator6Layout9for_value17h7c2a3c6ccc9326d7E
	movq	(%rbp), %rax
	movq	8(%rbp), %rcx
	movq	%rax, -88(%rbp)
	movq	%rcx, -96(%rbp)
	leaq	-8(%rbp), %rcx
	leaq	16(%rbp), %r8
	movq	-88(%rbp), %rax
	movq	%rax, 16(%rbp)
	movq	-96(%rbp), %rdx
	movq	%rdx, 24(%rbp)
	movq	-80(%rbp), %rdx
	callq	_ZN61_$LT$alloc..heap..Heap$u20$as$u20$alloc..allocator..Alloc$GT$7dealloc17h2d0e14b2b29a6a1bE
	.cv_loc	5 4 519 0
	jmp	.LBB5_11
.Ltmp13:
.LBB5_11:
	.cv_loc	5 4 523 0
	addq	$160, %rsp
	popq	%rbp
	retq
.Ltmp14:
.Lfunc_end5:
	.seh_handlerdata
	.section	.text,"xr",one_only,_ZN33_$LT$alloc..arc..Arc$LT$T$GT$$GT$9drop_slow17h1be0247fcb11ef27E
.Lcfi35:
	.seh_endproc

	.def	 _ZN33_$LT$alloc..vec..Vec$LT$T$GT$$GT$13with_capacity17h9dbec0bc4addabaaE;
	.scl	3;
	.type	32;
	.endef
	.section	.text,"xr",one_only,_ZN33_$LT$alloc..vec..Vec$LT$T$GT$$GT$13with_capacity17h9dbec0bc4addabaaE
	.p2align	4, 0x90
_ZN33_$LT$alloc..vec..Vec$LT$T$GT$$GT$13with_capacity17h9dbec0bc4addabaaE:
.Lfunc_begin6:
	.cv_func_id 6
	.cv_loc	6 2 357 0
.Lcfi36:
.seh_proc _ZN33_$LT$alloc..vec..Vec$LT$T$GT$$GT$13with_capacity17h9dbec0bc4addabaaE
	pushq	%rbp
.Lcfi37:
	.seh_pushreg 5
	subq	$80, %rsp
.Lcfi38:
	.seh_stackalloc 80
	leaq	80(%rsp), %rbp
.Lcfi39:
	.seh_setframe 5, 80
.Lcfi40:
	.seh_endprologue
	movq	%rcx, %rax
	leaq	-16(%rbp), %r8
	movq	%rdx, -24(%rbp)
.Ltmp15:
	.cv_loc	6 2 359 0
	movq	-24(%rbp), %rdx
	movq	%rcx, -32(%rbp)
	movq	%r8, %rcx
	movq	%rax, -40(%rbp)
	callq	_ZN40_$LT$alloc..raw_vec..RawVec$LT$T$GT$$GT$13with_capacity17h1409b20d0e260ff0E
	.cv_loc	6 2 358 0
	movq	-16(%rbp), %rax
	movq	-32(%rbp), %rcx
	movq	%rax, (%rcx)
	movq	-8(%rbp), %rax
	movq	%rax, 8(%rcx)
	movq	$0, 16(%rcx)
	.cv_loc	6 2 362 0
	movq	-40(%rbp), %rax
	addq	$80, %rsp
	popq	%rbp
	retq
.Ltmp16:
.Lfunc_end6:
	.seh_handlerdata
	.section	.text,"xr",one_only,_ZN33_$LT$alloc..vec..Vec$LT$T$GT$$GT$13with_capacity17h9dbec0bc4addabaaE
.Lcfi41:
	.seh_endproc

	.def	 _ZN33_$LT$alloc..vec..Vec$LT$T$GT$$GT$3len17h5ace7515aa20d70aE;
	.scl	3;
	.type	32;
	.endef
	.section	.text,"xr",one_only,_ZN33_$LT$alloc..vec..Vec$LT$T$GT$$GT$3len17h5ace7515aa20d70aE
	.p2align	4, 0x90
_ZN33_$LT$alloc..vec..Vec$LT$T$GT$$GT$3len17h5ace7515aa20d70aE:
.Lfunc_begin7:
	.cv_func_id 7
	.cv_loc	7 2 1160 0
.Lcfi42:
.seh_proc _ZN33_$LT$alloc..vec..Vec$LT$T$GT$$GT$3len17h5ace7515aa20d70aE
	pushq	%rbp
.Lcfi43:
	.seh_pushreg 5
	pushq	%rax
.Lcfi44:
	.seh_stackalloc 8
	movq	%rsp, %rbp
.Lcfi45:
	.seh_setframe 5, 0
.Lcfi46:
	.seh_endprologue
	movq	%rcx, (%rbp)
.Ltmp17:
	.cv_loc	7 2 1161 0
	movq	(%rbp), %rcx
	movq	16(%rcx), %rax
	.cv_loc	7 2 1162 0
	addq	$8, %rsp
	popq	%rbp
	retq
.Ltmp18:
.Lfunc_end7:
	.seh_handlerdata
	.section	.text,"xr",one_only,_ZN33_$LT$alloc..vec..Vec$LT$T$GT$$GT$3len17h5ace7515aa20d70aE
.Lcfi47:
	.seh_endproc

	.def	 _ZN33_$LT$alloc..vec..Vec$LT$T$GT$$GT$5drain17h6fbd63c42ca4b9acE;
	.scl	3;
	.type	32;
	.endef
	.section	.text,"xr",one_only,_ZN33_$LT$alloc..vec..Vec$LT$T$GT$$GT$5drain17h6fbd63c42ca4b9acE
	.p2align	4, 0x90
_ZN33_$LT$alloc..vec..Vec$LT$T$GT$$GT$5drain17h6fbd63c42ca4b9acE:
.Lfunc_begin8:
	.cv_func_id 8
	.cv_loc	8 2 1086 0
.Lcfi48:
.seh_proc _ZN33_$LT$alloc..vec..Vec$LT$T$GT$$GT$5drain17h6fbd63c42ca4b9acE
	.seh_handler __CxxFrameHandler3, @unwind, @except
	pushq	%rbp
.Lcfi49:
	.seh_pushreg 5
	subq	$352, %rsp
.Lcfi50:
	.seh_stackalloc 352
	leaq	128(%rsp), %rbp
.Lcfi51:
	.seh_setframe 5, 128
.Lcfi52:
	.seh_endprologue
	movq	$-2, 216(%rbp)
	movq	%rcx, %rax
	movq	%rdx, 56(%rbp)
	movq	%r8, 72(%rbp)
	movq	72(%rbp), %rdx
	movq	%rdx, 64(%rbp)
.Ltmp43:
	.cv_loc	8 2 1099 0
	movq	56(%rbp), %rdx
.Ltmp19:
	movq	%rcx, 48(%rbp)
	movq	%rdx, %rcx
	movq	%rax, 40(%rbp)
	callq	_ZN33_$LT$alloc..vec..Vec$LT$T$GT$$GT$3len17h5ace7515aa20d70aE
.Ltmp20:
	movq	%rax, 32(%rbp)
	jmp	.LBB8_1
.Ltmp44:
.LBB8_1:
	movq	32(%rbp), %rax
	movq	%rax, 80(%rbp)
.Ltmp45:
	.cv_loc	8 2 1100 0
.Ltmp21:
	leaq	96(%rbp), %rcx
	leaq	64(%rbp), %rdx
	callq	_ZN91_$LT$core..ops..range..RangeTo$LT$T$GT$$u20$as$u20$alloc..range..RangeArgument$LT$T$GT$$GT$5start17h9a2e611b5e07da82E
.Ltmp22:
	jmp	.LBB8_2
.Ltmp46:
.LBB8_2:
	.cv_loc	8 2 1101 0
	movq	96(%rbp), %rax
	testq	%rax, %rax
	movq	%rax, 24(%rbp)
	je	.LBB8_5
	jmp	.LBB8_26
.Ltmp47:
.LBB8_26:
	movq	24(%rbp), %rax
	subq	$1, %rax
	movq	%rax, 16(%rbp)
	je	.LBB8_6
	jmp	.LBB8_27
.Ltmp48:
.LBB8_27:
	movq	24(%rbp), %rax
	subq	$2, %rax
	movq	%rax, 8(%rbp)
	jne	.LBB8_4
	jmp	.LBB8_3
.Ltmp49:
.LBB8_3:
	.cv_loc	8 2 1103 0
	movq	$0, 88(%rbp)
	.cv_loc	8 2 1100 0
	jmp	.LBB8_7
.Ltmp50:
.LBB8_4:
	.cv_loc	8 2 1127 0
	ud2
.Ltmp51:
.LBB8_5:
	.cv_loc	8 2 1101 0
	movq	104(%rbp), %rax
	movq	(%rax), %rax
	movq	%rax, 112(%rbp)
.Ltmp52:
	.cv_loc	8 2 1101 0
	movq	112(%rbp), %rax
	movq	%rax, 88(%rbp)
.Ltmp53:
	.cv_loc	8 2 1100 0
	jmp	.LBB8_7
.Ltmp54:
.LBB8_6:
	.cv_loc	8 2 1102 0
	movq	104(%rbp), %rax
	movq	(%rax), %rax
	movq	%rax, 120(%rbp)
	movq	120(%rbp), %rax
	addq	$1, %rax
	movq	%rax, 88(%rbp)
.Ltmp55:
.LBB8_7:
	.cv_loc	8 2 1105 0
.Ltmp23:
	leaq	136(%rbp), %rcx
	leaq	64(%rbp), %rdx
	callq	_ZN91_$LT$core..ops..range..RangeTo$LT$T$GT$$u20$as$u20$alloc..range..RangeArgument$LT$T$GT$$GT$3end17h110d13e130e04272E
.Ltmp24:
	jmp	.LBB8_8
.Ltmp56:
.LBB8_8:
	.cv_loc	8 2 1106 0
	movq	136(%rbp), %rax
	testq	%rax, %rax
	movq	%rax, (%rbp)
	je	.LBB8_10
	jmp	.LBB8_28
.Ltmp57:
.LBB8_28:
	movq	(%rbp), %rax
	subq	$1, %rax
	movq	%rax, -8(%rbp)
	je	.LBB8_11
	jmp	.LBB8_29
.Ltmp58:
.LBB8_29:
	movq	(%rbp), %rax
	subq	$2, %rax
	movq	%rax, -16(%rbp)
	jne	.LBB8_4
	jmp	.LBB8_9
.Ltmp59:
.LBB8_9:
	.cv_loc	8 2 1108 0
	movq	80(%rbp), %rax
	movq	%rax, 128(%rbp)
	.cv_loc	8 2 1105 0
	jmp	.LBB8_12
.Ltmp60:
.LBB8_10:
	.cv_loc	8 2 1106 0
	movq	144(%rbp), %rax
	movq	(%rax), %rax
	movq	%rax, 152(%rbp)
.Ltmp61:
	.cv_loc	8 2 1106 0
	movq	152(%rbp), %rax
	addq	$1, %rax
	movq	%rax, 128(%rbp)
.Ltmp62:
	.cv_loc	8 2 1105 0
	jmp	.LBB8_12
.Ltmp63:
.LBB8_11:
	.cv_loc	8 2 1107 0
	movq	144(%rbp), %rax
	movq	(%rax), %rax
	movq	%rax, 160(%rbp)
	movq	160(%rbp), %rax
	movq	%rax, 128(%rbp)
.Ltmp64:
.LBB8_12:
	.cv_loc	8 2 1110 0
	movq	88(%rbp), %rax
	cmpq	128(%rbp), %rax
	setbe	%cl
	.cv_file	5 "C:\\projects\\rust\\<assert macros>"
	.cv_loc	8 5 2 0
	xorb	$-1, %cl
	testb	$1, %cl
	jne	.LBB8_13
	jmp	.LBB8_14
.Ltmp65:
.LBB8_13:
	.cv_file	6 "C:\\projects\\rust\\<panic macros>"
	.cv_loc	8 6 3 0
.Ltmp41:
	leaq	ref.2(%rip), %rcx
	callq	_ZN4core9panicking5panic17hbb9b03eae4db0581E
.Ltmp42:
	jmp	.LBB8_25
.Ltmp66:
.LBB8_14:
	.cv_loc	8 2 1111 0
	movq	128(%rbp), %rax
	cmpq	80(%rbp), %rax
	setbe	%cl
	.cv_loc	8 5 2 0
	xorb	$-1, %cl
	testb	$1, %cl
	jne	.LBB8_15
	jmp	.LBB8_16
.Ltmp67:
.LBB8_15:
	.cv_loc	8 6 3 0
.Ltmp39:
	leaq	ref.5(%rip), %rcx
	callq	_ZN4core9panicking5panic17hbb9b03eae4db0581E
.Ltmp40:
	jmp	.LBB8_25
.Ltmp68:
.LBB8_16:
	.cv_loc	8 2 1115 0
	movq	56(%rbp), %rcx
	movq	88(%rbp), %rdx
.Ltmp25:
	callq	_ZN33_$LT$alloc..vec..Vec$LT$T$GT$$GT$7set_len17h115cae4aac4a1027E
.Ltmp26:
	jmp	.LBB8_17
.Ltmp69:
.LBB8_17:
	.cv_loc	8 2 1118 0
	movq	56(%rbp), %rcx
.Ltmp27:
	callq	_ZN71_$LT$alloc..vec..Vec$LT$T$GT$$u20$as$u20$core..ops..deref..DerefMut$GT$9deref_mut17h9c91ddda1d0ef1baE
.Ltmp28:
	movq	%rdx, -24(%rbp)
	movq	%rax, -32(%rbp)
	jmp	.LBB8_18
.Ltmp70:
.LBB8_18:
.Ltmp29:
	movq	-32(%rbp), %rcx
	movq	-24(%rbp), %rdx
	callq	_ZN5alloc5slice29_$LT$impl$u20$$u5b$T$u5d$$GT$10as_mut_ptr17h0268527546ac1b19E
.Ltmp30:
	movq	%rax, -40(%rbp)
	jmp	.LBB8_19
.Ltmp71:
.LBB8_19:
	movq	88(%rbp), %rdx
.Ltmp31:
	movq	-40(%rbp), %rcx
	callq	_ZN4core3ptr31_$LT$impl$u20$$BP$mut$u20$T$GT$6offset17h671482efc58bfd68E
.Ltmp32:
	movq	%rax, -48(%rbp)
	jmp	.LBB8_20
.Ltmp72:
.LBB8_20:
	.cv_loc	8 2 1119 0
	movq	128(%rbp), %rax
	movq	88(%rbp), %rcx
	subq	%rcx, %rax
	.cv_loc	8 2 1118 0
.Ltmp33:
	movq	-48(%rbp), %rcx
	movq	%rax, %rdx
	callq	_ZN4core5slice18from_raw_parts_mut17h69bc7ac3dd5dbe8bE
.Ltmp34:
	movq	%rdx, -56(%rbp)
	movq	%rax, -64(%rbp)
	jmp	.LBB8_21
.Ltmp73:
.LBB8_21:
	movq	-64(%rbp), %rax
	movq	%rax, 168(%rbp)
	movq	-56(%rbp), %rcx
	movq	%rcx, 176(%rbp)
	.cv_loc	8 2 1121 0
	movq	128(%rbp), %rdx
	.cv_loc	8 2 1122 0
	movq	80(%rbp), %r8
	subq	%rdx, %r8
	.cv_loc	8 2 1123 0
	movq	168(%rbp), %r9
	movq	176(%rbp), %r10
.Ltmp35:
	leaq	184(%rbp), %rcx
	movq	%rdx, -72(%rbp)
	movq	%r9, %rdx
	movq	%r8, -80(%rbp)
	movq	%r10, %r8
	callq	_ZN5alloc5slice29_$LT$impl$u20$$u5b$T$u5d$$GT$4iter17h2c7bb8234612b4b7E
.Ltmp36:
	jmp	.LBB8_22
.Ltmp74:
.LBB8_22:
	.cv_loc	8 2 1124 0
	movq	56(%rbp), %rcx
.Ltmp37:
	callq	_ZN98_$LT$core..ptr..Shared$LT$T$GT$$u20$as$u20$core..convert..From$LT$$RF$$u27$a$u20$mut$u20$T$GT$$GT$4from17h1fb4aa200a71c402E
.Ltmp38:
	movq	%rax, -88(%rbp)
	jmp	.LBB8_23
.Ltmp75:
.LBB8_23:
	movq	-88(%rbp), %rax
	movq	%rax, 208(%rbp)
	movq	208(%rbp), %rcx
	movq	%rcx, 200(%rbp)
	.cv_loc	8 2 1120 0
	movq	48(%rbp), %rcx
	movq	-72(%rbp), %rdx
	movq	%rdx, (%rcx)
	movq	-80(%rbp), %r8
	movq	%r8, 8(%rcx)
	movq	184(%rbp), %r9
	movq	%r9, 16(%rcx)
	movq	192(%rbp), %r9
	movq	%r9, 24(%rcx)
	movq	200(%rbp), %r9
	movq	%r9, 32(%rcx)
.Ltmp76:
	.cv_loc	8 2 1127 0
	movq	40(%rbp), %rax
	addq	$352, %rsp
	popq	%rbp
.Ltmp77:
	retq
.LBB8_25:
.Ltmp78:
	ud2
.Ltmp79:
	.seh_handlerdata
	.long	($cppxdata$_ZN33_$LT$alloc..vec..Vec$LT$T$GT$$GT$5drain17h6fbd63c42ca4b9acE)@IMGREL
	.section	.text,"xr",one_only,_ZN33_$LT$alloc..vec..Vec$LT$T$GT$$GT$5drain17h6fbd63c42ca4b9acE
.Lcfi53:
	.seh_endproc
	.def	 "?dtor$24@?0?_ZN33_$LT$alloc..vec..Vec$LT$T$GT$$GT$5drain17h6fbd63c42ca4b9acE@4HA";
	.scl	3;
	.type	32;
	.endef
	.p2align	4, 0x90
"?dtor$24@?0?_ZN33_$LT$alloc..vec..Vec$LT$T$GT$$GT$5drain17h6fbd63c42ca4b9acE@4HA":
.Lcfi54:
.seh_proc "?dtor$24@?0?_ZN33_$LT$alloc..vec..Vec$LT$T$GT$$GT$5drain17h6fbd63c42ca4b9acE@4HA"
.LBB8_24:
	movq	%rdx, 16(%rsp)
	pushq	%rbp
.Lcfi55:
	.seh_pushreg 5
	subq	$32, %rsp
.Lcfi56:
	.seh_stackalloc 32
	leaq	128(%rdx), %rbp
.Ltmp80:
.Lcfi57:
	.seh_endprologue
	.cv_loc	8 2 1086 0
	addq	$32, %rsp
	popq	%rbp
	retq
.Ltmp81:
.Lfunc_end8:
	.seh_handlerdata
	.section	.text,"xr",one_only,_ZN33_$LT$alloc..vec..Vec$LT$T$GT$$GT$5drain17h6fbd63c42ca4b9acE
.Lcfi58:
	.seh_endproc
	.section	.xdata,"dr",associative,_ZN33_$LT$alloc..vec..Vec$LT$T$GT$$GT$5drain17h6fbd63c42ca4b9acE
	.p2align	2
$cppxdata$_ZN33_$LT$alloc..vec..Vec$LT$T$GT$$GT$5drain17h6fbd63c42ca4b9acE:
	.long	429065506
	.long	1
	.long	($stateUnwindMap$_ZN33_$LT$alloc..vec..Vec$LT$T$GT$$GT$5drain17h6fbd63c42ca4b9acE)@IMGREL
	.long	0
	.long	0
	.long	3
	.long	($ip2state$_ZN33_$LT$alloc..vec..Vec$LT$T$GT$$GT$5drain17h6fbd63c42ca4b9acE)@IMGREL
	.long	344
	.long	0
	.long	1
$stateUnwindMap$_ZN33_$LT$alloc..vec..Vec$LT$T$GT$$GT$5drain17h6fbd63c42ca4b9acE:
	.long	-1
	.long	"?dtor$24@?0?_ZN33_$LT$alloc..vec..Vec$LT$T$GT$$GT$5drain17h6fbd63c42ca4b9acE@4HA"@IMGREL
$ip2state$_ZN33_$LT$alloc..vec..Vec$LT$T$GT$$GT$5drain17h6fbd63c42ca4b9acE:
	.long	.Lfunc_begin8@IMGREL
	.long	-1
	.long	.Ltmp19@IMGREL+1
	.long	0
	.long	.Ltmp38@IMGREL+1
	.long	-1
	.section	.text,"xr",one_only,_ZN33_$LT$alloc..vec..Vec$LT$T$GT$$GT$5drain17h6fbd63c42ca4b9acE

	.def	 _ZN33_$LT$alloc..vec..Vec$LT$T$GT$$GT$7set_len17h115cae4aac4a1027E;
	.scl	3;
	.type	32;
	.endef
	.section	.text,"xr",one_only,_ZN33_$LT$alloc..vec..Vec$LT$T$GT$$GT$7set_len17h115cae4aac4a1027E
	.p2align	4, 0x90
_ZN33_$LT$alloc..vec..Vec$LT$T$GT$$GT$7set_len17h115cae4aac4a1027E:
.Lfunc_begin9:
	.cv_func_id 9
	.cv_loc	9 2 677 0
.Lcfi59:
.seh_proc _ZN33_$LT$alloc..vec..Vec$LT$T$GT$$GT$7set_len17h115cae4aac4a1027E
	pushq	%rbp
.Lcfi60:
	.seh_pushreg 5
	subq	$16, %rsp
.Lcfi61:
	.seh_stackalloc 16
	leaq	16(%rsp), %rbp
.Lcfi62:
	.seh_setframe 5, 16
.Lcfi63:
	.seh_endprologue
	movq	%rcx, -16(%rbp)
	movq	%rdx, -8(%rbp)
.Ltmp82:
	.cv_loc	9 2 678 0
	movq	-8(%rbp), %rcx
	movq	-16(%rbp), %rdx
	movq	%rcx, 16(%rdx)
	.cv_loc	9 2 679 0
	addq	$16, %rsp
	popq	%rbp
	retq
.Ltmp83:
.Lfunc_end9:
	.seh_handlerdata
	.section	.text,"xr",one_only,_ZN33_$LT$alloc..vec..Vec$LT$T$GT$$GT$7set_len17h115cae4aac4a1027E
.Lcfi64:
	.seh_endproc

	.def	 _ZN35_$LT$core..ptr..Shared$LT$T$GT$$GT$6as_mut17h6b645a106322a7d5E;
	.scl	3;
	.type	32;
	.endef
	.section	.text,"xr",one_only,_ZN35_$LT$core..ptr..Shared$LT$T$GT$$GT$6as_mut17h6b645a106322a7d5E
	.p2align	4, 0x90
_ZN35_$LT$core..ptr..Shared$LT$T$GT$$GT$6as_mut17h6b645a106322a7d5E:
.Lfunc_begin10:
	.cv_func_id 10
	.cv_file	7 "C:\\projects\\rust\\src\\libcore\\ptr.rs"
	.cv_loc	10 7 2506 0
.Lcfi65:
.seh_proc _ZN35_$LT$core..ptr..Shared$LT$T$GT$$GT$6as_mut17h6b645a106322a7d5E
	pushq	%rbp
.Lcfi66:
	.seh_pushreg 5
	subq	$64, %rsp
.Lcfi67:
	.seh_stackalloc 64
	leaq	64(%rsp), %rbp
.Lcfi68:
	.seh_setframe 5, 64
.Lcfi69:
	.seh_endprologue
	movq	%rcx, -16(%rbp)
.Ltmp84:
	.cv_loc	10 7 2507 0
	movq	-16(%rbp), %rcx
	movq	(%rcx), %rcx
	movq	%rcx, -8(%rbp)
	movq	-8(%rbp), %rcx
	callq	_ZN35_$LT$core..ptr..Shared$LT$T$GT$$GT$6as_ptr17hf14f0f047c8c00b6E
	movq	%rax, -24(%rbp)
	.cv_loc	10 7 2508 0
	movq	-24(%rbp), %rax
	addq	$64, %rsp
	popq	%rbp
	retq
.Ltmp85:
.Lfunc_end10:
	.seh_handlerdata
	.section	.text,"xr",one_only,_ZN35_$LT$core..ptr..Shared$LT$T$GT$$GT$6as_mut17h6b645a106322a7d5E
.Lcfi70:
	.seh_endproc

	.def	 _ZN35_$LT$core..ptr..Shared$LT$T$GT$$GT$6as_mut17hbd34945b0ab72ab9E;
	.scl	3;
	.type	32;
	.endef
	.section	.text,"xr",one_only,_ZN35_$LT$core..ptr..Shared$LT$T$GT$$GT$6as_mut17hbd34945b0ab72ab9E
	.p2align	4, 0x90
_ZN35_$LT$core..ptr..Shared$LT$T$GT$$GT$6as_mut17hbd34945b0ab72ab9E:
.Lfunc_begin11:
	.cv_func_id 11
	.cv_loc	11 7 2506 0
.Lcfi71:
.seh_proc _ZN35_$LT$core..ptr..Shared$LT$T$GT$$GT$6as_mut17hbd34945b0ab72ab9E
	pushq	%rbp
.Lcfi72:
	.seh_pushreg 5
	subq	$64, %rsp
.Lcfi73:
	.seh_stackalloc 64
	leaq	64(%rsp), %rbp
.Lcfi74:
	.seh_setframe 5, 64
.Lcfi75:
	.seh_endprologue
	movq	%rcx, -16(%rbp)
.Ltmp86:
	.cv_loc	11 7 2507 0
	movq	-16(%rbp), %rcx
	movq	(%rcx), %rcx
	movq	%rcx, -8(%rbp)
	movq	-8(%rbp), %rcx
	callq	_ZN35_$LT$core..ptr..Shared$LT$T$GT$$GT$6as_ptr17heca9ab2cb2f4daa5E
	movq	%rax, -24(%rbp)
	.cv_loc	11 7 2508 0
	movq	-24(%rbp), %rax
	addq	$64, %rsp
	popq	%rbp
	retq
.Ltmp87:
.Lfunc_end11:
	.seh_handlerdata
	.section	.text,"xr",one_only,_ZN35_$LT$core..ptr..Shared$LT$T$GT$$GT$6as_mut17hbd34945b0ab72ab9E
.Lcfi76:
	.seh_endproc

	.def	 _ZN35_$LT$core..ptr..Shared$LT$T$GT$$GT$6as_ptr17heca9ab2cb2f4daa5E;
	.scl	3;
	.type	32;
	.endef
	.section	.text,"xr",one_only,_ZN35_$LT$core..ptr..Shared$LT$T$GT$$GT$6as_ptr17heca9ab2cb2f4daa5E
	.p2align	4, 0x90
_ZN35_$LT$core..ptr..Shared$LT$T$GT$$GT$6as_ptr17heca9ab2cb2f4daa5E:
.Lfunc_begin12:
	.cv_func_id 12
	.cv_loc	12 7 2488 0
.Lcfi77:
.seh_proc _ZN35_$LT$core..ptr..Shared$LT$T$GT$$GT$6as_ptr17heca9ab2cb2f4daa5E
	pushq	%rbp
.Lcfi78:
	.seh_pushreg 5
	subq	$64, %rsp
.Lcfi79:
	.seh_stackalloc 64
	leaq	64(%rsp), %rbp
.Lcfi80:
	.seh_setframe 5, 64
.Lcfi81:
	.seh_endprologue
	movq	%rcx, -16(%rbp)
	movq	-16(%rbp), %rcx
	movq	%rcx, -24(%rbp)
.Ltmp88:
	.cv_loc	12 7 2489 0
	movq	-24(%rbp), %rcx
	movq	%rcx, -8(%rbp)
	movq	-8(%rbp), %rcx
	callq	_ZN40_$LT$core..nonzero..NonZero$LT$T$GT$$GT$3get17h52d5083f66d4a0b9E
	movq	%rax, -32(%rbp)
	.cv_loc	12 7 2490 0
	movq	-32(%rbp), %rax
	addq	$64, %rsp
	popq	%rbp
	retq
.Ltmp89:
.Lfunc_end12:
	.seh_handlerdata
	.section	.text,"xr",one_only,_ZN35_$LT$core..ptr..Shared$LT$T$GT$$GT$6as_ptr17heca9ab2cb2f4daa5E
.Lcfi82:
	.seh_endproc

	.def	 _ZN35_$LT$core..ptr..Shared$LT$T$GT$$GT$6as_ptr17hf14f0f047c8c00b6E;
	.scl	3;
	.type	32;
	.endef
	.section	.text,"xr",one_only,_ZN35_$LT$core..ptr..Shared$LT$T$GT$$GT$6as_ptr17hf14f0f047c8c00b6E
	.p2align	4, 0x90
_ZN35_$LT$core..ptr..Shared$LT$T$GT$$GT$6as_ptr17hf14f0f047c8c00b6E:
.Lfunc_begin13:
	.cv_func_id 13
	.cv_loc	13 7 2488 0
.Lcfi83:
.seh_proc _ZN35_$LT$core..ptr..Shared$LT$T$GT$$GT$6as_ptr17hf14f0f047c8c00b6E
	pushq	%rbp
.Lcfi84:
	.seh_pushreg 5
	subq	$64, %rsp
.Lcfi85:
	.seh_stackalloc 64
	leaq	64(%rsp), %rbp
.Lcfi86:
	.seh_setframe 5, 64
.Lcfi87:
	.seh_endprologue
	movq	%rcx, -16(%rbp)
	movq	-16(%rbp), %rcx
	movq	%rcx, -24(%rbp)
.Ltmp90:
	.cv_loc	13 7 2489 0
	movq	-24(%rbp), %rcx
	movq	%rcx, -8(%rbp)
	movq	-8(%rbp), %rcx
	callq	_ZN40_$LT$core..nonzero..NonZero$LT$T$GT$$GT$3get17h65b95219d90e1039E
	movq	%rax, -32(%rbp)
	.cv_loc	13 7 2490 0
	movq	-32(%rbp), %rax
	addq	$64, %rsp
	popq	%rbp
	retq
.Ltmp91:
.Lfunc_end13:
	.seh_handlerdata
	.section	.text,"xr",one_only,_ZN35_$LT$core..ptr..Shared$LT$T$GT$$GT$6as_ptr17hf14f0f047c8c00b6E
.Lcfi88:
	.seh_endproc

	.def	 _ZN35_$LT$core..ptr..Shared$LT$T$GT$$GT$6as_ref17hf55ea19926731bfdE;
	.scl	3;
	.type	32;
	.endef
	.section	.text,"xr",one_only,_ZN35_$LT$core..ptr..Shared$LT$T$GT$$GT$6as_ref17hf55ea19926731bfdE
	.p2align	4, 0x90
_ZN35_$LT$core..ptr..Shared$LT$T$GT$$GT$6as_ref17hf55ea19926731bfdE:
.Lfunc_begin14:
	.cv_func_id 14
	.cv_loc	14 7 2497 0
.Lcfi89:
.seh_proc _ZN35_$LT$core..ptr..Shared$LT$T$GT$$GT$6as_ref17hf55ea19926731bfdE
	pushq	%rbp
.Lcfi90:
	.seh_pushreg 5
	subq	$64, %rsp
.Lcfi91:
	.seh_stackalloc 64
	leaq	64(%rsp), %rbp
.Lcfi92:
	.seh_setframe 5, 64
.Lcfi93:
	.seh_endprologue
	movq	%rcx, -16(%rbp)
.Ltmp92:
	.cv_loc	14 7 2498 0
	movq	-16(%rbp), %rcx
	movq	(%rcx), %rcx
	movq	%rcx, -8(%rbp)
	movq	-8(%rbp), %rcx
	callq	_ZN35_$LT$core..ptr..Shared$LT$T$GT$$GT$6as_ptr17hf14f0f047c8c00b6E
	movq	%rax, -24(%rbp)
	.cv_loc	14 7 2499 0
	movq	-24(%rbp), %rax
	addq	$64, %rsp
	popq	%rbp
	retq
.Ltmp93:
.Lfunc_end14:
	.seh_handlerdata
	.section	.text,"xr",one_only,_ZN35_$LT$core..ptr..Shared$LT$T$GT$$GT$6as_ref17hf55ea19926731bfdE
.Lcfi94:
	.seh_endproc

	.def	 _ZN35_$LT$core..ptr..Unique$LT$T$GT$$GT$13new_unchecked17h606e8ff10436b24fE;
	.scl	3;
	.type	32;
	.endef
	.section	.text,"xr",one_only,_ZN35_$LT$core..ptr..Unique$LT$T$GT$$GT$13new_unchecked17h606e8ff10436b24fE
	.p2align	4, 0x90
_ZN35_$LT$core..ptr..Unique$LT$T$GT$$GT$13new_unchecked17h606e8ff10436b24fE:
.Lfunc_begin15:
	.cv_func_id 15
	.cv_loc	15 7 2343 0
.Lcfi95:
.seh_proc _ZN35_$LT$core..ptr..Unique$LT$T$GT$$GT$13new_unchecked17h606e8ff10436b24fE
	pushq	%rbp
.Lcfi96:
	.seh_pushreg 5
	subq	$64, %rsp
.Lcfi97:
	.seh_stackalloc 64
	leaq	64(%rsp), %rbp
.Lcfi98:
	.seh_setframe 5, 64
.Lcfi99:
	.seh_endprologue
	movq	%rcx, -32(%rbp)
.Ltmp94:
	.cv_loc	15 7 2344 0
	movq	-32(%rbp), %rcx
	callq	_ZN40_$LT$core..nonzero..NonZero$LT$T$GT$$GT$13new_unchecked17h1d35b8d4b4226921E
	movq	%rax, -8(%rbp)
	movq	-8(%rbp), %rax
	movq	%rax, -16(%rbp)
	movq	-16(%rbp), %rax
	movq	%rax, -24(%rbp)
	.cv_loc	15 7 2345 0
	movq	-24(%rbp), %rax
	addq	$64, %rsp
	popq	%rbp
	retq
.Ltmp95:
.Lfunc_end15:
	.seh_handlerdata
	.section	.text,"xr",one_only,_ZN35_$LT$core..ptr..Unique$LT$T$GT$$GT$13new_unchecked17h606e8ff10436b24fE
.Lcfi100:
	.seh_endproc

	.def	 _ZN35_$LT$core..ptr..Unique$LT$T$GT$$GT$6as_ptr17hf238405d60faa096E;
	.scl	3;
	.type	32;
	.endef
	.section	.text,"xr",one_only,_ZN35_$LT$core..ptr..Unique$LT$T$GT$$GT$6as_ptr17hf238405d60faa096E
	.p2align	4, 0x90
_ZN35_$LT$core..ptr..Unique$LT$T$GT$$GT$6as_ptr17hf238405d60faa096E:
.Lfunc_begin16:
	.cv_func_id 16
	.cv_loc	16 7 2353 0
.Lcfi101:
.seh_proc _ZN35_$LT$core..ptr..Unique$LT$T$GT$$GT$6as_ptr17hf238405d60faa096E
	pushq	%rbp
.Lcfi102:
	.seh_pushreg 5
	subq	$64, %rsp
.Lcfi103:
	.seh_stackalloc 64
	leaq	64(%rsp), %rbp
.Lcfi104:
	.seh_setframe 5, 64
.Lcfi105:
	.seh_endprologue
	movq	%rcx, -16(%rbp)
	movq	-16(%rbp), %rcx
	movq	%rcx, -24(%rbp)
.Ltmp96:
	.cv_loc	16 7 2354 0
	movq	-24(%rbp), %rcx
	movq	%rcx, -8(%rbp)
	movq	-8(%rbp), %rcx
	callq	_ZN40_$LT$core..nonzero..NonZero$LT$T$GT$$GT$3get17ha3674972eca57207E
	movq	%rax, -32(%rbp)
	.cv_loc	16 7 2355 0
	movq	-32(%rbp), %rax
	addq	$64, %rsp
	popq	%rbp
	retq
.Ltmp97:
.Lfunc_end16:
	.seh_handlerdata
	.section	.text,"xr",one_only,_ZN35_$LT$core..ptr..Unique$LT$T$GT$$GT$6as_ptr17hf238405d60faa096E
.Lcfi106:
	.seh_endproc

	.def	 _ZN38_$LT$core..option..Option$LT$T$GT$$GT$3map17h0357dccbb91b548dE;
	.scl	3;
	.type	32;
	.endef
	.section	.text,"xr",one_only,_ZN38_$LT$core..option..Option$LT$T$GT$$GT$3map17h0357dccbb91b548dE
	.p2align	4, 0x90
_ZN38_$LT$core..option..Option$LT$T$GT$$GT$3map17h0357dccbb91b548dE:
.Lfunc_begin17:
	.cv_func_id 17
	.cv_file	8 "C:\\projects\\rust\\src\\libcore\\option.rs"
	.cv_loc	17 8 396 0
.Lcfi107:
.seh_proc _ZN38_$LT$core..option..Option$LT$T$GT$$GT$3map17h0357dccbb91b548dE
	.seh_handler __CxxFrameHandler3, @unwind, @except
	pushq	%rbp
.Lcfi108:
	.seh_pushreg 5
	subq	$112, %rsp
.Lcfi109:
	.seh_stackalloc 112
	leaq	112(%rsp), %rbp
.Lcfi110:
	.seh_setframe 5, 112
.Lcfi111:
	.seh_endprologue
	movq	$-2, -8(%rbp)
	movq	%rcx, -48(%rbp)
.Ltmp100:
	.cv_loc	17 8 398 0
	movb	$0, -10(%rbp)
	movb	$0, -9(%rbp)
	movb	$1, -10(%rbp)
	movb	$1, -9(%rbp)
	movq	-48(%rbp), %rcx
	testq	%rcx, %rcx
	setne	%al
	movzbl	%al, %edx
	movl	%edx, %ecx
	movq	%rcx, -56(%rbp)
	je	.LBB17_1
	jmp	.LBB17_17
.Ltmp101:
.LBB17_17:
	movq	-56(%rbp), %rax
	subq	$1, %rax
	movq	%rax, -64(%rbp)
	je	.LBB17_3
	jmp	.LBB17_2
.Ltmp102:
.LBB17_1:
	.cv_loc	17 8 399 0
	movb	$0, -40(%rbp)
	.cv_loc	17 8 397 0
	jmp	.LBB17_6
.Ltmp103:
.LBB17_2:
	.cv_loc	17 8 401 0
	ud2
.Ltmp104:
.LBB17_3:
	.cv_loc	17 8 398 0
	movb	$0, -10(%rbp)
	movq	-48(%rbp), %rax
	movq	%rax, -32(%rbp)
	movb	$0, -9(%rbp)
	movq	-32(%rbp), %rax
	movq	%rax, -24(%rbp)
	movq	-24(%rbp), %rcx
.Ltmp98:
	callq	_ZN91_$LT$alloc..vec..Drain$LT$$u27$a$C$$u20$T$GT$$u20$as$u20$core..iter..iterator..Iterator$GT$4next28_$u7b$$u7b$closure$u7d$$u7d$17h6ab4939a88272c1aE
.Ltmp99:
	movb	%al, -65(%rbp)
	jmp	.LBB17_5
.Ltmp105:
.LBB17_5:
	movb	$1, -40(%rbp)
	movb	-65(%rbp), %al
	movb	%al, -39(%rbp)
.Ltmp106:
.LBB17_6:
	.cv_loc	17 8 401 0
	testb	$1, -9(%rbp)
	jne	.LBB17_11
.Ltmp107:
.LBB17_7:
	cmpq	$0, -48(%rbp)
	setne	%al
	testb	$1, %al
	jne	.LBB17_13
	jmp	.LBB17_15
.Ltmp108:
.LBB17_11:
	movb	$0, -9(%rbp)
	jmp	.LBB17_7
.Ltmp109:
.LBB17_12:
	movw	-40(%rbp), %ax
	addq	$112, %rsp
	popq	%rbp
	retq
.LBB17_13:
.Ltmp110:
	testb	$1, -10(%rbp)
	je	.LBB17_12
.Ltmp111:
	movb	$0, -10(%rbp)
	jmp	.LBB17_12
.Ltmp112:
.LBB17_15:
	jmp	.LBB17_12
.Ltmp113:
.LBB17_4:
	.cv_loc	17 8 396 0
	addq	$32, %rsp
	popq	%rbp
.Ltmp114:
	retq
.LBB17_8:
.Ltmp115:
	.cv_loc	17 8 401 0
	testb	$1, -10(%rbp)
	je	.LBB17_4
.Ltmp116:
	movb	$0, -10(%rbp)
	jmp	.LBB17_4
.Ltmp117:
.LBB17_10:
	jmp	.LBB17_4
.Ltmp118:
	.seh_handlerdata
	.long	($cppxdata$_ZN38_$LT$core..option..Option$LT$T$GT$$GT$3map17h0357dccbb91b548dE)@IMGREL
	.section	.text,"xr",one_only,_ZN38_$LT$core..option..Option$LT$T$GT$$GT$3map17h0357dccbb91b548dE
.Lcfi112:
	.seh_endproc
	.def	 "?dtor$16@?0?_ZN38_$LT$core..option..Option$LT$T$GT$$GT$3map17h0357dccbb91b548dE@4HA";
	.scl	3;
	.type	32;
	.endef
	.p2align	4, 0x90
"?dtor$16@?0?_ZN38_$LT$core..option..Option$LT$T$GT$$GT$3map17h0357dccbb91b548dE@4HA":
.Lcfi113:
.seh_proc "?dtor$16@?0?_ZN38_$LT$core..option..Option$LT$T$GT$$GT$3map17h0357dccbb91b548dE@4HA"
.LBB17_16:
	movq	%rdx, 16(%rsp)
	pushq	%rbp
.Lcfi114:
	.seh_pushreg 5
	subq	$32, %rsp
.Lcfi115:
	.seh_stackalloc 32
	leaq	112(%rdx), %rbp
.Ltmp119:
.Lcfi116:
	.seh_endprologue
	cmpq	$0, -48(%rbp)
	jne	.LBB17_8
	jmp	.LBB17_10
.Ltmp120:
.Lfunc_end17:
	.seh_handlerdata
	.section	.text,"xr",one_only,_ZN38_$LT$core..option..Option$LT$T$GT$$GT$3map17h0357dccbb91b548dE
.Lcfi117:
	.seh_endproc
	.section	.xdata,"dr",associative,_ZN38_$LT$core..option..Option$LT$T$GT$$GT$3map17h0357dccbb91b548dE
	.p2align	2
$cppxdata$_ZN38_$LT$core..option..Option$LT$T$GT$$GT$3map17h0357dccbb91b548dE:
	.long	429065506
	.long	1
	.long	($stateUnwindMap$_ZN38_$LT$core..option..Option$LT$T$GT$$GT$3map17h0357dccbb91b548dE)@IMGREL
	.long	0
	.long	0
	.long	3
	.long	($ip2state$_ZN38_$LT$core..option..Option$LT$T$GT$$GT$3map17h0357dccbb91b548dE)@IMGREL
	.long	104
	.long	0
	.long	1
$stateUnwindMap$_ZN38_$LT$core..option..Option$LT$T$GT$$GT$3map17h0357dccbb91b548dE:
	.long	-1
	.long	"?dtor$16@?0?_ZN38_$LT$core..option..Option$LT$T$GT$$GT$3map17h0357dccbb91b548dE@4HA"@IMGREL
$ip2state$_ZN38_$LT$core..option..Option$LT$T$GT$$GT$3map17h0357dccbb91b548dE:
	.long	.Lfunc_begin17@IMGREL
	.long	-1
	.long	.Ltmp98@IMGREL+1
	.long	0
	.long	.Ltmp99@IMGREL+1
	.long	-1
	.section	.text,"xr",one_only,_ZN38_$LT$core..option..Option$LT$T$GT$$GT$3map17h0357dccbb91b548dE

	.def	 _ZN38_$LT$core..option..Option$LT$T$GT$$GT$6as_mut17hb59b4883ae62e7f4E;
	.scl	3;
	.type	32;
	.endef
	.section	.text,"xr",one_only,_ZN38_$LT$core..option..Option$LT$T$GT$$GT$6as_mut17hb59b4883ae62e7f4E
	.p2align	4, 0x90
_ZN38_$LT$core..option..Option$LT$T$GT$$GT$6as_mut17hb59b4883ae62e7f4E:
.Lfunc_begin18:
	.cv_func_id 18
	.cv_loc	18 8 265 0
.Lcfi118:
.seh_proc _ZN38_$LT$core..option..Option$LT$T$GT$$GT$6as_mut17hb59b4883ae62e7f4E
	pushq	%rbp
.Lcfi119:
	.seh_pushreg 5
	subq	$40, %rsp
.Lcfi120:
	.seh_stackalloc 40
	leaq	32(%rsp), %rbp
.Lcfi121:
	.seh_setframe 5, 32
.Lcfi122:
	.seh_endprologue
	movq	%rcx, -16(%rbp)
.Ltmp121:
	.cv_loc	18 8 267 0
	movq	-16(%rbp), %rcx
	movzbl	(%rcx), %eax
	movl	%eax, %ecx
	testq	%rcx, %rcx
	movq	%rcx, -24(%rbp)
	je	.LBB18_1
	jmp	.LBB18_5
.Ltmp122:
.LBB18_5:
	movq	-24(%rbp), %rax
	subq	$1, %rax
	movq	%rax, -32(%rbp)
	je	.LBB18_3
	jmp	.LBB18_2
.Ltmp123:
.LBB18_1:
	.cv_loc	18 8 268 0
	movq	$0, -8(%rbp)
	.cv_loc	18 8 266 0
	jmp	.LBB18_4
.Ltmp124:
.LBB18_2:
	.cv_loc	18 8 270 0
	ud2
.Ltmp125:
.LBB18_3:
	.cv_loc	18 8 267 0
	movq	-16(%rbp), %rax
	addq	$1, %rax
	movq	%rax, (%rbp)
	movq	(%rbp), %rax
	movq	%rax, -8(%rbp)
.Ltmp126:
.LBB18_4:
	.cv_loc	18 8 270 0
	movq	-8(%rbp), %rax
	addq	$40, %rsp
	popq	%rbp
.Ltmp127:
	retq
.Ltmp128:
.Lfunc_end18:
	.seh_handlerdata
	.section	.text,"xr",one_only,_ZN38_$LT$core..option..Option$LT$T$GT$$GT$6as_mut17hb59b4883ae62e7f4E
.Lcfi123:
	.seh_endproc

	.def	 _ZN38_$LT$core..option..Option$LT$T$GT$$GT$6expect17hf76f5687ba0297c5E;
	.scl	3;
	.type	32;
	.endef
	.section	.text,"xr",one_only,_ZN38_$LT$core..option..Option$LT$T$GT$$GT$6expect17hf76f5687ba0297c5E
	.p2align	4, 0x90
_ZN38_$LT$core..option..Option$LT$T$GT$$GT$6expect17hf76f5687ba0297c5E:
.Lfunc_begin19:
	.cv_func_id 19
	.cv_loc	19 8 299 0
.Lcfi124:
.seh_proc _ZN38_$LT$core..option..Option$LT$T$GT$$GT$6expect17hf76f5687ba0297c5E
	.seh_handler __CxxFrameHandler3, @unwind, @except
	pushq	%rbp
.Lcfi125:
	.seh_pushreg 5
	subq	$96, %rsp
.Lcfi126:
	.seh_stackalloc 96
	leaq	96(%rsp), %rbp
.Lcfi127:
	.seh_setframe 5, 96
.Lcfi128:
	.seh_endprologue
	movq	$-2, -8(%rbp)
	movq	%rdx, -32(%rbp)
	movq	%r8, -24(%rbp)
.Ltmp131:
	.cv_loc	19 8 301 0
	movq	(%rcx), %rdx
	testq	%rdx, %rdx
	movq	%rcx, -40(%rbp)
.Ltmp132:
	movq	%rdx, -48(%rbp)
	je	.LBB19_1
	jmp	.LBB19_8
.Ltmp133:
.LBB19_8:
	movq	-48(%rbp), %rax
	subq	$1, %rax
	movq	%rax, -56(%rbp)
	je	.LBB19_3
	jmp	.LBB19_2
.Ltmp134:
.LBB19_1:
	.cv_loc	19 8 302 0
	movq	-32(%rbp), %rcx
	movq	-24(%rbp), %rdx
.Ltmp129:
	callq	_ZN4core6option13expect_failed17hdbc3572d3ce1134cE
.Ltmp130:
	jmp	.LBB19_7
.Ltmp135:
.LBB19_2:
	.cv_loc	19 8 304 0
	ud2
.Ltmp136:
.LBB19_3:
	.cv_loc	19 8 301 0
	movq	-40(%rbp), %rax
	movq	8(%rax), %rcx
	movq	%rcx, -16(%rbp)
	movq	-16(%rbp), %rax
.Ltmp137:
	.cv_loc	19 8 304 0
	movq	-40(%rbp), %rcx
	cmpq	$1, (%rcx)
	movq	%rax, -64(%rbp)
	jne	.LBB19_5
.Ltmp138:
.LBB19_4:
	movq	-64(%rbp), %rax
	addq	$96, %rsp
	popq	%rbp
.Ltmp139:
	retq
.LBB19_5:
.Ltmp140:
	jmp	.LBB19_4
.Ltmp141:
.LBB19_7:
	ud2
.Ltmp142:
	.seh_handlerdata
	.long	($cppxdata$_ZN38_$LT$core..option..Option$LT$T$GT$$GT$6expect17hf76f5687ba0297c5E)@IMGREL
	.section	.text,"xr",one_only,_ZN38_$LT$core..option..Option$LT$T$GT$$GT$6expect17hf76f5687ba0297c5E
.Lcfi129:
	.seh_endproc
	.def	 "?dtor$6@?0?_ZN38_$LT$core..option..Option$LT$T$GT$$GT$6expect17hf76f5687ba0297c5E@4HA";
	.scl	3;
	.type	32;
	.endef
	.p2align	4, 0x90
"?dtor$6@?0?_ZN38_$LT$core..option..Option$LT$T$GT$$GT$6expect17hf76f5687ba0297c5E@4HA":
.Lcfi130:
.seh_proc "?dtor$6@?0?_ZN38_$LT$core..option..Option$LT$T$GT$$GT$6expect17hf76f5687ba0297c5E@4HA"
.LBB19_6:
	movq	%rdx, 16(%rsp)
	pushq	%rbp
.Lcfi131:
	.seh_pushreg 5
	subq	$32, %rsp
.Lcfi132:
	.seh_stackalloc 32
	leaq	96(%rdx), %rbp
.Ltmp143:
.Lcfi133:
	.seh_endprologue
	.cv_loc	19 8 299 0
	addq	$32, %rsp
	popq	%rbp
	retq
.Ltmp144:
.Lfunc_end19:
	.seh_handlerdata
	.section	.text,"xr",one_only,_ZN38_$LT$core..option..Option$LT$T$GT$$GT$6expect17hf76f5687ba0297c5E
.Lcfi134:
	.seh_endproc
	.section	.xdata,"dr",associative,_ZN38_$LT$core..option..Option$LT$T$GT$$GT$6expect17hf76f5687ba0297c5E
	.p2align	2
$cppxdata$_ZN38_$LT$core..option..Option$LT$T$GT$$GT$6expect17hf76f5687ba0297c5E:
	.long	429065506
	.long	1
	.long	($stateUnwindMap$_ZN38_$LT$core..option..Option$LT$T$GT$$GT$6expect17hf76f5687ba0297c5E)@IMGREL
	.long	0
	.long	0
	.long	3
	.long	($ip2state$_ZN38_$LT$core..option..Option$LT$T$GT$$GT$6expect17hf76f5687ba0297c5E)@IMGREL
	.long	88
	.long	0
	.long	1
$stateUnwindMap$_ZN38_$LT$core..option..Option$LT$T$GT$$GT$6expect17hf76f5687ba0297c5E:
	.long	-1
	.long	"?dtor$6@?0?_ZN38_$LT$core..option..Option$LT$T$GT$$GT$6expect17hf76f5687ba0297c5E@4HA"@IMGREL
$ip2state$_ZN38_$LT$core..option..Option$LT$T$GT$$GT$6expect17hf76f5687ba0297c5E:
	.long	.Lfunc_begin19@IMGREL
	.long	-1
	.long	.Ltmp129@IMGREL+1
	.long	0
	.long	.Ltmp130@IMGREL+1
	.long	-1
	.section	.text,"xr",one_only,_ZN38_$LT$core..option..Option$LT$T$GT$$GT$6expect17hf76f5687ba0297c5E

	.def	 _ZN38_$LT$core..option..Option$LT$T$GT$$GT$6unwrap17h2f9f5ec56690740bE;
	.scl	3;
	.type	32;
	.endef
	.section	.text,"xr",one_only,_ZN38_$LT$core..option..Option$LT$T$GT$$GT$6unwrap17h2f9f5ec56690740bE
	.p2align	4, 0x90
_ZN38_$LT$core..option..Option$LT$T$GT$$GT$6unwrap17h2f9f5ec56690740bE:
.Lfunc_begin20:
	.cv_func_id 20
	.cv_loc	20 8 332 0
.Lcfi135:
.seh_proc _ZN38_$LT$core..option..Option$LT$T$GT$$GT$6unwrap17h2f9f5ec56690740bE
	.seh_handler __CxxFrameHandler3, @unwind, @except
	pushq	%rbp
.Lcfi136:
	.seh_pushreg 5
	subq	$96, %rsp
.Lcfi137:
	.seh_stackalloc 96
	leaq	96(%rsp), %rbp
.Lcfi138:
	.seh_setframe 5, 96
.Lcfi139:
	.seh_endprologue
	movq	$-2, -8(%rbp)
	movq	%rcx, %rax
.Ltmp147:
	.cv_loc	20 8 334 0
	movq	(%rdx), %r8
	testq	%r8, %r8
	movq	%rax, -32(%rbp)
	movq	%rdx, -40(%rbp)
.Ltmp148:
	movq	%rcx, -48(%rbp)
	movq	%r8, -56(%rbp)
	je	.LBB20_1
	jmp	.LBB20_8
.Ltmp149:
.LBB20_8:
	movq	-56(%rbp), %rax
	subq	$1, %rax
	movq	%rax, -64(%rbp)
	je	.LBB20_3
	jmp	.LBB20_2
.Ltmp150:
.LBB20_1:
	.cv_file	9 "C:\\projects\\rust\\src\\libcore\\macros.rs"
	.cv_loc	20 9 20 0
.Ltmp145:
	leaq	ref.9(%rip), %rcx
	callq	_ZN4core9panicking5panic17hbb9b03eae4db0581E
.Ltmp146:
	jmp	.LBB20_7
.Ltmp151:
.LBB20_2:
	.cv_loc	20 8 337 0
	ud2
.Ltmp152:
.LBB20_3:
	.cv_loc	20 8 334 0
	movq	-40(%rbp), %rax
	movq	8(%rax), %rcx
	movq	16(%rax), %rdx
	movq	%rcx, -24(%rbp)
	movq	%rdx, -16(%rbp)
	movq	-24(%rbp), %rcx
	movq	-16(%rbp), %rdx
	movq	-48(%rbp), %r8
	movq	%rcx, (%r8)
	movq	%rdx, 8(%r8)
.Ltmp153:
	.cv_loc	20 8 337 0
	cmpq	$1, (%rax)
	jne	.LBB20_5
.Ltmp154:
.LBB20_4:
	movq	-32(%rbp), %rax
	addq	$96, %rsp
	popq	%rbp
.Ltmp155:
	retq
.LBB20_5:
.Ltmp156:
	jmp	.LBB20_4
.Ltmp157:
.LBB20_7:
	ud2
.Ltmp158:
	.seh_handlerdata
	.long	($cppxdata$_ZN38_$LT$core..option..Option$LT$T$GT$$GT$6unwrap17h2f9f5ec56690740bE)@IMGREL
	.section	.text,"xr",one_only,_ZN38_$LT$core..option..Option$LT$T$GT$$GT$6unwrap17h2f9f5ec56690740bE
.Lcfi140:
	.seh_endproc
	.def	 "?dtor$6@?0?_ZN38_$LT$core..option..Option$LT$T$GT$$GT$6unwrap17h2f9f5ec56690740bE@4HA";
	.scl	3;
	.type	32;
	.endef
	.p2align	4, 0x90
"?dtor$6@?0?_ZN38_$LT$core..option..Option$LT$T$GT$$GT$6unwrap17h2f9f5ec56690740bE@4HA":
.Lcfi141:
.seh_proc "?dtor$6@?0?_ZN38_$LT$core..option..Option$LT$T$GT$$GT$6unwrap17h2f9f5ec56690740bE@4HA"
.LBB20_6:
	movq	%rdx, 16(%rsp)
	pushq	%rbp
.Lcfi142:
	.seh_pushreg 5
	subq	$32, %rsp
.Lcfi143:
	.seh_stackalloc 32
	leaq	96(%rdx), %rbp
.Ltmp159:
.Lcfi144:
	.seh_endprologue
	.cv_loc	20 8 332 0
	addq	$32, %rsp
	popq	%rbp
	retq
.Ltmp160:
.Lfunc_end20:
	.seh_handlerdata
	.section	.text,"xr",one_only,_ZN38_$LT$core..option..Option$LT$T$GT$$GT$6unwrap17h2f9f5ec56690740bE
.Lcfi145:
	.seh_endproc
	.section	.xdata,"dr",associative,_ZN38_$LT$core..option..Option$LT$T$GT$$GT$6unwrap17h2f9f5ec56690740bE
	.p2align	2
$cppxdata$_ZN38_$LT$core..option..Option$LT$T$GT$$GT$6unwrap17h2f9f5ec56690740bE:
	.long	429065506
	.long	1
	.long	($stateUnwindMap$_ZN38_$LT$core..option..Option$LT$T$GT$$GT$6unwrap17h2f9f5ec56690740bE)@IMGREL
	.long	0
	.long	0
	.long	3
	.long	($ip2state$_ZN38_$LT$core..option..Option$LT$T$GT$$GT$6unwrap17h2f9f5ec56690740bE)@IMGREL
	.long	88
	.long	0
	.long	1
$stateUnwindMap$_ZN38_$LT$core..option..Option$LT$T$GT$$GT$6unwrap17h2f9f5ec56690740bE:
	.long	-1
	.long	"?dtor$6@?0?_ZN38_$LT$core..option..Option$LT$T$GT$$GT$6unwrap17h2f9f5ec56690740bE@4HA"@IMGREL
$ip2state$_ZN38_$LT$core..option..Option$LT$T$GT$$GT$6unwrap17h2f9f5ec56690740bE:
	.long	.Lfunc_begin20@IMGREL
	.long	-1
	.long	.Ltmp145@IMGREL+1
	.long	0
	.long	.Ltmp146@IMGREL+1
	.long	-1
	.section	.text,"xr",one_only,_ZN38_$LT$core..option..Option$LT$T$GT$$GT$6unwrap17h2f9f5ec56690740bE

	.def	 _ZN38_$LT$core..option..Option$LT$T$GT$$GT$6unwrap17h8ba7b84da74ed2ccE;
	.scl	3;
	.type	32;
	.endef
	.section	.text,"xr",one_only,_ZN38_$LT$core..option..Option$LT$T$GT$$GT$6unwrap17h8ba7b84da74ed2ccE
	.p2align	4, 0x90
_ZN38_$LT$core..option..Option$LT$T$GT$$GT$6unwrap17h8ba7b84da74ed2ccE:
.Lfunc_begin21:
	.cv_func_id 21
	.cv_loc	21 8 332 0
.Lcfi146:
.seh_proc _ZN38_$LT$core..option..Option$LT$T$GT$$GT$6unwrap17h8ba7b84da74ed2ccE
	.seh_handler __CxxFrameHandler3, @unwind, @except
	pushq	%rbp
.Lcfi147:
	.seh_pushreg 5
	subq	$80, %rsp
.Lcfi148:
	.seh_stackalloc 80
	leaq	80(%rsp), %rbp
.Lcfi149:
	.seh_setframe 5, 80
.Lcfi150:
	.seh_endprologue
	movq	$-2, -8(%rbp)
	movq	%rcx, -24(%rbp)
.Ltmp163:
	.cv_loc	21 8 334 0
	movq	-24(%rbp), %rcx
	testq	%rcx, %rcx
	setne	%al
	movzbl	%al, %edx
	movl	%edx, %ecx
	movq	%rcx, -32(%rbp)
	je	.LBB21_1
	jmp	.LBB21_8
.Ltmp164:
.LBB21_8:
	movq	-32(%rbp), %rax
	subq	$1, %rax
	movq	%rax, -40(%rbp)
	je	.LBB21_3
	jmp	.LBB21_2
.Ltmp165:
.LBB21_1:
	.cv_loc	21 9 20 0
.Ltmp161:
	leaq	ref.9(%rip), %rcx
	callq	_ZN4core9panicking5panic17hbb9b03eae4db0581E
.Ltmp162:
	jmp	.LBB21_7
.Ltmp166:
.LBB21_2:
	.cv_loc	21 8 337 0
	ud2
.Ltmp167:
.LBB21_3:
	.cv_loc	21 8 334 0
	movq	-24(%rbp), %rax
	movq	%rax, -16(%rbp)
	movq	-16(%rbp), %rax
.Ltmp168:
	.cv_loc	21 8 337 0
	cmpq	$0, -24(%rbp)
	setne	%cl
	testb	$1, %cl
	movq	%rax, -48(%rbp)
	jne	.LBB21_4
	jmp	.LBB21_5
.Ltmp169:
.LBB21_4:
	movq	-48(%rbp), %rax
	addq	$80, %rsp
	popq	%rbp
.Ltmp170:
	retq
.LBB21_5:
.Ltmp171:
	jmp	.LBB21_4
.Ltmp172:
.LBB21_7:
	ud2
.Ltmp173:
	.seh_handlerdata
	.long	($cppxdata$_ZN38_$LT$core..option..Option$LT$T$GT$$GT$6unwrap17h8ba7b84da74ed2ccE)@IMGREL
	.section	.text,"xr",one_only,_ZN38_$LT$core..option..Option$LT$T$GT$$GT$6unwrap17h8ba7b84da74ed2ccE
.Lcfi151:
	.seh_endproc
	.def	 "?dtor$6@?0?_ZN38_$LT$core..option..Option$LT$T$GT$$GT$6unwrap17h8ba7b84da74ed2ccE@4HA";
	.scl	3;
	.type	32;
	.endef
	.p2align	4, 0x90
"?dtor$6@?0?_ZN38_$LT$core..option..Option$LT$T$GT$$GT$6unwrap17h8ba7b84da74ed2ccE@4HA":
.Lcfi152:
.seh_proc "?dtor$6@?0?_ZN38_$LT$core..option..Option$LT$T$GT$$GT$6unwrap17h8ba7b84da74ed2ccE@4HA"
.LBB21_6:
	movq	%rdx, 16(%rsp)
	pushq	%rbp
.Lcfi153:
	.seh_pushreg 5
	subq	$32, %rsp
.Lcfi154:
	.seh_stackalloc 32
	leaq	80(%rdx), %rbp
.Ltmp174:
.Lcfi155:
	.seh_endprologue
	.cv_loc	21 8 332 0
	addq	$32, %rsp
	popq	%rbp
	retq
.Ltmp175:
.Lfunc_end21:
	.seh_handlerdata
	.section	.text,"xr",one_only,_ZN38_$LT$core..option..Option$LT$T$GT$$GT$6unwrap17h8ba7b84da74ed2ccE
.Lcfi156:
	.seh_endproc
	.section	.xdata,"dr",associative,_ZN38_$LT$core..option..Option$LT$T$GT$$GT$6unwrap17h8ba7b84da74ed2ccE
	.p2align	2
$cppxdata$_ZN38_$LT$core..option..Option$LT$T$GT$$GT$6unwrap17h8ba7b84da74ed2ccE:
	.long	429065506
	.long	1
	.long	($stateUnwindMap$_ZN38_$LT$core..option..Option$LT$T$GT$$GT$6unwrap17h8ba7b84da74ed2ccE)@IMGREL
	.long	0
	.long	0
	.long	3
	.long	($ip2state$_ZN38_$LT$core..option..Option$LT$T$GT$$GT$6unwrap17h8ba7b84da74ed2ccE)@IMGREL
	.long	72
	.long	0
	.long	1
$stateUnwindMap$_ZN38_$LT$core..option..Option$LT$T$GT$$GT$6unwrap17h8ba7b84da74ed2ccE:
	.long	-1
	.long	"?dtor$6@?0?_ZN38_$LT$core..option..Option$LT$T$GT$$GT$6unwrap17h8ba7b84da74ed2ccE@4HA"@IMGREL
$ip2state$_ZN38_$LT$core..option..Option$LT$T$GT$$GT$6unwrap17h8ba7b84da74ed2ccE:
	.long	.Lfunc_begin21@IMGREL
	.long	-1
	.long	.Ltmp161@IMGREL+1
	.long	0
	.long	.Ltmp162@IMGREL+1
	.long	-1
	.section	.text,"xr",one_only,_ZN38_$LT$core..option..Option$LT$T$GT$$GT$6unwrap17h8ba7b84da74ed2ccE

	.def	 _ZN38_$LT$core..option..Option$LT$T$GT$$GT$7is_some17hea17421bd847246cE;
	.scl	3;
	.type	32;
	.endef
	.section	.text,"xr",one_only,_ZN38_$LT$core..option..Option$LT$T$GT$$GT$7is_some17hea17421bd847246cE
	.p2align	4, 0x90
_ZN38_$LT$core..option..Option$LT$T$GT$$GT$7is_some17hea17421bd847246cE:
.Lfunc_begin22:
	.cv_func_id 22
	.cv_loc	22 8 192 0
.Lcfi157:
.seh_proc _ZN38_$LT$core..option..Option$LT$T$GT$$GT$7is_some17hea17421bd847246cE
	pushq	%rbp
.Lcfi158:
	.seh_pushreg 5
	subq	$32, %rsp
.Lcfi159:
	.seh_stackalloc 32
	leaq	32(%rsp), %rbp
.Lcfi160:
	.seh_setframe 5, 32
.Lcfi161:
	.seh_endprologue
	movq	%rcx, -16(%rbp)
.Ltmp176:
	.cv_loc	22 8 194 0
	movq	-16(%rbp), %rcx
	movzbl	(%rcx), %eax
	movl	%eax, %ecx
	testq	%rcx, %rcx
	movq	%rcx, -24(%rbp)
	je	.LBB22_2
	jmp	.LBB22_5
.Ltmp177:
.LBB22_5:
	movq	-24(%rbp), %rax
	subq	$1, %rax
	movq	%rax, -32(%rbp)
	jne	.LBB22_3
	jmp	.LBB22_1
.Ltmp178:
.LBB22_1:
	movb	$1, -1(%rbp)
	.cv_loc	22 8 193 0
	jmp	.LBB22_4
.Ltmp179:
.LBB22_2:
	.cv_loc	22 8 195 0
	movb	$0, -1(%rbp)
	.cv_loc	22 8 193 0
	jmp	.LBB22_4
.Ltmp180:
.LBB22_3:
	.cv_loc	22 8 197 0
	ud2
.Ltmp181:
.LBB22_4:
	movb	-1(%rbp), %al
	andb	$1, %al
	movzbl	%al, %eax
	addq	$32, %rsp
	popq	%rbp
.Ltmp182:
	retq
.Ltmp183:
.Lfunc_end22:
	.seh_handlerdata
	.section	.text,"xr",one_only,_ZN38_$LT$core..option..Option$LT$T$GT$$GT$7is_some17hea17421bd847246cE
.Lcfi162:
	.seh_endproc

	.def	 _ZN3std2io5error5Error3new17h6bbd054f1159f149E;
	.scl	3;
	.type	32;
	.endef
	.section	.text,"xr",one_only,_ZN3std2io5error5Error3new17h6bbd054f1159f149E
	.p2align	4, 0x90
_ZN3std2io5error5Error3new17h6bbd054f1159f149E:
.Lfunc_begin23:
	.cv_func_id 23
	.cv_file	10 "C:\\projects\\rust\\src\\libstd\\io\\error.rs"
	.cv_loc	23 10 246 0
.Lcfi163:
.seh_proc _ZN3std2io5error5Error3new17h6bbd054f1159f149E
	pushq	%rbp
.Lcfi164:
	.seh_pushreg 5
	subq	$112, %rsp
.Lcfi165:
	.seh_stackalloc 112
	leaq	112(%rsp), %rbp
.Lcfi166:
	.seh_setframe 5, 112
.Lcfi167:
	.seh_endprologue
	movb	%dl, %al
	movq	%rcx, %r10
	movb	%al, -25(%rbp)
	movq	%r8, -24(%rbp)
	movq	%r9, -16(%rbp)
.Ltmp184:
	.cv_loc	23 10 249 0
	movb	-25(%rbp), %al
	movb	%al, -1(%rbp)
	movq	-24(%rbp), %r8
	movq	-16(%rbp), %rdx
	movq	%rcx, -40(%rbp)
	movq	%r8, %rcx
	movq	%r10, -48(%rbp)
	callq	_ZN50_$LT$T$u20$as$u20$core..convert..Into$LT$U$GT$$GT$4into17had88e5fa9175f25fE
	movq	%rax, -56(%rbp)
	movq	%rdx, -64(%rbp)
	movb	-1(%rbp), %al
	movq	-56(%rbp), %rcx
	movq	-64(%rbp), %rdx
	movq	-40(%rbp), %r8
	movq	%rcx, -72(%rbp)
	movq	%r8, %rcx
	movzbl	%al, %r9d
	movq	%rdx, -80(%rbp)
	movl	%r9d, %edx
	movq	-72(%rbp), %r8
	movq	-80(%rbp), %r9
	callq	_ZN3std2io5error5Error4_new17hea8c6412424cc262E
	.cv_loc	23 10 250 0
	movq	-48(%rbp), %rax
	addq	$112, %rsp
	popq	%rbp
	retq
.Ltmp185:
.Lfunc_end23:
	.seh_handlerdata
	.section	.text,"xr",one_only,_ZN3std2io5error5Error3new17h6bbd054f1159f149E
.Lcfi168:
	.seh_endproc

	.def	 _ZN3std2io5stdio12handle_ebadf17h89be4ec3d1961ea5E;
	.scl	3;
	.type	32;
	.endef
	.section	.text,"xr",one_only,_ZN3std2io5stdio12handle_ebadf17h89be4ec3d1961ea5E
	.p2align	4, 0x90
_ZN3std2io5stdio12handle_ebadf17h89be4ec3d1961ea5E:
.Lfunc_begin24:
	.cv_func_id 24
	.cv_file	11 "C:\\projects\\rust\\src\\libstd\\io\\stdio.rs"
	.cv_loc	24 11 123 0
.Lcfi169:
.seh_proc _ZN3std2io5stdio12handle_ebadf17h89be4ec3d1961ea5E
	.seh_handler __CxxFrameHandler3, @unwind, @except
	pushq	%rbp
.Lcfi170:
	.seh_pushreg 5
	subq	$144, %rsp
.Lcfi171:
	.seh_stackalloc 144
	leaq	128(%rsp), %rbp
.Lcfi172:
	.seh_setframe 5, 128
.Lcfi173:
	.seh_endprologue
	movq	$-2, 8(%rbp)
	movq	%rcx, %rax
	movq	%r8, -64(%rbp)
.Ltmp188:
	.cv_loc	24 11 125 0
	movb	$0, 6(%rbp)
	movb	$0, 7(%rbp)
	movb	$1, 6(%rbp)
	movb	$1, 7(%rbp)
	cmpq	$1, (%rdx)
	movq	%rax, -72(%rbp)
	movq	%rcx, -80(%rbp)
	movq	%rdx, -88(%rbp)
.Ltmp189:
	je	.LBB24_2
	jmp	.LBB24_5
.Ltmp190:
.LBB24_1:
	.cv_loc	24 11 125 0
	movb	$0, 7(%rbp)
	movq	-64(%rbp), %rax
	movq	-80(%rbp), %rcx
	movq	$0, (%rcx)
	movq	%rax, 8(%rcx)
.Ltmp191:
	.cv_loc	24 11 124 0
	jmp	.LBB24_6
.Ltmp192:
.LBB24_2:
	.cv_loc	24 11 125 0
	movq	-88(%rbp), %rax
	addq	$8, %rax
	movq	%rax, -56(%rbp)
	movq	-56(%rbp), %rcx
.Ltmp186:
	callq	_ZN3std3sys3imp5stdio8is_ebadf17he3fdb8cd016adcd2E
.Ltmp187:
	movb	%al, -89(%rbp)
	jmp	.LBB24_3
.Ltmp193:
.LBB24_3:
	movb	-89(%rbp), %al
	testb	$1, %al
	jne	.LBB24_1
	jmp	.LBB24_5
.Ltmp194:
.LBB24_5:
	.cv_loc	24 11 126 0
	movb	$0, 6(%rbp)
	movq	-88(%rbp), %rax
	movq	(%rax), %rcx
	movq	%rcx, -48(%rbp)
	movq	8(%rax), %rcx
	movq	%rcx, -40(%rbp)
	movq	16(%rax), %rcx
	movq	%rcx, -32(%rbp)
	movq	-48(%rbp), %rcx
	movq	%rcx, -24(%rbp)
	movq	-40(%rbp), %rcx
	movq	%rcx, -16(%rbp)
	movq	-32(%rbp), %rcx
	movq	%rcx, -8(%rbp)
	movq	-24(%rbp), %rcx
	movq	-80(%rbp), %rdx
	movq	%rcx, (%rdx)
	movq	-16(%rbp), %rcx
	movq	%rcx, 8(%rdx)
	movq	-8(%rbp), %rcx
	movq	%rcx, 16(%rdx)
.Ltmp195:
.LBB24_6:
	.cv_loc	24 11 128 0
	testb	$1, 7(%rbp)
	jne	.LBB24_10
.LBB24_7:
	testb	$1, 6(%rbp)
	jne	.LBB24_11
.LBB24_8:
	movq	-72(%rbp), %rax
	addq	$144, %rsp
	popq	%rbp
	retq
.LBB24_10:
	movb	$0, 7(%rbp)
	jmp	.LBB24_7
.LBB24_11:
	movb	$0, 6(%rbp)
	movq	-88(%rbp), %rcx
	callq	_ZN4core3ptr13drop_in_place17h846ad4f85b4b56acE
	jmp	.LBB24_8
.LBB24_4:
.Ltmp196:
	.cv_loc	24 11 123 0
	addq	$32, %rsp
	popq	%rbp
.Ltmp197:
	retq
.LBB24_9:
.Ltmp198:
	.cv_loc	24 11 128 0
	movb	$0, 6(%rbp)
	movq	-88(%rbp), %rcx
	callq	_ZN4core3ptr13drop_in_place17h846ad4f85b4b56acE
	jmp	.LBB24_4
.Ltmp199:
	.seh_handlerdata
	.long	($cppxdata$_ZN3std2io5stdio12handle_ebadf17h89be4ec3d1961ea5E)@IMGREL
	.section	.text,"xr",one_only,_ZN3std2io5stdio12handle_ebadf17h89be4ec3d1961ea5E
.Lcfi174:
	.seh_endproc
	.def	 "?dtor$12@?0?_ZN3std2io5stdio12handle_ebadf17h89be4ec3d1961ea5E@4HA";
	.scl	3;
	.type	32;
	.endef
	.p2align	4, 0x90
"?dtor$12@?0?_ZN3std2io5stdio12handle_ebadf17h89be4ec3d1961ea5E@4HA":
.Lcfi175:
.seh_proc "?dtor$12@?0?_ZN3std2io5stdio12handle_ebadf17h89be4ec3d1961ea5E@4HA"
.LBB24_12:
	movq	%rdx, 16(%rsp)
	pushq	%rbp
.Lcfi176:
	.seh_pushreg 5
	subq	$32, %rsp
.Lcfi177:
	.seh_stackalloc 32
	leaq	128(%rdx), %rbp
.Ltmp200:
.Lcfi178:
	.seh_endprologue
	testb	$1, 6(%rbp)
	jne	.LBB24_9
	jmp	.LBB24_4
	.seh_handlerdata
	.section	.text,"xr",one_only,_ZN3std2io5stdio12handle_ebadf17h89be4ec3d1961ea5E
.Lcfi179:
	.seh_endproc
	.def	 "?dtor$13@?0?_ZN3std2io5stdio12handle_ebadf17h89be4ec3d1961ea5E@4HA";
	.scl	3;
	.type	32;
	.endef
	.p2align	4, 0x90
"?dtor$13@?0?_ZN3std2io5stdio12handle_ebadf17h89be4ec3d1961ea5E@4HA":
.Lcfi180:
.seh_proc "?dtor$13@?0?_ZN3std2io5stdio12handle_ebadf17h89be4ec3d1961ea5E@4HA"
.LBB24_13:
.Ltmp201:
	movq	%rdx, 16(%rsp)
	pushq	%rbp
.Lcfi181:
	.seh_pushreg 5
	subq	$32, %rsp
.Lcfi182:
	.seh_stackalloc 32
	leaq	128(%rdx), %rbp
.Ltmp202:
.Lcfi183:
	.seh_endprologue
	movb	$0, 7(%rbp)
	addq	$32, %rsp
	popq	%rbp
	retq
.Ltmp203:
.Lfunc_end24:
	.seh_handlerdata
	.section	.text,"xr",one_only,_ZN3std2io5stdio12handle_ebadf17h89be4ec3d1961ea5E
.Lcfi184:
	.seh_endproc
	.section	.xdata,"dr",associative,_ZN3std2io5stdio12handle_ebadf17h89be4ec3d1961ea5E
	.p2align	2
$cppxdata$_ZN3std2io5stdio12handle_ebadf17h89be4ec3d1961ea5E:
	.long	429065506
	.long	2
	.long	($stateUnwindMap$_ZN3std2io5stdio12handle_ebadf17h89be4ec3d1961ea5E)@IMGREL
	.long	0
	.long	0
	.long	3
	.long	($ip2state$_ZN3std2io5stdio12handle_ebadf17h89be4ec3d1961ea5E)@IMGREL
	.long	136
	.long	0
	.long	1
$stateUnwindMap$_ZN3std2io5stdio12handle_ebadf17h89be4ec3d1961ea5E:
	.long	-1
	.long	"?dtor$12@?0?_ZN3std2io5stdio12handle_ebadf17h89be4ec3d1961ea5E@4HA"@IMGREL
	.long	0
	.long	"?dtor$13@?0?_ZN3std2io5stdio12handle_ebadf17h89be4ec3d1961ea5E@4HA"@IMGREL
$ip2state$_ZN3std2io5stdio12handle_ebadf17h89be4ec3d1961ea5E:
	.long	.Lfunc_begin24@IMGREL
	.long	-1
	.long	.Ltmp186@IMGREL+1
	.long	1
	.long	.Ltmp187@IMGREL+1
	.long	-1
	.section	.text,"xr",one_only,_ZN3std2io5stdio12handle_ebadf17h89be4ec3d1961ea5E

	.def	 _ZN40_$LT$alloc..raw_vec..RawVec$LT$T$GT$$GT$13with_capacity17h1409b20d0e260ff0E;
	.scl	3;
	.type	32;
	.endef
	.section	.text,"xr",one_only,_ZN40_$LT$alloc..raw_vec..RawVec$LT$T$GT$$GT$13with_capacity17h1409b20d0e260ff0E
	.p2align	4, 0x90
_ZN40_$LT$alloc..raw_vec..RawVec$LT$T$GT$$GT$13with_capacity17h1409b20d0e260ff0E:
.Lfunc_begin25:
	.cv_func_id 25
	.cv_file	12 "C:\\projects\\rust\\src\\liballoc\\raw_vec.rs"
	.cv_loc	25 12 140 0
.Lcfi185:
.seh_proc _ZN40_$LT$alloc..raw_vec..RawVec$LT$T$GT$$GT$13with_capacity17h1409b20d0e260ff0E
	pushq	%rbp
.Lcfi186:
	.seh_pushreg 5
	subq	$48, %rsp
.Lcfi187:
	.seh_stackalloc 48
	leaq	48(%rsp), %rbp
.Lcfi188:
	.seh_setframe 5, 48
.Lcfi189:
	.seh_endprologue
	movq	%rcx, %rax
	xorl	%r8d, %r8d
	movq	%rdx, -8(%rbp)
.Ltmp204:
	.cv_loc	25 12 141 0
	movq	-8(%rbp), %rdx
	movq	%rax, -16(%rbp)
	callq	_ZN49_$LT$alloc..raw_vec..RawVec$LT$T$C$$u20$A$GT$$GT$11allocate_in17h74a293d0195a5d8bE
	.cv_loc	25 12 142 0
	movq	-16(%rbp), %rax
	addq	$48, %rsp
	popq	%rbp
	retq
.Ltmp205:
.Lfunc_end25:
	.seh_handlerdata
	.section	.text,"xr",one_only,_ZN40_$LT$alloc..raw_vec..RawVec$LT$T$GT$$GT$13with_capacity17h1409b20d0e260ff0E
.Lcfi190:
	.seh_endproc

	.def	 _ZN40_$LT$alloc..raw_vec..RawVec$LT$T$GT$$GT$20with_capacity_zeroed17h65d62d4ec7ac68e5E;
	.scl	3;
	.type	32;
	.endef
	.section	.text,"xr",one_only,_ZN40_$LT$alloc..raw_vec..RawVec$LT$T$GT$$GT$20with_capacity_zeroed17h65d62d4ec7ac68e5E
	.p2align	4, 0x90
_ZN40_$LT$alloc..raw_vec..RawVec$LT$T$GT$$GT$20with_capacity_zeroed17h65d62d4ec7ac68e5E:
.Lfunc_begin26:
	.cv_func_id 26
	.cv_loc	26 12 146 0
.Lcfi191:
.seh_proc _ZN40_$LT$alloc..raw_vec..RawVec$LT$T$GT$$GT$20with_capacity_zeroed17h65d62d4ec7ac68e5E
	pushq	%rbp
.Lcfi192:
	.seh_pushreg 5
	subq	$48, %rsp
.Lcfi193:
	.seh_stackalloc 48
	leaq	48(%rsp), %rbp
.Lcfi194:
	.seh_setframe 5, 48
.Lcfi195:
	.seh_endprologue
	movq	%rcx, %rax
	movl	$1, %r8d
	movq	%rdx, -8(%rbp)
.Ltmp206:
	.cv_loc	26 12 147 0
	movq	-8(%rbp), %rdx
	movq	%rax, -16(%rbp)
	callq	_ZN49_$LT$alloc..raw_vec..RawVec$LT$T$C$$u20$A$GT$$GT$11allocate_in17h74a293d0195a5d8bE
	.cv_loc	26 12 148 0
	movq	-16(%rbp), %rax
	addq	$48, %rsp
	popq	%rbp
	retq
.Ltmp207:
.Lfunc_end26:
	.seh_handlerdata
	.section	.text,"xr",one_only,_ZN40_$LT$alloc..raw_vec..RawVec$LT$T$GT$$GT$20with_capacity_zeroed17h65d62d4ec7ac68e5E
.Lcfi196:
	.seh_endproc

	.def	 _ZN40_$LT$core..cell..UnsafeCell$LT$T$GT$$GT$3get17h292987dfa6a6b0c8E;
	.scl	3;
	.type	32;
	.endef
	.section	.text,"xr",one_only,_ZN40_$LT$core..cell..UnsafeCell$LT$T$GT$$GT$3get17h292987dfa6a6b0c8E
	.p2align	4, 0x90
_ZN40_$LT$core..cell..UnsafeCell$LT$T$GT$$GT$3get17h292987dfa6a6b0c8E:
.Lfunc_begin27:
	.cv_func_id 27
	.cv_file	13 "C:\\projects\\rust\\src\\libcore\\cell.rs"
	.cv_loc	27 13 1241 0
.Lcfi197:
.seh_proc _ZN40_$LT$core..cell..UnsafeCell$LT$T$GT$$GT$3get17h292987dfa6a6b0c8E
	pushq	%rbp
.Lcfi198:
	.seh_pushreg 5
	pushq	%rax
.Lcfi199:
	.seh_stackalloc 8
	movq	%rsp, %rbp
.Lcfi200:
	.seh_setframe 5, 0
.Lcfi201:
	.seh_endprologue
	movq	%rcx, (%rbp)
.Ltmp208:
	.cv_loc	27 13 1242 0
	movq	(%rbp), %rax
	.cv_loc	27 13 1243 0
	addq	$8, %rsp
	popq	%rbp
	retq
.Ltmp209:
.Lfunc_end27:
	.seh_handlerdata
	.section	.text,"xr",one_only,_ZN40_$LT$core..cell..UnsafeCell$LT$T$GT$$GT$3get17h292987dfa6a6b0c8E
.Lcfi202:
	.seh_endproc

	.def	 _ZN40_$LT$core..nonzero..NonZero$LT$T$GT$$GT$13new_unchecked17h1d35b8d4b4226921E;
	.scl	3;
	.type	32;
	.endef
	.section	.text,"xr",one_only,_ZN40_$LT$core..nonzero..NonZero$LT$T$GT$$GT$13new_unchecked17h1d35b8d4b4226921E
	.p2align	4, 0x90
_ZN40_$LT$core..nonzero..NonZero$LT$T$GT$$GT$13new_unchecked17h1d35b8d4b4226921E:
.Lfunc_begin28:
	.cv_func_id 28
	.cv_loc	28 3 76 0
.Lcfi203:
.seh_proc _ZN40_$LT$core..nonzero..NonZero$LT$T$GT$$GT$13new_unchecked17h1d35b8d4b4226921E
	pushq	%rbp
.Lcfi204:
	.seh_pushreg 5
	subq	$16, %rsp
.Lcfi205:
	.seh_stackalloc 16
	leaq	16(%rsp), %rbp
.Lcfi206:
	.seh_setframe 5, 16
.Lcfi207:
	.seh_endprologue
	movq	%rcx, -16(%rbp)
.Ltmp210:
	.cv_loc	28 3 77 0
	movq	-16(%rbp), %rcx
	movq	%rcx, -8(%rbp)
	.cv_loc	28 3 78 0
	movq	-8(%rbp), %rax
	addq	$16, %rsp
	popq	%rbp
	retq
.Ltmp211:
.Lfunc_end28:
	.seh_handlerdata
	.section	.text,"xr",one_only,_ZN40_$LT$core..nonzero..NonZero$LT$T$GT$$GT$13new_unchecked17h1d35b8d4b4226921E
.Lcfi208:
	.seh_endproc

	.def	 _ZN40_$LT$core..nonzero..NonZero$LT$T$GT$$GT$3get17h52d5083f66d4a0b9E;
	.scl	3;
	.type	32;
	.endef
	.section	.text,"xr",one_only,_ZN40_$LT$core..nonzero..NonZero$LT$T$GT$$GT$3get17h52d5083f66d4a0b9E
	.p2align	4, 0x90
_ZN40_$LT$core..nonzero..NonZero$LT$T$GT$$GT$3get17h52d5083f66d4a0b9E:
.Lfunc_begin29:
	.cv_func_id 29
	.cv_loc	29 3 91 0
.Lcfi209:
.seh_proc _ZN40_$LT$core..nonzero..NonZero$LT$T$GT$$GT$3get17h52d5083f66d4a0b9E
	pushq	%rbp
.Lcfi210:
	.seh_pushreg 5
	subq	$16, %rsp
.Lcfi211:
	.seh_stackalloc 16
	leaq	16(%rsp), %rbp
.Lcfi212:
	.seh_setframe 5, 16
.Lcfi213:
	.seh_endprologue
	movq	%rcx, -8(%rbp)
	movq	-8(%rbp), %rcx
	movq	%rcx, -16(%rbp)
.Ltmp212:
	.cv_loc	29 3 92 0
	movq	-16(%rbp), %rax
	.cv_loc	29 3 93 0
	addq	$16, %rsp
	popq	%rbp
	retq
.Ltmp213:
.Lfunc_end29:
	.seh_handlerdata
	.section	.text,"xr",one_only,_ZN40_$LT$core..nonzero..NonZero$LT$T$GT$$GT$3get17h52d5083f66d4a0b9E
.Lcfi214:
	.seh_endproc

	.def	 _ZN40_$LT$core..nonzero..NonZero$LT$T$GT$$GT$3get17h65b95219d90e1039E;
	.scl	3;
	.type	32;
	.endef
	.section	.text,"xr",one_only,_ZN40_$LT$core..nonzero..NonZero$LT$T$GT$$GT$3get17h65b95219d90e1039E
	.p2align	4, 0x90
_ZN40_$LT$core..nonzero..NonZero$LT$T$GT$$GT$3get17h65b95219d90e1039E:
.Lfunc_begin30:
	.cv_func_id 30
	.cv_loc	30 3 91 0
.Lcfi215:
.seh_proc _ZN40_$LT$core..nonzero..NonZero$LT$T$GT$$GT$3get17h65b95219d90e1039E
	pushq	%rbp
.Lcfi216:
	.seh_pushreg 5
	subq	$16, %rsp
.Lcfi217:
	.seh_stackalloc 16
	leaq	16(%rsp), %rbp
.Lcfi218:
	.seh_setframe 5, 16
.Lcfi219:
	.seh_endprologue
	movq	%rcx, -8(%rbp)
	movq	-8(%rbp), %rcx
	movq	%rcx, -16(%rbp)
.Ltmp214:
	.cv_loc	30 3 92 0
	movq	-16(%rbp), %rax
	.cv_loc	30 3 93 0
	addq	$16, %rsp
	popq	%rbp
	retq
.Ltmp215:
.Lfunc_end30:
	.seh_handlerdata
	.section	.text,"xr",one_only,_ZN40_$LT$core..nonzero..NonZero$LT$T$GT$$GT$3get17h65b95219d90e1039E
.Lcfi220:
	.seh_endproc

	.def	 _ZN40_$LT$core..nonzero..NonZero$LT$T$GT$$GT$3get17ha3674972eca57207E;
	.scl	3;
	.type	32;
	.endef
	.section	.text,"xr",one_only,_ZN40_$LT$core..nonzero..NonZero$LT$T$GT$$GT$3get17ha3674972eca57207E
	.p2align	4, 0x90
_ZN40_$LT$core..nonzero..NonZero$LT$T$GT$$GT$3get17ha3674972eca57207E:
.Lfunc_begin31:
	.cv_func_id 31
	.cv_loc	31 3 91 0
.Lcfi221:
.seh_proc _ZN40_$LT$core..nonzero..NonZero$LT$T$GT$$GT$3get17ha3674972eca57207E
	pushq	%rbp
.Lcfi222:
	.seh_pushreg 5
	subq	$16, %rsp
.Lcfi223:
	.seh_stackalloc 16
	leaq	16(%rsp), %rbp
.Lcfi224:
	.seh_setframe 5, 16
.Lcfi225:
	.seh_endprologue
	movq	%rcx, -8(%rbp)
	movq	-8(%rbp), %rcx
	movq	%rcx, -16(%rbp)
.Ltmp216:
	.cv_loc	31 3 92 0
	movq	-16(%rbp), %rax
	.cv_loc	31 3 93 0
	addq	$16, %rsp
	popq	%rbp
	retq
.Ltmp217:
.Lfunc_end31:
	.seh_handlerdata
	.section	.text,"xr",one_only,_ZN40_$LT$core..nonzero..NonZero$LT$T$GT$$GT$3get17ha3674972eca57207E
.Lcfi226:
	.seh_endproc

	.def	 _ZN41_$LT$core..mem..ManuallyDrop$LT$T$GT$$GT$10into_inner17hcfcb9a6de33fbeb3E;
	.scl	3;
	.type	32;
	.endef
	.section	.text,"xr",one_only,_ZN41_$LT$core..mem..ManuallyDrop$LT$T$GT$$GT$10into_inner17hcfcb9a6de33fbeb3E
	.p2align	4, 0x90
_ZN41_$LT$core..mem..ManuallyDrop$LT$T$GT$$GT$10into_inner17hcfcb9a6de33fbeb3E:
.Lfunc_begin32:
	.cv_func_id 32
	.cv_file	14 "C:\\projects\\rust\\src\\libcore\\mem.rs"
	.cv_loc	32 14 979 0
.Lcfi227:
.seh_proc _ZN41_$LT$core..mem..ManuallyDrop$LT$T$GT$$GT$10into_inner17hcfcb9a6de33fbeb3E
	pushq	%rbp
.Lcfi228:
	.seh_pushreg 5
	subq	$24, %rsp
.Lcfi229:
	.seh_stackalloc 24
	leaq	16(%rsp), %rbp
.Lcfi230:
	.seh_setframe 5, 16
.Lcfi231:
	.seh_endprologue
	movq	%rcx, %rax
.Ltmp218:
	.cv_loc	32 14 981 0
	movq	(%rdx), %r8
	movq	%r8, -16(%rbp)
	movq	8(%rdx), %r8
	movq	%r8, -8(%rbp)
	movq	16(%rdx), %rdx
.Ltmp219:
	movq	%rdx, (%rbp)
	movq	-16(%rbp), %rdx
	movq	%rdx, (%rcx)
	movq	-8(%rbp), %rdx
	movq	%rdx, 8(%rcx)
	movq	(%rbp), %rdx
	movq	%rdx, 16(%rcx)
.Ltmp220:
	.cv_loc	32 14 983 0
	addq	$24, %rsp
	popq	%rbp
	retq
.Ltmp221:
.Lfunc_end32:
	.seh_handlerdata
	.section	.text,"xr",one_only,_ZN41_$LT$core..mem..ManuallyDrop$LT$T$GT$$GT$10into_inner17hcfcb9a6de33fbeb3E
.Lcfi232:
	.seh_endproc

	.def	 _ZN41_$LT$core..mem..ManuallyDrop$LT$T$GT$$GT$3new17hcacc0ea375c3e68fE;
	.scl	3;
	.type	32;
	.endef
	.section	.text,"xr",one_only,_ZN41_$LT$core..mem..ManuallyDrop$LT$T$GT$$GT$3new17hcacc0ea375c3e68fE
	.p2align	4, 0x90
_ZN41_$LT$core..mem..ManuallyDrop$LT$T$GT$$GT$3new17hcacc0ea375c3e68fE:
.Lfunc_begin33:
	.cv_func_id 33
	.cv_loc	33 14 964 0
.Lcfi233:
.seh_proc _ZN41_$LT$core..mem..ManuallyDrop$LT$T$GT$$GT$3new17hcacc0ea375c3e68fE
	pushq	%rbp
.Lcfi234:
	.seh_pushreg 5
	subq	$24, %rsp
.Lcfi235:
	.seh_stackalloc 24
	leaq	16(%rsp), %rbp
.Lcfi236:
	.seh_setframe 5, 16
.Lcfi237:
	.seh_endprologue
	movq	%rcx, %rax
.Ltmp222:
	.cv_loc	33 14 965 0
	movq	(%rdx), %r8
	movq	%r8, -16(%rbp)
	movq	8(%rdx), %r8
	movq	%r8, -8(%rbp)
	movq	16(%rdx), %rdx
.Ltmp223:
	movq	%rdx, (%rbp)
	movq	-16(%rbp), %rdx
	movq	%rdx, (%rcx)
	movq	-8(%rbp), %rdx
	movq	%rdx, 8(%rcx)
	movq	(%rbp), %rdx
	movq	%rdx, 16(%rcx)
	.cv_loc	33 14 966 0
	addq	$24, %rsp
	popq	%rbp
	retq
.Ltmp224:
.Lfunc_end33:
	.seh_handlerdata
	.section	.text,"xr",one_only,_ZN41_$LT$core..mem..ManuallyDrop$LT$T$GT$$GT$3new17hcacc0ea375c3e68fE
.Lcfi238:
	.seh_endproc

	.def	 _ZN46_$LT$std..io..buffered..BufWriter$LT$W$GT$$GT$9flush_buf17h0c22c6192ac8b501E;
	.scl	3;
	.type	32;
	.endef
	.section	.text,"xr",one_only,_ZN46_$LT$std..io..buffered..BufWriter$LT$W$GT$$GT$9flush_buf17h0c22c6192ac8b501E
	.p2align	4, 0x90
_ZN46_$LT$std..io..buffered..BufWriter$LT$W$GT$$GT$9flush_buf17h0c22c6192ac8b501E:
.Lfunc_begin34:
	.cv_func_id 34
	.cv_file	15 "C:\\projects\\rust\\src\\libstd\\io\\buffered.rs"
	.cv_loc	34 15 424 0
.Lcfi239:
.seh_proc _ZN46_$LT$std..io..buffered..BufWriter$LT$W$GT$$GT$9flush_buf17h0c22c6192ac8b501E
	.seh_handler __CxxFrameHandler3, @unwind, @except
	pushq	%rbp
.Lcfi240:
	.seh_pushreg 5
	subq	$416, %rsp
.Lcfi241:
	.seh_stackalloc 416
	leaq	128(%rsp), %rbp
.Lcfi242:
	.seh_setframe 5, 128
.Lcfi243:
	.seh_endprologue
	movq	$-2, 280(%rbp)
	movq	%rcx, %rax
	movq	%rdx, -24(%rbp)
.Ltmp249:
	.cv_loc	34 15 425 0
	movb	$0, 279(%rbp)
	movq	$0, -16(%rbp)
.Ltmp250:
	.cv_loc	34 15 426 0
	movq	-24(%rbp), %rdx
	movq	%rcx, -32(%rbp)
	movq	%rdx, %rcx
	movq	%rax, -40(%rbp)
	callq	_ZN33_$LT$alloc..vec..Vec$LT$T$GT$$GT$3len17h5ace7515aa20d70aE
	movq	%rax, -8(%rbp)
.Ltmp251:
	.cv_loc	34 15 427 0
	movq	$0, (%rbp)
.LBB34_1:
	.cv_loc	34 15 428 0
	movq	-16(%rbp), %rax
	cmpq	-8(%rbp), %rax
	jb	.LBB34_3
.LBB34_2:
	.cv_loc	34 15 445 0
	cmpq	$0, -16(%rbp)
	ja	.LBB34_21
	jmp	.LBB34_22
.LBB34_3:
	.cv_loc	34 15 429 0
	movq	-24(%rbp), %rax
	movb	$1, 26(%rax)
.Ltmp252:
	.cv_loc	34 15 430 0
	movq	-24(%rbp), %rax
	addq	$24, %rax
.Ltmp225:
	movq	%rax, %rcx
	callq	_ZN38_$LT$core..option..Option$LT$T$GT$$GT$6as_mut17hb59b4883ae62e7f4E
.Ltmp226:
	movq	%rax, -48(%rbp)
	jmp	.LBB34_4
.LBB34_4:
	movq	-48(%rbp), %rax
	movq	%rax, 48(%rbp)
	movq	48(%rbp), %rcx
.Ltmp227:
	callq	_ZN38_$LT$core..option..Option$LT$T$GT$$GT$6unwrap17h8ba7b84da74ed2ccE
.Ltmp228:
	movq	%rax, -56(%rbp)
	jmp	.LBB34_5
.LBB34_5:
	movq	-24(%rbp), %rcx
	movq	-16(%rbp), %rax
	movq	%rax, 56(%rbp)
	movq	56(%rbp), %rdx
.Ltmp229:
	callq	_ZN116_$LT$alloc..vec..Vec$LT$T$GT$$u20$as$u20$core..ops..index..Index$LT$core..ops..range..RangeFrom$LT$usize$GT$$GT$$GT$5index17h659fa3dbc53701b1E
.Ltmp230:
	movq	%rdx, -64(%rbp)
	movq	%rax, -72(%rbp)
	jmp	.LBB34_6
.LBB34_6:
.Ltmp231:
	leaq	24(%rbp), %rcx
	movq	-56(%rbp), %rdx
	movq	-72(%rbp), %r8
	movq	-64(%rbp), %r9
	callq	_ZN65_$LT$std..io..stdio..Maybe$LT$W$GT$$u20$as$u20$std..io..Write$GT$5write17ha38b3356d8ebd1b5E
.Ltmp232:
	jmp	.LBB34_7
.LBB34_7:
	movb	$1, 279(%rbp)
	.cv_loc	34 15 431 0
	movq	-24(%rbp), %rax
	movb	$0, 26(%rax)
.Ltmp253:
	.cv_loc	34 15 434 0
	movq	24(%rbp), %rax
	testq	%rax, %rax
	movq	%rax, -80(%rbp)
	je	.LBB34_12
	jmp	.LBB34_40
.LBB34_40:
	movq	-80(%rbp), %rax
	subq	$1, %rax
	movq	%rax, -88(%rbp)
	je	.LBB34_14
	jmp	.LBB34_13
.LBB34_8:
	.cv_loc	34 15 433 0
	jmp	.LBB34_19
.Ltmp254:
.LBB34_9:
	.cv_loc	34 15 435 0
	movb	$14, 151(%rbp)
	movzbl	151(%rbp), %edx
.Ltmp241:
	leaq	str.c(%rip), %r8
	movl	$33, %eax
	movl	%eax, %r9d
	leaq	128(%rbp), %rcx
	callq	_ZN3std2io5error5Error3new17h6bbd054f1159f149E
.Ltmp242:
	jmp	.LBB34_17
.LBB34_10:
.Ltmp255:
	.cv_loc	34 15 439 0
	movq	32(%rbp), %rax
	movq	%rax, 64(%rbp)
.Ltmp256:
	.cv_loc	34 15 439 0
	movq	64(%rbp), %rax
	addq	-16(%rbp), %rax
	movq	%rax, -16(%rbp)
.Ltmp257:
	.cv_loc	34 15 443 0
	jmp	.LBB34_19
.LBB34_11:
.Ltmp258:
	.cv_loc	34 15 441 0
	movb	$0, 279(%rbp)
	movups	32(%rbp), %xmm0
	movaps	%xmm0, 80(%rbp)
	movaps	80(%rbp), %xmm0
	movaps	%xmm0, 176(%rbp)
	movq	$1, 152(%rbp)
	movaps	176(%rbp), %xmm0
	movups	%xmm0, 160(%rbp)
.Ltmp237:
	movq	%rbp, %rcx
	callq	_ZN4core3ptr13drop_in_place17hb891408a94eec4a7E
.Ltmp238:
	jmp	.LBB34_34
.LBB34_12:
	.cv_loc	34 15 434 0
	cmpq	$0, 32(%rbp)
	je	.LBB34_9
	jmp	.LBB34_10
.Ltmp259:
.LBB34_13:
	.cv_loc	34 15 449 0
	ud2
.LBB34_14:
.Ltmp260:
	.cv_loc	34 15 440 0
	leaq	32(%rbp), %rax
	movq	%rax, 72(%rbp)
	movq	72(%rbp), %rcx
.Ltmp233:
	callq	_ZN3std2io5error5Error4kind17h70e7dba010aba0ecE
.Ltmp234:
	movb	%al, -89(%rbp)
	jmp	.LBB34_15
.LBB34_15:
	movb	-89(%rbp), %al
	movb	%al, 103(%rbp)
.Ltmp235:
	leaq	ref.b(%rip), %rdx
	leaq	103(%rbp), %rcx
	callq	_ZN66_$LT$std..io..error..ErrorKind$u20$as$u20$core..cmp..PartialEq$GT$2eq17haf929d07f7c5dd9aE
.Ltmp236:
	movb	%al, -90(%rbp)
	jmp	.LBB34_16
.LBB34_16:
	movb	-90(%rbp), %al
	testb	$1, %al
	jne	.LBB34_8
	jmp	.LBB34_11
.Ltmp261:
.LBB34_17:
	.cv_loc	34 15 435 0
	movq	$1, 104(%rbp)
	movups	128(%rbp), %xmm0
	movups	%xmm0, 112(%rbp)
.Ltmp243:
	movq	%rbp, %rcx
	callq	_ZN4core3ptr13drop_in_place17hb891408a94eec4a7E
.Ltmp244:
	jmp	.LBB34_29
.Ltmp262:
.LBB34_18:
	.cv_loc	34 15 444 0
	cmpq	$1, 24(%rbp)
	je	.LBB34_31
	jmp	.LBB34_33
.LBB34_19:
	movb	$0, 279(%rbp)
.Ltmp239:
	leaq	24(%rbp), %rcx
	callq	_ZN4core3ptr13drop_in_place17h846ad4f85b4b56acE
.Ltmp240:
	jmp	.LBB34_20
.LBB34_20:
	movb	$0, 279(%rbp)
	.cv_loc	34 15 428 0
	jmp	.LBB34_1
.LBB34_21:
	.cv_loc	34 15 446 0
	movq	-24(%rbp), %rdx
	movq	-16(%rbp), %rax
	movq	%rax, 240(%rbp)
	movq	240(%rbp), %r8
.Ltmp245:
	leaq	200(%rbp), %rcx
	callq	_ZN33_$LT$alloc..vec..Vec$LT$T$GT$$GT$5drain17h6fbd63c42ca4b9acE
.Ltmp246:
	jmp	.LBB34_23
.LBB34_22:
	.cv_loc	34 15 445 0
	jmp	.LBB34_25
.LBB34_23:
	.cv_loc	34 15 446 0
.Ltmp247:
	leaq	200(%rbp), %rcx
	callq	_ZN4core3ptr13drop_in_place17h37fe342de93aa543E
.Ltmp248:
	jmp	.LBB34_24
.LBB34_24:
	.cv_loc	34 15 445 0
	jmp	.LBB34_25
.LBB34_25:
	.cv_loc	34 15 448 0
	movq	(%rbp), %rax
	movq	%rax, 248(%rbp)
	movq	8(%rbp), %rax
	movq	%rax, 256(%rbp)
	movq	16(%rbp), %rax
	movq	%rax, 264(%rbp)
	movq	248(%rbp), %rax
	movq	-32(%rbp), %rcx
	movq	%rax, (%rcx)
	movq	256(%rbp), %rax
	movq	%rax, 8(%rcx)
	movq	264(%rbp), %rax
	movq	%rax, 16(%rcx)
.Ltmp263:
	.cv_loc	34 15 449 0
	movq	-40(%rbp), %rax
	addq	$416, %rsp
	popq	%rbp
	retq
.LBB34_29:
.Ltmp264:
	.cv_loc	34 15 435 0
	movq	104(%rbp), %rax
	movq	%rax, (%rbp)
	movq	112(%rbp), %rax
	movq	%rax, 8(%rbp)
	movq	120(%rbp), %rax
	movq	%rax, 16(%rbp)
	.cv_loc	34 15 437 0
	jmp	.LBB34_18
.Ltmp265:
.LBB34_30:
	.cv_loc	34 15 444 0
	movb	$0, 279(%rbp)
	.cv_loc	34 15 437 0
	jmp	.LBB34_2
.LBB34_31:
	.cv_loc	34 15 444 0
	testb	$1, 279(%rbp)
	je	.LBB34_30
	leaq	24(%rbp), %rax
	movb	$0, 279(%rbp)
	addq	$8, %rax
	movq	%rax, %rcx
	callq	_ZN4core3ptr13drop_in_place17hf04c43bd20d522c7E
	jmp	.LBB34_30
.LBB34_33:
	leaq	24(%rbp), %rcx
	callq	_ZN4core3ptr13drop_in_place17h846ad4f85b4b56acE
	jmp	.LBB34_30
.LBB34_34:
.Ltmp266:
	.cv_loc	34 15 441 0
	movq	152(%rbp), %rax
	movq	%rax, (%rbp)
	movq	160(%rbp), %rax
	movq	%rax, 8(%rbp)
	movq	168(%rbp), %rax
	movq	%rax, 16(%rbp)
	jmp	.LBB34_18
.Ltmp267:
	.seh_handlerdata
	.long	($cppxdata$_ZN46_$LT$std..io..buffered..BufWriter$LT$W$GT$$GT$9flush_buf17h0c22c6192ac8b501E)@IMGREL
	.section	.text,"xr",one_only,_ZN46_$LT$std..io..buffered..BufWriter$LT$W$GT$$GT$9flush_buf17h0c22c6192ac8b501E
.Lcfi244:
	.seh_endproc
	.def	 "?dtor$35@?0?_ZN46_$LT$std..io..buffered..BufWriter$LT$W$GT$$GT$9flush_buf17h0c22c6192ac8b501E@4HA";
	.scl	3;
	.type	32;
	.endef
	.p2align	4, 0x90
"?dtor$35@?0?_ZN46_$LT$std..io..buffered..BufWriter$LT$W$GT$$GT$9flush_buf17h0c22c6192ac8b501E@4HA":
.Lcfi245:
.seh_proc "?dtor$35@?0?_ZN46_$LT$std..io..buffered..BufWriter$LT$W$GT$$GT$9flush_buf17h0c22c6192ac8b501E@4HA"
.LBB34_35:
	movq	%rdx, 16(%rsp)
	pushq	%rbp
.Lcfi246:
	.seh_pushreg 5
	subq	$32, %rsp
.Lcfi247:
	.seh_stackalloc 32
	leaq	128(%rdx), %rbp
.Lcfi248:
	.seh_endprologue
	movq	%rbp, %rcx
	.cv_loc	34 15 449 0
	callq	_ZN4core3ptr13drop_in_place17hb891408a94eec4a7E
.Ltmp268:
	.cv_loc	34 15 424 0
	nop
	addq	$32, %rsp
	popq	%rbp
	retq
.LBB34_26:
.Ltmp269:
	.cv_loc	34 15 444 0
	testb	$1, 279(%rbp)
	je	.LBB34_39
	movb	$0, 279(%rbp)
	leaq	32(%rbp), %rcx
	callq	_ZN4core3ptr13drop_in_place17hf04c43bd20d522c7E
	nop
	addq	$32, %rsp
	popq	%rbp
	retq
.LBB34_28:
	leaq	24(%rbp), %rcx
	callq	_ZN4core3ptr13drop_in_place17h846ad4f85b4b56acE
	nop
	addq	$32, %rsp
	popq	%rbp
	retq
	.seh_handlerdata
	.section	.text,"xr",one_only,_ZN46_$LT$std..io..buffered..BufWriter$LT$W$GT$$GT$9flush_buf17h0c22c6192ac8b501E
.Lcfi249:
	.seh_endproc
	.def	 "?dtor$36@?0?_ZN46_$LT$std..io..buffered..BufWriter$LT$W$GT$$GT$9flush_buf17h0c22c6192ac8b501E@4HA";
	.scl	3;
	.type	32;
	.endef
	.p2align	4, 0x90
"?dtor$36@?0?_ZN46_$LT$std..io..buffered..BufWriter$LT$W$GT$$GT$9flush_buf17h0c22c6192ac8b501E@4HA":
.Lcfi250:
.seh_proc "?dtor$36@?0?_ZN46_$LT$std..io..buffered..BufWriter$LT$W$GT$$GT$9flush_buf17h0c22c6192ac8b501E@4HA"
.LBB34_36:
	movq	%rdx, 16(%rsp)
	pushq	%rbp
.Lcfi251:
	.seh_pushreg 5
	subq	$32, %rsp
.Lcfi252:
	.seh_stackalloc 32
	leaq	128(%rdx), %rbp
.Lcfi253:
	.seh_endprologue
	cmpq	$1, 24(%rbp)
	je	.LBB34_26
	jmp	.LBB34_28
.LBB34_39:
	addq	$32, %rsp
	popq	%rbp
	retq
	.seh_handlerdata
	.section	.text,"xr",one_only,_ZN46_$LT$std..io..buffered..BufWriter$LT$W$GT$$GT$9flush_buf17h0c22c6192ac8b501E
.Lcfi254:
	.seh_endproc
	.def	 "?dtor$37@?0?_ZN46_$LT$std..io..buffered..BufWriter$LT$W$GT$$GT$9flush_buf17h0c22c6192ac8b501E@4HA";
	.scl	3;
	.type	32;
	.endef
	.p2align	4, 0x90
"?dtor$37@?0?_ZN46_$LT$std..io..buffered..BufWriter$LT$W$GT$$GT$9flush_buf17h0c22c6192ac8b501E@4HA":
.Lcfi255:
.seh_proc "?dtor$37@?0?_ZN46_$LT$std..io..buffered..BufWriter$LT$W$GT$$GT$9flush_buf17h0c22c6192ac8b501E@4HA"
.LBB34_37:
	movq	%rdx, 16(%rsp)
	pushq	%rbp
.Lcfi256:
	.seh_pushreg 5
.Ltmp270:
	subq	$32, %rsp
.Lcfi257:
	.seh_stackalloc 32
	leaq	128(%rdx), %rbp
.Lcfi258:
	.seh_endprologue
	.cv_loc	34 15 435 0
	movq	120(%rbp), %rax
	movq	%rax, 16(%rbp)
	movups	104(%rbp), %xmm0
	movaps	%xmm0, (%rbp)
	addq	$32, %rsp
	popq	%rbp
	retq
	.seh_handlerdata
	.section	.text,"xr",one_only,_ZN46_$LT$std..io..buffered..BufWriter$LT$W$GT$$GT$9flush_buf17h0c22c6192ac8b501E
.Lcfi259:
	.seh_endproc
	.def	 "?dtor$38@?0?_ZN46_$LT$std..io..buffered..BufWriter$LT$W$GT$$GT$9flush_buf17h0c22c6192ac8b501E@4HA";
	.scl	3;
	.type	32;
	.endef
	.p2align	4, 0x90
"?dtor$38@?0?_ZN46_$LT$std..io..buffered..BufWriter$LT$W$GT$$GT$9flush_buf17h0c22c6192ac8b501E@4HA":
.Lcfi260:
.seh_proc "?dtor$38@?0?_ZN46_$LT$std..io..buffered..BufWriter$LT$W$GT$$GT$9flush_buf17h0c22c6192ac8b501E@4HA"
.LBB34_38:
	movq	%rdx, 16(%rsp)
	pushq	%rbp
.Lcfi261:
	.seh_pushreg 5
.Ltmp271:
	subq	$32, %rsp
.Lcfi262:
	.seh_stackalloc 32
	leaq	128(%rdx), %rbp
.Lcfi263:
	.seh_endprologue
	.cv_loc	34 15 441 0
	movq	168(%rbp), %rax
	movq	%rax, 16(%rbp)
	movups	152(%rbp), %xmm0
	movaps	%xmm0, (%rbp)
	addq	$32, %rsp
	popq	%rbp
	retq
.Ltmp272:
.Lfunc_end34:
	.seh_handlerdata
	.section	.text,"xr",one_only,_ZN46_$LT$std..io..buffered..BufWriter$LT$W$GT$$GT$9flush_buf17h0c22c6192ac8b501E
.Lcfi264:
	.seh_endproc
	.section	.xdata,"dr",associative,_ZN46_$LT$std..io..buffered..BufWriter$LT$W$GT$$GT$9flush_buf17h0c22c6192ac8b501E
	.p2align	2
$cppxdata$_ZN46_$LT$std..io..buffered..BufWriter$LT$W$GT$$GT$9flush_buf17h0c22c6192ac8b501E:
	.long	429065506
	.long	4
	.long	($stateUnwindMap$_ZN46_$LT$std..io..buffered..BufWriter$LT$W$GT$$GT$9flush_buf17h0c22c6192ac8b501E)@IMGREL
	.long	0
	.long	0
	.long	8
	.long	($ip2state$_ZN46_$LT$std..io..buffered..BufWriter$LT$W$GT$$GT$9flush_buf17h0c22c6192ac8b501E)@IMGREL
	.long	408
	.long	0
	.long	1
$stateUnwindMap$_ZN46_$LT$std..io..buffered..BufWriter$LT$W$GT$$GT$9flush_buf17h0c22c6192ac8b501E:
	.long	-1
	.long	"?dtor$35@?0?_ZN46_$LT$std..io..buffered..BufWriter$LT$W$GT$$GT$9flush_buf17h0c22c6192ac8b501E@4HA"@IMGREL
	.long	0
	.long	"?dtor$36@?0?_ZN46_$LT$std..io..buffered..BufWriter$LT$W$GT$$GT$9flush_buf17h0c22c6192ac8b501E@4HA"@IMGREL
	.long	1
	.long	"?dtor$38@?0?_ZN46_$LT$std..io..buffered..BufWriter$LT$W$GT$$GT$9flush_buf17h0c22c6192ac8b501E@4HA"@IMGREL
	.long	1
	.long	"?dtor$37@?0?_ZN46_$LT$std..io..buffered..BufWriter$LT$W$GT$$GT$9flush_buf17h0c22c6192ac8b501E@4HA"@IMGREL
$ip2state$_ZN46_$LT$std..io..buffered..BufWriter$LT$W$GT$$GT$9flush_buf17h0c22c6192ac8b501E:
	.long	.Lfunc_begin34@IMGREL
	.long	-1
	.long	.Ltmp225@IMGREL+1
	.long	0
	.long	.Ltmp241@IMGREL+1
	.long	1
	.long	.Ltmp237@IMGREL+1
	.long	2
	.long	.Ltmp233@IMGREL+1
	.long	1
	.long	.Ltmp243@IMGREL+1
	.long	3
	.long	.Ltmp239@IMGREL+1
	.long	0
	.long	.Ltmp248@IMGREL+1
	.long	-1
	.section	.text,"xr",one_only,_ZN46_$LT$std..io..buffered..BufWriter$LT$W$GT$$GT$9flush_buf17h0c22c6192ac8b501E

	.def	 _ZN47_$LT$core..result..Result$LT$T$C$$u20$E$GT$$GT$6unwrap17he9e4dbc3f7e736afE;
	.scl	3;
	.type	32;
	.endef
	.section	.text,"xr",one_only,_ZN47_$LT$core..result..Result$LT$T$C$$u20$E$GT$$GT$6unwrap17he9e4dbc3f7e736afE
	.p2align	4, 0x90
_ZN47_$LT$core..result..Result$LT$T$C$$u20$E$GT$$GT$6unwrap17he9e4dbc3f7e736afE:
.Lfunc_begin35:
	.cv_func_id 35
	.cv_file	16 "C:\\projects\\rust\\src\\libcore\\result.rs"
	.cv_loc	35 16 769 0
.Lcfi265:
.seh_proc _ZN47_$LT$core..result..Result$LT$T$C$$u20$E$GT$$GT$6unwrap17he9e4dbc3f7e736afE
	.seh_handler __CxxFrameHandler3, @unwind, @except
	pushq	%rbp
.Lcfi266:
	.seh_pushreg 5
.Ltmp275:
	subq	$112, %rsp
.Lcfi267:
	.seh_stackalloc 112
	leaq	112(%rsp), %rbp
.Lcfi268:
	.seh_setframe 5, 112
.Lcfi269:
	.seh_endprologue
	.cv_loc	35 16 771 0
	movq	$-2, -8(%rbp)
	movq	(%rcx), %rax
	testq	%rax, %rax
	movq	%rcx, -56(%rbp)
.Ltmp276:
	movq	%rax, -64(%rbp)
	je	.LBB35_2
	jmp	.LBB35_10
.Ltmp277:
.LBB35_10:
	movq	-64(%rbp), %rax
	subq	$1, %rax
	movq	%rax, -72(%rbp)
	je	.LBB35_3
	jmp	.LBB35_1
.Ltmp278:
.LBB35_1:
	.cv_loc	35 16 774 0
	ud2
.Ltmp279:
.LBB35_2:
	movq	-56(%rbp), %rax
	cmpq	$0, (%rax)
	je	.LBB35_6
	jmp	.LBB35_7
.Ltmp280:
.LBB35_3:
	.cv_loc	35 16 772 0
	movq	-56(%rbp), %rax
	movups	8(%rax), %xmm0
	movaps	%xmm0, -48(%rbp)
	movaps	-48(%rbp), %xmm0
	movaps	%xmm0, -32(%rbp)
.Ltmp273:
	leaq	str.d(%rip), %rcx
	movl	$43, %edx
	leaq	-32(%rbp), %r8
	callq	_ZN4core6result13unwrap_failed17h7b5b6ea6d99a7d0aE
.Ltmp274:
	jmp	.LBB35_9
.Ltmp281:
.LBB35_6:
	.cv_loc	35 16 774 0
	addq	$112, %rsp
	popq	%rbp
.Ltmp282:
	retq
.LBB35_7:
.Ltmp283:
	movq	-56(%rbp), %rax
	addq	$8, %rax
	movq	%rax, %rcx
	callq	_ZN4core3ptr13drop_in_place17hf04c43bd20d522c7E
	jmp	.LBB35_6
.Ltmp284:
.LBB35_9:
	ud2
.Ltmp285:
.LBB35_4:
	.cv_loc	35 16 769 0
	addq	$32, %rsp
	popq	%rbp
.Ltmp286:
	retq
.LBB35_5:
.Ltmp287:
	.cv_loc	35 16 774 0
	jmp	.LBB35_4
.Ltmp288:
	.seh_handlerdata
	.long	($cppxdata$_ZN47_$LT$core..result..Result$LT$T$C$$u20$E$GT$$GT$6unwrap17he9e4dbc3f7e736afE)@IMGREL
	.section	.text,"xr",one_only,_ZN47_$LT$core..result..Result$LT$T$C$$u20$E$GT$$GT$6unwrap17he9e4dbc3f7e736afE
.Lcfi270:
	.seh_endproc
	.def	 "?dtor$8@?0?_ZN47_$LT$core..result..Result$LT$T$C$$u20$E$GT$$GT$6unwrap17he9e4dbc3f7e736afE@4HA";
	.scl	3;
	.type	32;
	.endef
	.p2align	4, 0x90
"?dtor$8@?0?_ZN47_$LT$core..result..Result$LT$T$C$$u20$E$GT$$GT$6unwrap17he9e4dbc3f7e736afE@4HA":
.Lcfi271:
.seh_proc "?dtor$8@?0?_ZN47_$LT$core..result..Result$LT$T$C$$u20$E$GT$$GT$6unwrap17he9e4dbc3f7e736afE@4HA"
.LBB35_8:
	movq	%rdx, 16(%rsp)
	pushq	%rbp
.Lcfi272:
	.seh_pushreg 5
	subq	$32, %rsp
.Lcfi273:
	.seh_stackalloc 32
	leaq	112(%rdx), %rbp
.Ltmp289:
.Lcfi274:
	.seh_endprologue
	movq	-56(%rbp), %rax
	cmpq	$0, (%rax)
	je	.LBB35_5
	jmp	.LBB35_4
.Ltmp290:
.Lfunc_end35:
	.seh_handlerdata
	.section	.text,"xr",one_only,_ZN47_$LT$core..result..Result$LT$T$C$$u20$E$GT$$GT$6unwrap17he9e4dbc3f7e736afE
.Lcfi275:
	.seh_endproc
	.section	.xdata,"dr",associative,_ZN47_$LT$core..result..Result$LT$T$C$$u20$E$GT$$GT$6unwrap17he9e4dbc3f7e736afE
	.p2align	2
$cppxdata$_ZN47_$LT$core..result..Result$LT$T$C$$u20$E$GT$$GT$6unwrap17he9e4dbc3f7e736afE:
	.long	429065506
	.long	1
	.long	($stateUnwindMap$_ZN47_$LT$core..result..Result$LT$T$C$$u20$E$GT$$GT$6unwrap17he9e4dbc3f7e736afE)@IMGREL
	.long	0
	.long	0
	.long	3
	.long	($ip2state$_ZN47_$LT$core..result..Result$LT$T$C$$u20$E$GT$$GT$6unwrap17he9e4dbc3f7e736afE)@IMGREL
	.long	104
	.long	0
	.long	1
$stateUnwindMap$_ZN47_$LT$core..result..Result$LT$T$C$$u20$E$GT$$GT$6unwrap17he9e4dbc3f7e736afE:
	.long	-1
	.long	"?dtor$8@?0?_ZN47_$LT$core..result..Result$LT$T$C$$u20$E$GT$$GT$6unwrap17he9e4dbc3f7e736afE@4HA"@IMGREL
$ip2state$_ZN47_$LT$core..result..Result$LT$T$C$$u20$E$GT$$GT$6unwrap17he9e4dbc3f7e736afE:
	.long	.Lfunc_begin35@IMGREL
	.long	-1
	.long	.Ltmp273@IMGREL+1
	.long	0
	.long	.Ltmp274@IMGREL+1
	.long	-1
	.section	.text,"xr",one_only,_ZN47_$LT$core..result..Result$LT$T$C$$u20$E$GT$$GT$6unwrap17he9e4dbc3f7e736afE

	.def	 _ZN47_$LT$u8$u20$as$u20$alloc..vec..SpecFromElem$GT$9from_elem17h307da2eeff22251aE;
	.scl	3;
	.type	32;
	.endef
	.section	.text,"xr",one_only,_ZN47_$LT$u8$u20$as$u20$alloc..vec..SpecFromElem$GT$9from_elem17h307da2eeff22251aE
	.p2align	4, 0x90
_ZN47_$LT$u8$u20$as$u20$alloc..vec..SpecFromElem$GT$9from_elem17h307da2eeff22251aE:
.Lfunc_begin36:
	.cv_func_id 36
	.cv_loc	36 2 1459 0
.Lcfi276:
.seh_proc _ZN47_$LT$u8$u20$as$u20$alloc..vec..SpecFromElem$GT$9from_elem17h307da2eeff22251aE
	.seh_handler __CxxFrameHandler3, @unwind, @except
	pushq	%rbp
.Lcfi277:
	.seh_pushreg 5
	subq	$176, %rsp
.Lcfi278:
	.seh_stackalloc 176
	leaq	128(%rsp), %rbp
.Lcfi279:
	.seh_setframe 5, 128
.Lcfi280:
	.seh_endprologue
	movq	$-2, 40(%rbp)
	movb	%dl, %al
	movq	%rcx, %r9
	movb	%al, -33(%rbp)
	movq	%r8, -32(%rbp)
.Ltmp297:
	.cv_loc	36 2 1460 0
	cmpb	$0, -33(%rbp)
	movq	%r9, -48(%rbp)
	movq	%rcx, -56(%rbp)
	jne	.LBB36_2
	leaq	-24(%rbp), %rcx
	.cv_loc	36 2 1462 0
	movq	-32(%rbp), %rdx
	callq	_ZN40_$LT$alloc..raw_vec..RawVec$LT$T$GT$$GT$20with_capacity_zeroed17h65d62d4ec7ac68e5E
	.cv_loc	36 2 1463 0
	movq	-32(%rbp), %rcx
	.cv_loc	36 2 1461 0
	movq	-24(%rbp), %rdx
	movq	-56(%rbp), %rax
	movq	%rdx, (%rax)
	movq	-16(%rbp), %rdx
	movq	%rdx, 8(%rax)
	movq	%rcx, 16(%rax)
	jmp	.LBB36_3
.LBB36_2:
.Ltmp298:
	.cv_loc	36 2 1467 0
	movq	-32(%rbp), %rdx
	leaq	-8(%rbp), %rax
	movq	%rax, %rcx
	movq	%rax, -64(%rbp)
	callq	_ZN33_$LT$alloc..vec..Vec$LT$T$GT$$GT$13with_capacity17h9dbec0bc4addabaaE
	.cv_loc	36 2 1468 0
.Ltmp291:
	movq	-64(%rbp), %rcx
	callq	_ZN71_$LT$alloc..vec..Vec$LT$T$GT$$u20$as$u20$core..ops..deref..DerefMut$GT$9deref_mut17h9c91ddda1d0ef1baE
.Ltmp292:
	movq	%rdx, -72(%rbp)
	movq	%rax, -80(%rbp)
	jmp	.LBB36_4
.Ltmp299:
.LBB36_3:
	.cv_loc	36 2 1472 0
	movq	-48(%rbp), %rax
	addq	$176, %rsp
	popq	%rbp
	retq
.LBB36_4:
.Ltmp300:
	.cv_loc	36 2 1468 0
.Ltmp293:
	movq	-80(%rbp), %rcx
	movq	-72(%rbp), %rdx
	callq	_ZN5alloc5slice29_$LT$impl$u20$$u5b$T$u5d$$GT$10as_mut_ptr17h0268527546ac1b19E
.Ltmp294:
	movq	%rax, -88(%rbp)
	jmp	.LBB36_5
.LBB36_5:
	movq	-32(%rbp), %r8
	movzbl	-33(%rbp), %edx
	movq	-88(%rbp), %rcx
	callq	memset
	.cv_loc	36 2 1469 0
	movq	-32(%rbp), %rdx
.Ltmp295:
	leaq	-8(%rbp), %rcx
	movq	%rax, -96(%rbp)
	callq	_ZN33_$LT$alloc..vec..Vec$LT$T$GT$$GT$7set_len17h115cae4aac4a1027E
.Ltmp296:
	jmp	.LBB36_6
.LBB36_6:
	.cv_loc	36 2 1470 0
	movq	-8(%rbp), %rax
	movq	%rax, 16(%rbp)
	movq	(%rbp), %rax
	movq	%rax, 24(%rbp)
	movq	8(%rbp), %rax
	movq	%rax, 32(%rbp)
	movq	16(%rbp), %rax
	movq	-56(%rbp), %rcx
	movq	%rax, (%rcx)
	movq	24(%rbp), %rax
	movq	%rax, 8(%rcx)
	movq	32(%rbp), %rax
	movq	%rax, 16(%rcx)
.Ltmp301:
	.cv_loc	36 2 1472 0
	jmp	.LBB36_3
	.seh_handlerdata
	.long	($cppxdata$_ZN47_$LT$u8$u20$as$u20$alloc..vec..SpecFromElem$GT$9from_elem17h307da2eeff22251aE)@IMGREL
	.section	.text,"xr",one_only,_ZN47_$LT$u8$u20$as$u20$alloc..vec..SpecFromElem$GT$9from_elem17h307da2eeff22251aE
.Lcfi281:
	.seh_endproc
	.def	 "?dtor$7@?0?_ZN47_$LT$u8$u20$as$u20$alloc..vec..SpecFromElem$GT$9from_elem17h307da2eeff22251aE@4HA";
	.scl	3;
	.type	32;
	.endef
	.p2align	4, 0x90
"?dtor$7@?0?_ZN47_$LT$u8$u20$as$u20$alloc..vec..SpecFromElem$GT$9from_elem17h307da2eeff22251aE@4HA":
.Lcfi282:
.seh_proc "?dtor$7@?0?_ZN47_$LT$u8$u20$as$u20$alloc..vec..SpecFromElem$GT$9from_elem17h307da2eeff22251aE@4HA"
.LBB36_7:
	movq	%rdx, 16(%rsp)
	pushq	%rbp
.Lcfi283:
	.seh_pushreg 5
	subq	$32, %rsp
.Lcfi284:
	.seh_stackalloc 32
	leaq	128(%rdx), %rbp
.Lcfi285:
	.seh_endprologue
	leaq	-8(%rbp), %rcx
.Ltmp302:
	.cv_loc	36 2 1471 0
	callq	_ZN4core3ptr13drop_in_place17h1529aeab937f4cdfE
.Ltmp303:
	.cv_loc	36 2 1459 0
	nop
	addq	$32, %rsp
	popq	%rbp
	retq
.Ltmp304:
.Lfunc_end36:
	.seh_handlerdata
	.section	.text,"xr",one_only,_ZN47_$LT$u8$u20$as$u20$alloc..vec..SpecFromElem$GT$9from_elem17h307da2eeff22251aE
.Lcfi286:
	.seh_endproc
	.section	.xdata,"dr",associative,_ZN47_$LT$u8$u20$as$u20$alloc..vec..SpecFromElem$GT$9from_elem17h307da2eeff22251aE
	.p2align	2
$cppxdata$_ZN47_$LT$u8$u20$as$u20$alloc..vec..SpecFromElem$GT$9from_elem17h307da2eeff22251aE:
	.long	429065506
	.long	1
	.long	($stateUnwindMap$_ZN47_$LT$u8$u20$as$u20$alloc..vec..SpecFromElem$GT$9from_elem17h307da2eeff22251aE)@IMGREL
	.long	0
	.long	0
	.long	5
	.long	($ip2state$_ZN47_$LT$u8$u20$as$u20$alloc..vec..SpecFromElem$GT$9from_elem17h307da2eeff22251aE)@IMGREL
	.long	168
	.long	0
	.long	1
$stateUnwindMap$_ZN47_$LT$u8$u20$as$u20$alloc..vec..SpecFromElem$GT$9from_elem17h307da2eeff22251aE:
	.long	-1
	.long	"?dtor$7@?0?_ZN47_$LT$u8$u20$as$u20$alloc..vec..SpecFromElem$GT$9from_elem17h307da2eeff22251aE@4HA"@IMGREL
$ip2state$_ZN47_$LT$u8$u20$as$u20$alloc..vec..SpecFromElem$GT$9from_elem17h307da2eeff22251aE:
	.long	.Lfunc_begin36@IMGREL
	.long	-1
	.long	.Ltmp291@IMGREL+1
	.long	0
	.long	.Ltmp294@IMGREL+1
	.long	-1
	.long	.Ltmp295@IMGREL+1
	.long	0
	.long	.Ltmp296@IMGREL+1
	.long	-1
	.section	.text,"xr",one_only,_ZN47_$LT$u8$u20$as$u20$alloc..vec..SpecFromElem$GT$9from_elem17h307da2eeff22251aE

	.def	 _ZN49_$LT$alloc..raw_vec..RawVec$LT$T$C$$u20$A$GT$$GT$11allocate_in17h74a293d0195a5d8bE;
	.scl	3;
	.type	32;
	.endef
	.section	.text,"xr",one_only,_ZN49_$LT$alloc..raw_vec..RawVec$LT$T$C$$u20$A$GT$$GT$11allocate_in17h74a293d0195a5d8bE
	.p2align	4, 0x90
_ZN49_$LT$alloc..raw_vec..RawVec$LT$T$C$$u20$A$GT$$GT$11allocate_in17h74a293d0195a5d8bE:
.Lfunc_begin37:
	.cv_func_id 37
	.cv_loc	37 12 82 0
.Lcfi287:
.seh_proc _ZN49_$LT$alloc..raw_vec..RawVec$LT$T$C$$u20$A$GT$$GT$11allocate_in17h74a293d0195a5d8bE
	.seh_handler __CxxFrameHandler3, @unwind, @except
	pushq	%rbp
.Lcfi288:
	.seh_pushreg 5
	subq	$416, %rsp
.Lcfi289:
	.seh_stackalloc 416
	leaq	128(%rsp), %rbp
.Lcfi290:
	.seh_setframe 5, 128
.Lcfi291:
	.seh_endprologue
	movq	$-2, 280(%rbp)
	movb	%r8b, %al
	movq	%rcx, %r9
	movq	%rdx, -16(%rbp)
	andb	$1, %al
	movb	%al, -1(%rbp)
.Ltmp333:
	.cv_loc	37 12 84 0
.Ltmp305:
	movq	%rcx, -24(%rbp)
	movq	%r9, -32(%rbp)
	callq	_ZN4core3mem7size_of17h3db975549b7a62b1E
.Ltmp306:
	movq	%rax, -40(%rbp)
	jmp	.LBB37_1
.Ltmp334:
.LBB37_1:
	movq	-40(%rbp), %rax
	movq	%rax, 8(%rbp)
.Ltmp335:
	.cv_loc	37 12 86 0
	movq	-16(%rbp), %rdx
	movq	8(%rbp), %r8
.Ltmp307:
	leaq	24(%rbp), %rcx
	callq	_ZN4core3num23_$LT$impl$u20$usize$GT$11checked_mul17h971de4395b5f8255E
.Ltmp308:
	jmp	.LBB37_2
.Ltmp336:
.LBB37_2:
.Ltmp309:
	leaq	str.e(%rip), %rdx
	movl	$17, %eax
	movl	%eax, %r8d
	leaq	24(%rbp), %rcx
	callq	_ZN38_$LT$core..option..Option$LT$T$GT$$GT$6expect17hf76f5687ba0297c5E
.Ltmp310:
	movq	%rax, -48(%rbp)
	jmp	.LBB37_3
.Ltmp337:
.LBB37_3:
	movq	-48(%rbp), %rax
	movq	%rax, 16(%rbp)
	.cv_loc	37 12 87 0
	movq	16(%rbp), %rcx
.Ltmp311:
	callq	_ZN5alloc7raw_vec11alloc_guard17h0022cd8dd23c61fdE
.Ltmp312:
	jmp	.LBB37_4
.Ltmp338:
.LBB37_4:
	.cv_loc	37 12 90 0
	cmpq	$0, 16(%rbp)
	jne	.LBB37_6
.Ltmp339:
	.cv_loc	37 12 91 0
.Ltmp329:
	callq	_ZN4core3mem8align_of17h45fd43838b960971E
.Ltmp330:
	movq	%rax, -56(%rbp)
	jmp	.LBB37_7
.Ltmp340:
.LBB37_6:
	.cv_loc	37 12 93 0
.Ltmp313:
	callq	_ZN4core3mem8align_of17h45fd43838b960971E
.Ltmp314:
	movq	%rax, -64(%rbp)
	jmp	.LBB37_8
.Ltmp341:
.LBB37_7:
	.cv_loc	37 12 91 0
	movq	-56(%rbp), %rax
	movq	%rax, 40(%rbp)
	.cv_loc	37 12 90 0
	jmp	.LBB37_21
.Ltmp342:
.LBB37_8:
	.cv_loc	37 12 93 0
	movq	-64(%rbp), %rax
	movq	%rax, 48(%rbp)
.Ltmp343:
	.cv_loc	37 12 94 0
	testb	$1, -1(%rbp)
	je	.LBB37_10
.Ltmp344:
	.cv_loc	37 12 95 0
	movq	16(%rbp), %rdx
	movq	48(%rbp), %r8
.Ltmp321:
	leaq	88(%rbp), %rcx
	callq	_ZN5alloc9allocator6Layout15from_size_align17hd009c34646b325b9E
.Ltmp322:
	jmp	.LBB37_11
.Ltmp345:
.LBB37_10:
	.cv_loc	37 12 97 0
	movq	16(%rbp), %rdx
	movq	48(%rbp), %r8
.Ltmp315:
	leaq	112(%rbp), %rcx
	callq	_ZN5alloc9allocator6Layout15from_size_align17hd009c34646b325b9E
.Ltmp316:
	jmp	.LBB37_14
.Ltmp346:
.LBB37_11:
	.cv_loc	37 12 95 0
.Ltmp323:
	leaq	208(%rbp), %rcx
	leaq	88(%rbp), %rdx
	callq	_ZN38_$LT$core..option..Option$LT$T$GT$$GT$6unwrap17h2f9f5ec56690740bE
.Ltmp324:
	jmp	.LBB37_12
.Ltmp347:
.LBB37_12:
	movq	208(%rbp), %rax
	movq	216(%rbp), %rcx
	movq	%rax, 224(%rbp)
	movq	%rcx, 232(%rbp)
.Ltmp325:
	leaq	56(%rbp), %rcx
	movq	%rbp, %rdx
	leaq	224(%rbp), %r8
	callq	_ZN61_$LT$alloc..heap..Heap$u20$as$u20$alloc..allocator..Alloc$GT$12alloc_zeroed17h28fba39895a2157dE
.Ltmp326:
	jmp	.LBB37_13
.Ltmp348:
.LBB37_13:
	.cv_loc	37 12 94 0
	jmp	.LBB37_17
.Ltmp349:
.LBB37_14:
	.cv_loc	37 12 97 0
.Ltmp317:
	leaq	240(%rbp), %rcx
	leaq	112(%rbp), %rdx
	callq	_ZN38_$LT$core..option..Option$LT$T$GT$$GT$6unwrap17h2f9f5ec56690740bE
.Ltmp318:
	jmp	.LBB37_15
.Ltmp350:
.LBB37_15:
	movq	240(%rbp), %rax
	movq	248(%rbp), %rcx
	movq	%rax, 256(%rbp)
	movq	%rcx, 264(%rbp)
.Ltmp319:
	leaq	56(%rbp), %rcx
	movq	%rbp, %rdx
	leaq	256(%rbp), %r8
	callq	_ZN61_$LT$alloc..heap..Heap$u20$as$u20$alloc..allocator..Alloc$GT$5alloc17h10027d2aef76bbe3E
.Ltmp320:
	jmp	.LBB37_16
.Ltmp351:
.LBB37_16:
	.cv_loc	37 12 94 0
	jmp	.LBB37_17
.Ltmp352:
.LBB37_17:
	.cv_loc	37 12 100 0
	movq	56(%rbp), %rax
	testq	%rax, %rax
	movq	%rax, -72(%rbp)
	je	.LBB37_19
	jmp	.LBB37_25
.Ltmp353:
.LBB37_25:
	movq	-72(%rbp), %rax
	subq	$1, %rax
	movq	%rax, -80(%rbp)
	je	.LBB37_20
	jmp	.LBB37_18
.LBB37_18:
	.cv_loc	37 12 111 0
	ud2
.LBB37_19:
.Ltmp354:
	.cv_loc	37 12 100 0
	movq	64(%rbp), %rax
	movq	%rax, 136(%rbp)
.Ltmp355:
	.cv_loc	37 12 100 0
	movq	136(%rbp), %rax
	movq	%rax, 40(%rbp)
.Ltmp356:
	.cv_loc	37 12 90 0
	jmp	.LBB37_21
.LBB37_20:
.Ltmp357:
	.cv_loc	37 12 101 0
	movq	80(%rbp), %rax
	movq	%rax, 160(%rbp)
	movups	64(%rbp), %xmm0
	movaps	%xmm0, 144(%rbp)
	movq	160(%rbp), %rax
	movq	%rax, 192(%rbp)
	movaps	144(%rbp), %xmm0
	movaps	%xmm0, 176(%rbp)
.Ltmp327:
	movq	%rbp, %rcx
	leaq	176(%rbp), %rdx
	callq	_ZN61_$LT$alloc..heap..Heap$u20$as$u20$alloc..allocator..Alloc$GT$3oom17h136f4a0ce4ac68f1E
.Ltmp328:
	jmp	.LBB37_24
.Ltmp358:
.LBB37_21:
	.cv_loc	37 12 106 0
	movq	40(%rbp), %rcx
.Ltmp331:
	callq	_ZN35_$LT$core..ptr..Unique$LT$T$GT$$GT$13new_unchecked17h606e8ff10436b24fE
.Ltmp332:
	movq	%rax, -88(%rbp)
	jmp	.LBB37_22
.LBB37_22:
	movq	-88(%rbp), %rax
	movq	%rax, 272(%rbp)
	movq	272(%rbp), %rcx
	movq	%rcx, 200(%rbp)
	.cv_loc	37 12 107 0
	movq	-16(%rbp), %rcx
	.cv_loc	37 12 105 0
	movq	200(%rbp), %rdx
	movq	-24(%rbp), %r8
	movq	%rdx, (%r8)
	movq	%rcx, 8(%r8)
.Ltmp359:
	.cv_loc	37 12 111 0
	movq	-32(%rbp), %rax
	addq	$416, %rsp
	popq	%rbp
	retq
.LBB37_24:
	ud2
	.seh_handlerdata
	.long	($cppxdata$_ZN49_$LT$alloc..raw_vec..RawVec$LT$T$C$$u20$A$GT$$GT$11allocate_in17h74a293d0195a5d8bE)@IMGREL
	.section	.text,"xr",one_only,_ZN49_$LT$alloc..raw_vec..RawVec$LT$T$C$$u20$A$GT$$GT$11allocate_in17h74a293d0195a5d8bE
.Lcfi292:
	.seh_endproc
	.def	 "?dtor$23@?0?_ZN49_$LT$alloc..raw_vec..RawVec$LT$T$C$$u20$A$GT$$GT$11allocate_in17h74a293d0195a5d8bE@4HA";
	.scl	3;
	.type	32;
	.endef
	.p2align	4, 0x90
"?dtor$23@?0?_ZN49_$LT$alloc..raw_vec..RawVec$LT$T$C$$u20$A$GT$$GT$11allocate_in17h74a293d0195a5d8bE@4HA":
.Lcfi293:
.seh_proc "?dtor$23@?0?_ZN49_$LT$alloc..raw_vec..RawVec$LT$T$C$$u20$A$GT$$GT$11allocate_in17h74a293d0195a5d8bE@4HA"
.LBB37_23:
	movq	%rdx, 16(%rsp)
	pushq	%rbp
.Lcfi294:
	.seh_pushreg 5
	subq	$32, %rsp
.Lcfi295:
	.seh_stackalloc 32
	leaq	128(%rdx), %rbp
.Lcfi296:
	.seh_endprologue
	.cv_loc	37 12 82 0
	addq	$32, %rsp
	popq	%rbp
	retq
.Ltmp360:
.Lfunc_end37:
	.seh_handlerdata
	.section	.text,"xr",one_only,_ZN49_$LT$alloc..raw_vec..RawVec$LT$T$C$$u20$A$GT$$GT$11allocate_in17h74a293d0195a5d8bE
.Lcfi297:
	.seh_endproc
	.section	.xdata,"dr",associative,_ZN49_$LT$alloc..raw_vec..RawVec$LT$T$C$$u20$A$GT$$GT$11allocate_in17h74a293d0195a5d8bE
	.p2align	2
$cppxdata$_ZN49_$LT$alloc..raw_vec..RawVec$LT$T$C$$u20$A$GT$$GT$11allocate_in17h74a293d0195a5d8bE:
	.long	429065506
	.long	1
	.long	($stateUnwindMap$_ZN49_$LT$alloc..raw_vec..RawVec$LT$T$C$$u20$A$GT$$GT$11allocate_in17h74a293d0195a5d8bE)@IMGREL
	.long	0
	.long	0
	.long	3
	.long	($ip2state$_ZN49_$LT$alloc..raw_vec..RawVec$LT$T$C$$u20$A$GT$$GT$11allocate_in17h74a293d0195a5d8bE)@IMGREL
	.long	408
	.long	0
	.long	1
$stateUnwindMap$_ZN49_$LT$alloc..raw_vec..RawVec$LT$T$C$$u20$A$GT$$GT$11allocate_in17h74a293d0195a5d8bE:
	.long	-1
	.long	"?dtor$23@?0?_ZN49_$LT$alloc..raw_vec..RawVec$LT$T$C$$u20$A$GT$$GT$11allocate_in17h74a293d0195a5d8bE@4HA"@IMGREL
$ip2state$_ZN49_$LT$alloc..raw_vec..RawVec$LT$T$C$$u20$A$GT$$GT$11allocate_in17h74a293d0195a5d8bE:
	.long	.Lfunc_begin37@IMGREL
	.long	-1
	.long	.Ltmp305@IMGREL+1
	.long	0
	.long	.Ltmp332@IMGREL+1
	.long	-1
	.section	.text,"xr",one_only,_ZN49_$LT$alloc..raw_vec..RawVec$LT$T$C$$u20$A$GT$$GT$11allocate_in17h74a293d0195a5d8bE

	.def	 _ZN49_$LT$alloc..raw_vec..RawVec$LT$T$C$$u20$A$GT$$GT$14current_layout17h1fe57773391e857dE;
	.scl	3;
	.type	32;
	.endef
	.section	.text,"xr",one_only,_ZN49_$LT$alloc..raw_vec..RawVec$LT$T$C$$u20$A$GT$$GT$14current_layout17h1fe57773391e857dE
	.p2align	4, 0x90
_ZN49_$LT$alloc..raw_vec..RawVec$LT$T$C$$u20$A$GT$$GT$14current_layout17h1fe57773391e857dE:
.Lfunc_begin38:
	.cv_func_id 38
	.cv_loc	38 12 224 0
.Lcfi298:
.seh_proc _ZN49_$LT$alloc..raw_vec..RawVec$LT$T$C$$u20$A$GT$$GT$14current_layout17h1fe57773391e857dE
	pushq	%rbp
.Lcfi299:
	.seh_pushreg 5
	subq	$112, %rsp
.Lcfi300:
	.seh_stackalloc 112
	leaq	112(%rsp), %rbp
.Lcfi301:
	.seh_setframe 5, 112
.Lcfi302:
	.seh_endprologue
	movq	%rcx, %rax
	movq	%rdx, -40(%rbp)
.Ltmp361:
	.cv_loc	38 12 225 0
	movq	-40(%rbp), %rdx
	cmpq	$0, 8(%rdx)
	movq	%rax, -48(%rbp)
	movq	%rcx, -56(%rbp)
	jne	.LBB38_2
	.cv_loc	38 12 226 0
	movq	-56(%rbp), %rax
	movq	$0, (%rax)
	.cv_loc	38 12 225 0
	jmp	.LBB38_6
.LBB38_2:
.Ltmp362:
	.cv_loc	38 12 231 0
	callq	_ZN4core3mem8align_of17h45fd43838b960971E
	movq	%rax, -32(%rbp)
.Ltmp363:
	.cv_loc	38 12 232 0
	callq	_ZN4core3mem7size_of17h3db975549b7a62b1E
	movq	%rax, -64(%rbp)
	leaq	-16(%rbp), %rcx
	movq	-40(%rbp), %rax
	movq	-64(%rbp), %rdx
	imulq	8(%rax), %rdx
	movq	%rdx, -24(%rbp)
	.cv_loc	38 12 233 0
	movq	-24(%rbp), %rdx
	movq	-32(%rbp), %r8
	callq	_ZN5alloc9allocator6Layout25from_size_align_unchecked17h623a6de22ed9b905E
	movq	-16(%rbp), %rax
	movq	-8(%rbp), %rcx
	movq	%rax, -72(%rbp)
	movq	%rcx, -80(%rbp)
	movq	-56(%rbp), %rax
	movq	$1, (%rax)
	movq	-72(%rbp), %rcx
	movq	%rcx, 8(%rax)
	movq	-80(%rbp), %rdx
	movq	%rdx, 16(%rax)
.Ltmp364:
.LBB38_6:
	.cv_loc	38 12 236 0
	movq	-48(%rbp), %rax
	addq	$112, %rsp
	popq	%rbp
	retq
.Ltmp365:
.Lfunc_end38:
	.seh_handlerdata
	.section	.text,"xr",one_only,_ZN49_$LT$alloc..raw_vec..RawVec$LT$T$C$$u20$A$GT$$GT$14current_layout17h1fe57773391e857dE
.Lcfi303:
	.seh_endproc

	.def	 _ZN49_$LT$alloc..raw_vec..RawVec$LT$T$C$$u20$A$GT$$GT$14dealloc_buffer17hd5cd9476e96107cfE;
	.scl	3;
	.type	32;
	.endef
	.section	.text,"xr",one_only,_ZN49_$LT$alloc..raw_vec..RawVec$LT$T$C$$u20$A$GT$$GT$14dealloc_buffer17hd5cd9476e96107cfE
	.p2align	4, 0x90
_ZN49_$LT$alloc..raw_vec..RawVec$LT$T$C$$u20$A$GT$$GT$14dealloc_buffer17hd5cd9476e96107cfE:
.Lfunc_begin39:
	.cv_func_id 39
	.cv_loc	39 12 682 0
.Lcfi304:
.seh_proc _ZN49_$LT$alloc..raw_vec..RawVec$LT$T$C$$u20$A$GT$$GT$14dealloc_buffer17hd5cd9476e96107cfE
	pushq	%rbp
.Lcfi305:
	.seh_pushreg 5
	subq	$144, %rsp
.Lcfi306:
	.seh_stackalloc 144
	leaq	128(%rsp), %rbp
.Lcfi307:
	.seh_setframe 5, 128
.Lcfi308:
	.seh_endprologue
	movq	%rcx, -72(%rbp)
.Ltmp366:
	.cv_loc	39 12 683 0
	callq	_ZN4core3mem7size_of17h3db975549b7a62b1E
	movq	%rax, -56(%rbp)
	.cv_loc	39 12 684 0
	cmpq	$0, -56(%rbp)
	je	.LBB39_3
	leaq	-48(%rbp), %rcx
	.cv_loc	39 12 685 0
	movq	-72(%rbp), %rdx
	callq	_ZN49_$LT$alloc..raw_vec..RawVec$LT$T$C$$u20$A$GT$$GT$14current_layout17h1fe57773391e857dE
	jmp	.LBB39_4
.LBB39_3:
	.cv_loc	39 12 684 0
	jmp	.LBB39_10
.LBB39_4:
.Ltmp367:
	.cv_loc	39 12 685 0
	movq	-48(%rbp), %rax
	subq	$1, %rax
	movq	%rax, -80(%rbp)
	je	.LBB39_6
	jmp	.LBB39_5
.LBB39_5:
	jmp	.LBB39_7
.LBB39_6:
	movq	-40(%rbp), %rax
	movq	-32(%rbp), %rcx
	movq	%rax, -24(%rbp)
	movq	%rcx, -16(%rbp)
.Ltmp368:
	.cv_loc	39 12 686 0
	movq	-72(%rbp), %rcx
	callq	_ZN49_$LT$alloc..raw_vec..RawVec$LT$T$C$$u20$A$GT$$GT$3ptr17h9b6882b4e81656baE
	movq	%rax, -88(%rbp)
	jmp	.LBB39_8
.Ltmp369:
.LBB39_7:
	.cv_loc	39 12 684 0
	jmp	.LBB39_10
.LBB39_8:
	movq	%rbp, %r8
.Ltmp370:
	.cv_loc	39 12 686 0
	movq	-88(%rbp), %rax
	movq	%rax, -8(%rbp)
	.cv_loc	39 12 687 0
	movq	-72(%rbp), %rcx
	addq	$16, %rcx
	movq	-8(%rbp), %rdx
	movq	-24(%rbp), %r9
	movq	-16(%rbp), %r10
	movq	%r9, (%rbp)
	movq	%r10, 8(%rbp)
	callq	_ZN61_$LT$alloc..heap..Heap$u20$as$u20$alloc..allocator..Alloc$GT$7dealloc17h2d0e14b2b29a6a1bE
.Ltmp371:
	.cv_loc	39 12 685 0
	jmp	.LBB39_7
.Ltmp372:
.LBB39_10:
	.cv_loc	39 12 690 0
	addq	$144, %rsp
	popq	%rbp
	retq
.Ltmp373:
.Lfunc_end39:
	.seh_handlerdata
	.section	.text,"xr",one_only,_ZN49_$LT$alloc..raw_vec..RawVec$LT$T$C$$u20$A$GT$$GT$14dealloc_buffer17hd5cd9476e96107cfE
.Lcfi309:
	.seh_endproc

	.def	 _ZN49_$LT$alloc..raw_vec..RawVec$LT$T$C$$u20$A$GT$$GT$3ptr17h9b6882b4e81656baE;
	.scl	3;
	.type	32;
	.endef
	.section	.text,"xr",one_only,_ZN49_$LT$alloc..raw_vec..RawVec$LT$T$C$$u20$A$GT$$GT$3ptr17h9b6882b4e81656baE
	.p2align	4, 0x90
_ZN49_$LT$alloc..raw_vec..RawVec$LT$T$C$$u20$A$GT$$GT$3ptr17h9b6882b4e81656baE:
.Lfunc_begin40:
	.cv_func_id 40
	.cv_loc	40 12 198 0
.Lcfi310:
.seh_proc _ZN49_$LT$alloc..raw_vec..RawVec$LT$T$C$$u20$A$GT$$GT$3ptr17h9b6882b4e81656baE
	pushq	%rbp
.Lcfi311:
	.seh_pushreg 5
	subq	$64, %rsp
.Lcfi312:
	.seh_stackalloc 64
	leaq	64(%rsp), %rbp
.Lcfi313:
	.seh_setframe 5, 64
.Lcfi314:
	.seh_endprologue
	movq	%rcx, -16(%rbp)
.Ltmp374:
	.cv_loc	40 12 199 0
	movq	-16(%rbp), %rcx
	movq	(%rcx), %rcx
	movq	%rcx, -8(%rbp)
	movq	-8(%rbp), %rcx
	callq	_ZN35_$LT$core..ptr..Unique$LT$T$GT$$GT$6as_ptr17hf238405d60faa096E
	movq	%rax, -24(%rbp)
	.cv_loc	40 12 200 0
	movq	-24(%rbp), %rax
	addq	$64, %rsp
	popq	%rbp
	retq
.Ltmp375:
.Lfunc_end40:
	.seh_handlerdata
	.section	.text,"xr",one_only,_ZN49_$LT$alloc..raw_vec..RawVec$LT$T$C$$u20$A$GT$$GT$3ptr17h9b6882b4e81656baE
.Lcfi315:
	.seh_endproc

	.def	 _ZN49_$LT$isize$u20$as$u20$core..iter..range..Step$GT$9add_usize17hc1aa7618dda9f512E;
	.scl	3;
	.type	32;
	.endef
	.section	.text,"xr",one_only,_ZN49_$LT$isize$u20$as$u20$core..iter..range..Step$GT$9add_usize17hc1aa7618dda9f512E
	.p2align	4, 0x90
_ZN49_$LT$isize$u20$as$u20$core..iter..range..Step$GT$9add_usize17hc1aa7618dda9f512E:
.Lfunc_begin41:
	.cv_func_id 41
	.cv_file	17 "C:\\projects\\rust\\src\\libcore\\iter\\range.rs"
	.cv_loc	41 17 125 0
.Lcfi316:
.seh_proc _ZN49_$LT$isize$u20$as$u20$core..iter..range..Step$GT$9add_usize17hc1aa7618dda9f512E
	pushq	%rbp
.Lcfi317:
	.seh_pushreg 5
	subq	$112, %rsp
.Lcfi318:
	.seh_stackalloc 112
	leaq	112(%rsp), %rbp
.Lcfi319:
	.seh_setframe 5, 112
.Lcfi320:
	.seh_endprologue
	movq	%rcx, %rax
	leaq	-32(%rbp), %r9
	movq	%rdx, -48(%rbp)
	movq	%r8, -40(%rbp)
.Ltmp376:
	.cv_loc	41 17 126 0
	movq	-40(%rbp), %rdx
	movq	%rcx, -56(%rbp)
	movq	%r9, %rcx
	movq	%rax, -64(%rbp)
	callq	_ZN53_$LT$T$u20$as$u20$core..convert..TryFrom$LT$U$GT$$GT$8try_from17h37b48f19527d6b78E
.Ltmp377:
	.cv_loc	41 17 127 0
	movq	-24(%rbp), %rax
	movq	%rax, -16(%rbp)
.Ltmp378:
	.cv_loc	41 17 131 0
	movq	-48(%rbp), %rax
	movq	(%rax), %rcx
	movq	-16(%rbp), %rdx
	callq	_ZN4core3num23_$LT$impl$u20$usize$GT$12wrapping_add17hc0fbfcb3cc852498E
	movq	%rax, -72(%rbp)
	movq	-72(%rbp), %rax
	movq	%rax, -8(%rbp)
	.cv_loc	41 17 132 0
	movq	-8(%rbp), %rcx
	movq	-48(%rbp), %rdx
	cmpq	(%rdx), %rcx
	jl	.LBB41_4
	.cv_loc	41 17 133 0
	movq	-8(%rbp), %rax
	movq	-56(%rbp), %rcx
	movq	$1, (%rcx)
	movq	%rax, 8(%rcx)
	.cv_loc	41 17 132 0
	jmp	.LBB41_5
.LBB41_4:
	.cv_loc	41 17 135 0
	movq	-56(%rbp), %rax
	movq	$0, (%rax)
.Ltmp379:
.LBB41_5:
	.cv_loc	41 17 140 0
	movq	-64(%rbp), %rax
	addq	$112, %rsp
	popq	%rbp
	retq
.Ltmp380:
.Lfunc_end41:
	.seh_handlerdata
	.section	.text,"xr",one_only,_ZN49_$LT$isize$u20$as$u20$core..iter..range..Step$GT$9add_usize17hc1aa7618dda9f512E
.Lcfi321:
	.seh_endproc

	.def	 _ZN49_$LT$usize$u20$as$u20$core..iter..range..Step$GT$9add_usize17hb7e9eec4e14a2d6cE;
	.scl	3;
	.type	32;
	.endef
	.section	.text,"xr",one_only,_ZN49_$LT$usize$u20$as$u20$core..iter..range..Step$GT$9add_usize17hb7e9eec4e14a2d6cE
	.p2align	4, 0x90
_ZN49_$LT$usize$u20$as$u20$core..iter..range..Step$GT$9add_usize17hb7e9eec4e14a2d6cE:
.Lfunc_begin42:
	.cv_func_id 42
	.cv_loc	42 17 93 0
.Lcfi322:
.seh_proc _ZN49_$LT$usize$u20$as$u20$core..iter..range..Step$GT$9add_usize17hb7e9eec4e14a2d6cE
	pushq	%rbp
.Lcfi323:
	.seh_pushreg 5
	subq	$96, %rsp
.Lcfi324:
	.seh_stackalloc 96
	leaq	96(%rsp), %rbp
.Lcfi325:
	.seh_setframe 5, 96
.Lcfi326:
	.seh_endprologue
	movq	%rcx, %rax
	leaq	-24(%rbp), %r9
	movq	%rdx, -40(%rbp)
	movq	%r8, -32(%rbp)
.Ltmp381:
	.cv_loc	42 17 94 0
	movq	-32(%rbp), %rdx
	movq	%rcx, -48(%rbp)
	movq	%r9, %rcx
	movq	%rax, -56(%rbp)
	callq	_ZN53_$LT$T$u20$as$u20$core..convert..TryFrom$LT$U$GT$$GT$8try_from17h37b48f19527d6b78E
.Ltmp382:
	.cv_loc	42 17 95 0
	movq	-16(%rbp), %rax
	movq	%rax, -8(%rbp)
	movq	-40(%rbp), %rax
	movq	(%rax), %rdx
	movq	-8(%rbp), %r8
	movq	-48(%rbp), %rcx
	callq	_ZN4core3num23_$LT$impl$u20$usize$GT$11checked_add17hd5d97c0dccb4bb1cE
.Ltmp383:
	.cv_loc	42 17 98 0
	movq	-56(%rbp), %rax
	addq	$96, %rsp
	popq	%rbp
	retq
.Ltmp384:
.Lfunc_end42:
	.seh_handlerdata
	.section	.text,"xr",one_only,_ZN49_$LT$usize$u20$as$u20$core..iter..range..Step$GT$9add_usize17hb7e9eec4e14a2d6cE
.Lcfi327:
	.seh_endproc

	.def	 _ZN4core3cmp3Ord3min17h25867fd0cd15a1daE;
	.scl	3;
	.type	32;
	.endef
	.section	.text,"xr",one_only,_ZN4core3cmp3Ord3min17h25867fd0cd15a1daE
	.p2align	4, 0x90
_ZN4core3cmp3Ord3min17h25867fd0cd15a1daE:
.Lfunc_begin43:
	.cv_func_id 43
	.cv_file	18 "C:\\projects\\rust\\src\\libcore\\cmp.rs"
	.cv_loc	43 18 476 0
.Lcfi328:
.seh_proc _ZN4core3cmp3Ord3min17h25867fd0cd15a1daE
	.seh_handler __CxxFrameHandler3, @unwind, @except
	pushq	%rbp
.Lcfi329:
	.seh_pushreg 5
	subq	$80, %rsp
.Lcfi330:
	.seh_stackalloc 80
	leaq	80(%rsp), %rbp
.Lcfi331:
	.seh_setframe 5, 80
.Lcfi332:
	.seh_endprologue
	movq	$-2, -8(%rbp)
	movq	%rcx, -40(%rbp)
	movq	%rdx, -32(%rbp)
.Ltmp387:
	.cv_loc	43 18 478 0
	movb	$0, -10(%rbp)
	movb	$0, -9(%rbp)
	movb	$1, -10(%rbp)
	movb	$1, -9(%rbp)
.Ltmp385:
	leaq	-40(%rbp), %rcx
	leaq	-32(%rbp), %rdx
	callq	_ZN4core3cmp5impls57_$LT$impl$u20$core..cmp..PartialOrd$u20$for$u20$usize$GT$2le17h28231e5fde432a01E
.Ltmp386:
	movb	%al, -41(%rbp)
	jmp	.LBB43_1
.Ltmp388:
.LBB43_1:
	movb	-41(%rbp), %al
	testb	$1, %al
	jne	.LBB43_3
	jmp	.LBB43_4
.Ltmp389:
.LBB43_3:
	movb	$0, -10(%rbp)
	movq	-40(%rbp), %rax
	movq	%rax, -24(%rbp)
	jmp	.LBB43_5
.Ltmp390:
.LBB43_4:
	movb	$0, -9(%rbp)
	movq	-32(%rbp), %rax
	movq	%rax, -24(%rbp)
.Ltmp391:
.LBB43_5:
	.cv_loc	43 18 479 0
	testb	$1, -9(%rbp)
	jne	.LBB43_9
.Ltmp392:
.LBB43_6:
	testb	$1, -10(%rbp)
	jne	.LBB43_10
.Ltmp393:
.LBB43_7:
	movq	-24(%rbp), %rax
	addq	$80, %rsp
	popq	%rbp
.Ltmp394:
	retq
.LBB43_9:
.Ltmp395:
	movb	$0, -9(%rbp)
	jmp	.LBB43_6
.Ltmp396:
.LBB43_10:
	movb	$0, -10(%rbp)
	jmp	.LBB43_7
.Ltmp397:
.LBB43_2:
	.cv_loc	43 18 476 0
	addq	$32, %rsp
	popq	%rbp
.Ltmp398:
	retq
.LBB43_8:
.Ltmp399:
	.cv_loc	43 18 479 0
	movb	$0, -10(%rbp)
	jmp	.LBB43_2
.Ltmp400:
	.seh_handlerdata
	.long	($cppxdata$_ZN4core3cmp3Ord3min17h25867fd0cd15a1daE)@IMGREL
	.section	.text,"xr",one_only,_ZN4core3cmp3Ord3min17h25867fd0cd15a1daE
.Lcfi333:
	.seh_endproc
	.def	 "?dtor$11@?0?_ZN4core3cmp3Ord3min17h25867fd0cd15a1daE@4HA";
	.scl	3;
	.type	32;
	.endef
	.p2align	4, 0x90
"?dtor$11@?0?_ZN4core3cmp3Ord3min17h25867fd0cd15a1daE@4HA":
.Lcfi334:
.seh_proc "?dtor$11@?0?_ZN4core3cmp3Ord3min17h25867fd0cd15a1daE@4HA"
.LBB43_11:
	movq	%rdx, 16(%rsp)
	pushq	%rbp
.Lcfi335:
	.seh_pushreg 5
	subq	$32, %rsp
.Lcfi336:
	.seh_stackalloc 32
	leaq	80(%rdx), %rbp
.Ltmp401:
.Lcfi337:
	.seh_endprologue
	testb	$1, -10(%rbp)
	jne	.LBB43_8
	jmp	.LBB43_2
	.seh_handlerdata
	.section	.text,"xr",one_only,_ZN4core3cmp3Ord3min17h25867fd0cd15a1daE
.Lcfi338:
	.seh_endproc
	.def	 "?dtor$12@?0?_ZN4core3cmp3Ord3min17h25867fd0cd15a1daE@4HA";
	.scl	3;
	.type	32;
	.endef
	.p2align	4, 0x90
"?dtor$12@?0?_ZN4core3cmp3Ord3min17h25867fd0cd15a1daE@4HA":
.Lcfi339:
.seh_proc "?dtor$12@?0?_ZN4core3cmp3Ord3min17h25867fd0cd15a1daE@4HA"
.LBB43_12:
.Ltmp402:
	movq	%rdx, 16(%rsp)
	pushq	%rbp
.Lcfi340:
	.seh_pushreg 5
	subq	$32, %rsp
.Lcfi341:
	.seh_stackalloc 32
	leaq	80(%rdx), %rbp
.Ltmp403:
.Lcfi342:
	.seh_endprologue
	movb	$0, -9(%rbp)
	addq	$32, %rsp
	popq	%rbp
	retq
.Ltmp404:
.Lfunc_end43:
	.seh_handlerdata
	.section	.text,"xr",one_only,_ZN4core3cmp3Ord3min17h25867fd0cd15a1daE
.Lcfi343:
	.seh_endproc
	.section	.xdata,"dr",associative,_ZN4core3cmp3Ord3min17h25867fd0cd15a1daE
	.p2align	2
$cppxdata$_ZN4core3cmp3Ord3min17h25867fd0cd15a1daE:
	.long	429065506
	.long	2
	.long	($stateUnwindMap$_ZN4core3cmp3Ord3min17h25867fd0cd15a1daE)@IMGREL
	.long	0
	.long	0
	.long	3
	.long	($ip2state$_ZN4core3cmp3Ord3min17h25867fd0cd15a1daE)@IMGREL
	.long	72
	.long	0
	.long	1
$stateUnwindMap$_ZN4core3cmp3Ord3min17h25867fd0cd15a1daE:
	.long	-1
	.long	"?dtor$11@?0?_ZN4core3cmp3Ord3min17h25867fd0cd15a1daE@4HA"@IMGREL
	.long	0
	.long	"?dtor$12@?0?_ZN4core3cmp3Ord3min17h25867fd0cd15a1daE@4HA"@IMGREL
$ip2state$_ZN4core3cmp3Ord3min17h25867fd0cd15a1daE:
	.long	.Lfunc_begin43@IMGREL
	.long	-1
	.long	.Ltmp385@IMGREL+1
	.long	1
	.long	.Ltmp386@IMGREL+1
	.long	-1
	.section	.text,"xr",one_only,_ZN4core3cmp3Ord3min17h25867fd0cd15a1daE

	.def	 _ZN4core3cmp5impls57_$LT$impl$u20$core..cmp..PartialOrd$u20$for$u20$isize$GT$2lt17h23531c1c94823e63E;
	.scl	3;
	.type	32;
	.endef
	.section	.text,"xr",one_only,_ZN4core3cmp5impls57_$LT$impl$u20$core..cmp..PartialOrd$u20$for$u20$isize$GT$2lt17h23531c1c94823e63E
	.p2align	4, 0x90
_ZN4core3cmp5impls57_$LT$impl$u20$core..cmp..PartialOrd$u20$for$u20$isize$GT$2lt17h23531c1c94823e63E:
.Lfunc_begin44:
	.cv_func_id 44
	.cv_loc	44 18 846 0
.Lcfi344:
.seh_proc _ZN4core3cmp5impls57_$LT$impl$u20$core..cmp..PartialOrd$u20$for$u20$isize$GT$2lt17h23531c1c94823e63E
	pushq	%rbp
.Lcfi345:
	.seh_pushreg 5
	subq	$16, %rsp
.Lcfi346:
	.seh_stackalloc 16
	leaq	16(%rsp), %rbp
.Lcfi347:
	.seh_setframe 5, 16
.Lcfi348:
	.seh_endprologue
	movq	%rcx, -16(%rbp)
	movq	%rdx, -8(%rbp)
.Ltmp405:
	movq	-16(%rbp), %rcx
	movq	(%rcx), %rcx
	movq	-8(%rbp), %rdx
	cmpq	(%rdx), %rcx
	setl	%al
	andb	$1, %al
	movzbl	%al, %eax
	addq	$16, %rsp
	popq	%rbp
	retq
.Ltmp406:
.Lfunc_end44:
	.seh_handlerdata
	.section	.text,"xr",one_only,_ZN4core3cmp5impls57_$LT$impl$u20$core..cmp..PartialOrd$u20$for$u20$isize$GT$2lt17h23531c1c94823e63E
.Lcfi349:
	.seh_endproc

	.def	 _ZN4core3cmp5impls57_$LT$impl$u20$core..cmp..PartialOrd$u20$for$u20$usize$GT$2le17h28231e5fde432a01E;
	.scl	3;
	.type	32;
	.endef
	.section	.text,"xr",one_only,_ZN4core3cmp5impls57_$LT$impl$u20$core..cmp..PartialOrd$u20$for$u20$usize$GT$2le17h28231e5fde432a01E
	.p2align	4, 0x90
_ZN4core3cmp5impls57_$LT$impl$u20$core..cmp..PartialOrd$u20$for$u20$usize$GT$2le17h28231e5fde432a01E:
.Lfunc_begin45:
	.cv_func_id 45
	.cv_loc	45 18 848 0
.Lcfi350:
.seh_proc _ZN4core3cmp5impls57_$LT$impl$u20$core..cmp..PartialOrd$u20$for$u20$usize$GT$2le17h28231e5fde432a01E
	pushq	%rbp
.Lcfi351:
	.seh_pushreg 5
	subq	$16, %rsp
.Lcfi352:
	.seh_stackalloc 16
	leaq	16(%rsp), %rbp
.Lcfi353:
	.seh_setframe 5, 16
.Lcfi354:
	.seh_endprologue
	movq	%rcx, -16(%rbp)
	movq	%rdx, -8(%rbp)
.Ltmp407:
	movq	-16(%rbp), %rcx
	movq	(%rcx), %rcx
	movq	-8(%rbp), %rdx
	cmpq	(%rdx), %rcx
	setbe	%al
	andb	$1, %al
	movzbl	%al, %eax
	addq	$16, %rsp
	popq	%rbp
	retq
.Ltmp408:
.Lfunc_end45:
	.seh_handlerdata
	.section	.text,"xr",one_only,_ZN4core3cmp5impls57_$LT$impl$u20$core..cmp..PartialOrd$u20$for$u20$usize$GT$2le17h28231e5fde432a01E
.Lcfi355:
	.seh_endproc

	.def	 _ZN4core3cmp5impls57_$LT$impl$u20$core..cmp..PartialOrd$u20$for$u20$usize$GT$2lt17h6454258eebc81503E;
	.scl	3;
	.type	32;
	.endef
	.section	.text,"xr",one_only,_ZN4core3cmp5impls57_$LT$impl$u20$core..cmp..PartialOrd$u20$for$u20$usize$GT$2lt17h6454258eebc81503E
	.p2align	4, 0x90
_ZN4core3cmp5impls57_$LT$impl$u20$core..cmp..PartialOrd$u20$for$u20$usize$GT$2lt17h6454258eebc81503E:
.Lfunc_begin46:
	.cv_func_id 46
	.cv_loc	46 18 846 0
.Lcfi356:
.seh_proc _ZN4core3cmp5impls57_$LT$impl$u20$core..cmp..PartialOrd$u20$for$u20$usize$GT$2lt17h6454258eebc81503E
	pushq	%rbp
.Lcfi357:
	.seh_pushreg 5
	subq	$16, %rsp
.Lcfi358:
	.seh_stackalloc 16
	leaq	16(%rsp), %rbp
.Lcfi359:
	.seh_setframe 5, 16
.Lcfi360:
	.seh_endprologue
	movq	%rcx, -16(%rbp)
	movq	%rdx, -8(%rbp)
.Ltmp409:
	movq	-16(%rbp), %rcx
	movq	(%rcx), %rcx
	movq	-8(%rbp), %rdx
	cmpq	(%rdx), %rcx
	setb	%al
	andb	$1, %al
	movzbl	%al, %eax
	addq	$16, %rsp
	popq	%rbp
	retq
.Ltmp410:
.Lfunc_end46:
	.seh_handlerdata
	.section	.text,"xr",one_only,_ZN4core3cmp5impls57_$LT$impl$u20$core..cmp..PartialOrd$u20$for$u20$usize$GT$2lt17h6454258eebc81503E
.Lcfi361:
	.seh_endproc

	.def	 _ZN4core3fmt10ArgumentV13new17h6777699a57139743E;
	.scl	3;
	.type	32;
	.endef
	.section	.text,"xr",one_only,_ZN4core3fmt10ArgumentV13new17h6777699a57139743E
	.p2align	4, 0x90
_ZN4core3fmt10ArgumentV13new17h6777699a57139743E:
.Lfunc_begin47:
	.cv_func_id 47
	.cv_file	19 "C:\\projects\\rust\\src\\libcore\\fmt\\mod.rs"
	.cv_loc	47 19 297 0
.Lcfi362:
.seh_proc _ZN4core3fmt10ArgumentV13new17h6777699a57139743E
	pushq	%rbp
.Lcfi363:
	.seh_pushreg 5
	subq	$64, %rsp
.Lcfi364:
	.seh_stackalloc 64
	leaq	64(%rsp), %rbp
.Lcfi365:
	.seh_setframe 5, 64
.Lcfi366:
	.seh_endprologue
	movq	%rcx, %rax
	movq	%rdx, -32(%rbp)
	movq	%r8, -24(%rbp)
.Ltmp411:
	.cv_loc	47 19 301 0
	movq	-24(%rbp), %rdx
	movq	%rdx, -16(%rbp)
	movq	-16(%rbp), %rdx
	movq	%rax, -40(%rbp)
	movq	%rcx, -48(%rbp)
	movq	%rdx, -56(%rbp)
	.cv_loc	47 19 302 0
	movq	-32(%rbp), %rax
	movq	%rax, -8(%rbp)
	movq	-8(%rbp), %rax
	movq	%rax, -64(%rbp)
	.cv_loc	47 19 300 0
	movq	-48(%rbp), %rax
	movq	-64(%rbp), %rcx
	movq	%rcx, (%rax)
	movq	-56(%rbp), %rdx
	movq	%rdx, 8(%rax)
.Ltmp412:
	.cv_loc	47 19 305 0
	movq	-40(%rbp), %rax
	addq	$64, %rsp
	popq	%rbp
	retq
.Ltmp413:
.Lfunc_end47:
	.seh_handlerdata
	.section	.text,"xr",one_only,_ZN4core3fmt10ArgumentV13new17h6777699a57139743E
.Lcfi367:
	.seh_endproc

	.def	 _ZN4core3fmt10ArgumentV13new17hb5ddb91ea42106deE;
	.scl	3;
	.type	32;
	.endef
	.section	.text,"xr",one_only,_ZN4core3fmt10ArgumentV13new17hb5ddb91ea42106deE
	.p2align	4, 0x90
_ZN4core3fmt10ArgumentV13new17hb5ddb91ea42106deE:
.Lfunc_begin48:
	.cv_func_id 48
	.cv_loc	48 19 297 0
.Lcfi368:
.seh_proc _ZN4core3fmt10ArgumentV13new17hb5ddb91ea42106deE
	pushq	%rbp
.Lcfi369:
	.seh_pushreg 5
	subq	$64, %rsp
.Lcfi370:
	.seh_stackalloc 64
	leaq	64(%rsp), %rbp
.Lcfi371:
	.seh_setframe 5, 64
.Lcfi372:
	.seh_endprologue
	movq	%rcx, %rax
	movq	%rdx, -32(%rbp)
	movq	%r8, -24(%rbp)
.Ltmp414:
	.cv_loc	48 19 301 0
	movq	-24(%rbp), %rdx
	movq	%rdx, -16(%rbp)
	movq	-16(%rbp), %rdx
	movq	%rax, -40(%rbp)
	movq	%rcx, -48(%rbp)
	movq	%rdx, -56(%rbp)
	.cv_loc	48 19 302 0
	movq	-32(%rbp), %rax
	movq	%rax, -8(%rbp)
	movq	-8(%rbp), %rax
	movq	%rax, -64(%rbp)
	.cv_loc	48 19 300 0
	movq	-48(%rbp), %rax
	movq	-64(%rbp), %rcx
	movq	%rcx, (%rax)
	movq	-56(%rbp), %rdx
	movq	%rdx, 8(%rax)
.Ltmp415:
	.cv_loc	48 19 305 0
	movq	-40(%rbp), %rax
	addq	$64, %rsp
	popq	%rbp
	retq
.Ltmp416:
.Lfunc_end48:
	.seh_handlerdata
	.section	.text,"xr",one_only,_ZN4core3fmt10ArgumentV13new17hb5ddb91ea42106deE
.Lcfi373:
	.seh_endproc

	.def	 _ZN4core3fmt9Arguments16new_v1_formatted17h823bd8cf107e78aaE;
	.scl	3;
	.type	32;
	.endef
	.section	.text,"xr",one_only,_ZN4core3fmt9Arguments16new_v1_formatted17h823bd8cf107e78aaE
	.p2align	4, 0x90
_ZN4core3fmt9Arguments16new_v1_formatted17h823bd8cf107e78aaE:
.Lfunc_begin49:
	.cv_func_id 49
	.cv_loc	49 19 351 0
.Lcfi374:
.seh_proc _ZN4core3fmt9Arguments16new_v1_formatted17h823bd8cf107e78aaE
	pushq	%rbp
.Lcfi375:
	.seh_pushreg 5
	pushq	%rsi
.Lcfi376:
	.seh_pushreg 6
	subq	$64, %rsp
.Lcfi377:
	.seh_stackalloc 64
	leaq	64(%rsp), %rbp
.Lcfi378:
	.seh_setframe 5, 64
.Lcfi379:
	.seh_endprologue
	movq	%rcx, %rax
	movq	72(%rbp), %r10
	movq	64(%rbp), %r11
	movq	56(%rbp), %rsi
	movq	%rdx, -64(%rbp)
	movq	%r8, -56(%rbp)
	movq	%r9, -48(%rbp)
	movq	%rsi, -40(%rbp)
	movq	%r11, -32(%rbp)
	movq	%r10, -24(%rbp)
.Ltmp417:
	.cv_loc	49 19 355 0
	movq	-64(%rbp), %rdx
	movq	-56(%rbp), %r8
	.cv_loc	49 19 356 0
	movq	-32(%rbp), %r9
	movq	-24(%rbp), %r10
	movq	%r9, -16(%rbp)
	movq	%r10, -8(%rbp)
	.cv_loc	49 19 357 0
	movq	-48(%rbp), %r9
	movq	-40(%rbp), %r10
	.cv_loc	49 19 354 0
	movq	%rdx, (%rcx)
	movq	%r8, 8(%rcx)
	movq	-16(%rbp), %rdx
	movq	%rdx, 16(%rcx)
	movq	-8(%rbp), %rdx
	movq	%rdx, 24(%rcx)
	movq	%r9, 32(%rcx)
	movq	%r10, 40(%rcx)
	.cv_loc	49 19 359 0
	addq	$64, %rsp
	popq	%rsi
	popq	%rbp
	retq
.Ltmp418:
.Lfunc_end49:
	.seh_handlerdata
	.section	.text,"xr",one_only,_ZN4core3fmt9Arguments16new_v1_formatted17h823bd8cf107e78aaE
.Lcfi380:
	.seh_endproc

	.def	 _ZN4core3fmt9Arguments6new_v117habced9bd1cb7f351E;
	.scl	3;
	.type	32;
	.endef
	.section	.text,"xr",one_only,_ZN4core3fmt9Arguments6new_v117habced9bd1cb7f351E
	.p2align	4, 0x90
_ZN4core3fmt9Arguments6new_v117habced9bd1cb7f351E:
.Lfunc_begin50:
	.cv_func_id 50
	.cv_loc	50 19 333 0
.Lcfi381:
.seh_proc _ZN4core3fmt9Arguments6new_v117habced9bd1cb7f351E
	pushq	%rbp
.Lcfi382:
	.seh_pushreg 5
	subq	$48, %rsp
.Lcfi383:
	.seh_stackalloc 48
	leaq	48(%rsp), %rbp
.Lcfi384:
	.seh_setframe 5, 48
.Lcfi385:
	.seh_endprologue
	movq	%rcx, %rax
	movq	48(%rbp), %r10
	movq	%rdx, -48(%rbp)
	movq	%r8, -40(%rbp)
	movq	%r9, -32(%rbp)
	movq	%r10, -24(%rbp)
.Ltmp419:
	.cv_loc	50 19 336 0
	movq	-48(%rbp), %rdx
	movq	-40(%rbp), %r8
	.cv_loc	50 19 337 0
	movq	$0, -16(%rbp)
	.cv_loc	50 19 338 0
	movq	-32(%rbp), %r9
	movq	-24(%rbp), %r10
	.cv_loc	50 19 335 0
	movq	%rdx, (%rcx)
	movq	%r8, 8(%rcx)
	movq	-16(%rbp), %rdx
	movq	%rdx, 16(%rcx)
	movq	-8(%rbp), %rdx
	movq	%rdx, 24(%rcx)
	movq	%r9, 32(%rcx)
	movq	%r10, 40(%rcx)
	.cv_loc	50 19 340 0
	addq	$48, %rsp
	popq	%rbp
	retq
.Ltmp420:
.Lfunc_end50:
	.seh_handlerdata
	.section	.text,"xr",one_only,_ZN4core3fmt9Arguments6new_v117habced9bd1cb7f351E
.Lcfi386:
	.seh_endproc

	.def	 _ZN4core3mem11size_of_val17h4fff1658b66042deE;
	.scl	3;
	.type	32;
	.endef
	.section	.text,"xr",one_only,_ZN4core3mem11size_of_val17h4fff1658b66042deE
	.p2align	4, 0x90
_ZN4core3mem11size_of_val17h4fff1658b66042deE:
.Lfunc_begin51:
	.cv_func_id 51
	.cv_loc	51 14 341 0
.Lcfi387:
.seh_proc _ZN4core3mem11size_of_val17h4fff1658b66042deE
	pushq	%rbp
.Lcfi388:
	.seh_pushreg 5
	subq	$24, %rsp
.Lcfi389:
	.seh_stackalloc 24
	leaq	16(%rsp), %rbp
.Lcfi390:
	.seh_setframe 5, 16
.Lcfi391:
	.seh_endprologue
	movq	%rcx, -8(%rbp)
.Ltmp421:
	.cv_loc	51 14 342 0
	movq	$80, (%rbp)
	movq	(%rbp), %rax
	movq	%rax, -16(%rbp)
.Ltmp422:
	.cv_loc	51 14 343 0
	movq	-16(%rbp), %rax
	addq	$24, %rsp
	popq	%rbp
	retq
.Ltmp423:
.Lfunc_end51:
	.seh_handlerdata
	.section	.text,"xr",one_only,_ZN4core3mem11size_of_val17h4fff1658b66042deE
.Lcfi392:
	.seh_endproc

	.def	 _ZN4core3mem12align_of_val17he3add46feeb36990E;
	.scl	3;
	.type	32;
	.endef
	.section	.text,"xr",one_only,_ZN4core3mem12align_of_val17he3add46feeb36990E
	.p2align	4, 0x90
_ZN4core3mem12align_of_val17he3add46feeb36990E:
.Lfunc_begin52:
	.cv_func_id 52
	.cv_loc	52 14 426 0
.Lcfi393:
.seh_proc _ZN4core3mem12align_of_val17he3add46feeb36990E
	pushq	%rbp
.Lcfi394:
	.seh_pushreg 5
	subq	$24, %rsp
.Lcfi395:
	.seh_stackalloc 24
	leaq	16(%rsp), %rbp
.Lcfi396:
	.seh_setframe 5, 16
.Lcfi397:
	.seh_endprologue
	movq	%rcx, -8(%rbp)
.Ltmp424:
	.cv_loc	52 14 427 0
	movq	$8, (%rbp)
	movq	(%rbp), %rax
	movq	%rax, -16(%rbp)
.Ltmp425:
	.cv_loc	52 14 428 0
	movq	-16(%rbp), %rax
	addq	$24, %rsp
	popq	%rbp
	retq
.Ltmp426:
.Lfunc_end52:
	.seh_handlerdata
	.section	.text,"xr",one_only,_ZN4core3mem12align_of_val17he3add46feeb36990E
.Lcfi398:
	.seh_endproc

	.def	 _ZN4core3mem13uninitialized17h5b44e22dafdad2c0E;
	.scl	3;
	.type	32;
	.endef
	.section	.text,"xr",one_only,_ZN4core3mem13uninitialized17h5b44e22dafdad2c0E
	.p2align	4, 0x90
_ZN4core3mem13uninitialized17h5b44e22dafdad2c0E:
.Lfunc_begin53:
	.cv_func_id 53
	.cv_loc	53 14 612 0
.Lcfi399:
.seh_proc _ZN4core3mem13uninitialized17h5b44e22dafdad2c0E
	pushq	%rbp
.Lcfi400:
	.seh_pushreg 5
.Ltmp427:
	subq	$80, %rsp
.Lcfi401:
	.seh_stackalloc 80
	leaq	80(%rsp), %rbp
.Lcfi402:
	.seh_setframe 5, 80
.Lcfi403:
	.seh_endprologue
	andq	$-32, %rsp
	.cv_loc	53 14 613 0
	movaps	32(%rsp), %xmm0
	movaps	48(%rsp), %xmm1
	movaps	%xmm0, 16(%rsp)
	movaps	%xmm1, (%rsp)
	.cv_loc	53 14 614 0
	movaps	16(%rsp), %xmm0
	movaps	(%rsp), %xmm1
	movq	%rbp, %rsp
	popq	%rbp
	retq
.Ltmp428:
.Lfunc_end53:
	.seh_handlerdata
	.section	.text,"xr",one_only,_ZN4core3mem13uninitialized17h5b44e22dafdad2c0E
.Lcfi404:
	.seh_endproc

	.def	 _ZN4core3mem13uninitialized17h85c5c4e5ef41d918E;
	.scl	3;
	.type	32;
	.endef
	.section	.text,"xr",one_only,_ZN4core3mem13uninitialized17h85c5c4e5ef41d918E
	.p2align	4, 0x90
_ZN4core3mem13uninitialized17h85c5c4e5ef41d918E:
.Lfunc_begin54:
	.cv_func_id 54
	.cv_loc	54 14 612 0
.Lcfi405:
.seh_proc _ZN4core3mem13uninitialized17h85c5c4e5ef41d918E
	pushq	%rbp
.Lcfi406:
	.seh_pushreg 5
.Ltmp429:
	pushq	%rax
.Lcfi407:
	.seh_stackalloc 8
	movq	%rsp, %rbp
.Lcfi408:
	.seh_setframe 5, 0
.Lcfi409:
	.seh_endprologue
	.cv_loc	54 14 613 0
	movb	7(%rbp), %al
	movb	%al, 6(%rbp)
	.cv_loc	54 14 614 0
	movb	6(%rbp), %al
	addq	$8, %rsp
	popq	%rbp
	retq
.Ltmp430:
.Lfunc_end54:
	.seh_handlerdata
	.section	.text,"xr",one_only,_ZN4core3mem13uninitialized17h85c5c4e5ef41d918E
.Lcfi410:
	.seh_endproc

	.def	 _ZN4core3mem13uninitialized17ha9c33b9867803c62E;
	.scl	3;
	.type	32;
	.endef
	.section	.text,"xr",one_only,_ZN4core3mem13uninitialized17ha9c33b9867803c62E
	.p2align	4, 0x90
_ZN4core3mem13uninitialized17ha9c33b9867803c62E:
.Lfunc_begin55:
	.cv_func_id 55
	.cv_loc	55 14 612 0
.Lcfi411:
.seh_proc _ZN4core3mem13uninitialized17ha9c33b9867803c62E
	pushq	%rbp
.Lcfi412:
	.seh_pushreg 5
.Ltmp431:
	pushq	%rax
.Lcfi413:
	.seh_stackalloc 8
	movq	%rsp, %rbp
.Lcfi414:
	.seh_setframe 5, 0
.Lcfi415:
	.seh_endprologue
	.cv_loc	55 14 613 0
	movq	%rcx, (%rbp)
	jmp	.LBB55_1
.LBB55_1:
	.cv_loc	55 14 614 0
	movq	(%rbp), %rax
	addq	$8, %rsp
	popq	%rbp
	retq
.Ltmp432:
.Lfunc_end55:
	.seh_handlerdata
	.section	.text,"xr",one_only,_ZN4core3mem13uninitialized17ha9c33b9867803c62E
.Lcfi416:
	.seh_endproc

	.def	 _ZN4core3mem13uninitialized17heb723bb780ce828dE;
	.scl	3;
	.type	32;
	.endef
	.section	.text,"xr",one_only,_ZN4core3mem13uninitialized17heb723bb780ce828dE
	.p2align	4, 0x90
_ZN4core3mem13uninitialized17heb723bb780ce828dE:
.Lfunc_begin56:
	.cv_func_id 56
	.cv_loc	56 14 612 0
.Lcfi417:
.seh_proc _ZN4core3mem13uninitialized17heb723bb780ce828dE
	pushq	%rbp
.Lcfi418:
	.seh_pushreg 5
.Ltmp433:
	pushq	%rax
.Lcfi419:
	.seh_stackalloc 8
	movq	%rsp, %rbp
.Lcfi420:
	.seh_setframe 5, 0
.Lcfi421:
	.seh_endprologue
	.cv_loc	56 14 613 0
	movq	%rcx, (%rbp)
	jmp	.LBB56_1
.LBB56_1:
	.cv_loc	56 14 614 0
	movq	(%rbp), %rax
	addq	$8, %rsp
	popq	%rbp
	retq
.Ltmp434:
.Lfunc_end56:
	.seh_handlerdata
	.section	.text,"xr",one_only,_ZN4core3mem13uninitialized17heb723bb780ce828dE
.Lcfi422:
	.seh_endproc

	.def	 _ZN4core3mem4swap17hbb67a47f2fbe9258E;
	.scl	3;
	.type	32;
	.endef
	.section	.text,"xr",one_only,_ZN4core3mem4swap17hbb67a47f2fbe9258E
	.p2align	4, 0x90
_ZN4core3mem4swap17hbb67a47f2fbe9258E:
.Lfunc_begin57:
	.cv_func_id 57
	.cv_loc	57 14 633 0
.Lcfi423:
.seh_proc _ZN4core3mem4swap17hbb67a47f2fbe9258E
	pushq	%rbp
.Lcfi424:
	.seh_pushreg 5
	subq	$48, %rsp
.Lcfi425:
	.seh_stackalloc 48
	leaq	48(%rsp), %rbp
.Lcfi426:
	.seh_setframe 5, 48
.Lcfi427:
	.seh_endprologue
	movl	$1, %eax
	movl	%eax, %r8d
	movq	%rcx, -16(%rbp)
	movq	%rdx, -8(%rbp)
.Ltmp435:
	.cv_loc	57 14 635 0
	movq	-16(%rbp), %rcx
	movq	-8(%rbp), %rdx
	callq	_ZN4core3ptr19swap_nonoverlapping17h39b86e6b1cf03c60E
.Ltmp436:
	.cv_loc	57 14 637 0
	nop
	addq	$48, %rsp
	popq	%rbp
	retq
.Ltmp437:
.Lfunc_end57:
	.seh_handlerdata
	.section	.text,"xr",one_only,_ZN4core3mem4swap17hbb67a47f2fbe9258E
.Lcfi428:
	.seh_endproc

	.def	 _ZN4core3mem4swap17hff4855ab98aa536fE;
	.scl	3;
	.type	32;
	.endef
	.section	.text,"xr",one_only,_ZN4core3mem4swap17hff4855ab98aa536fE
	.p2align	4, 0x90
_ZN4core3mem4swap17hff4855ab98aa536fE:
.Lfunc_begin58:
	.cv_func_id 58
	.cv_loc	58 14 633 0
.Lcfi429:
.seh_proc _ZN4core3mem4swap17hff4855ab98aa536fE
	pushq	%rbp
.Lcfi430:
	.seh_pushreg 5
	subq	$48, %rsp
.Lcfi431:
	.seh_stackalloc 48
	leaq	48(%rsp), %rbp
.Lcfi432:
	.seh_setframe 5, 48
.Lcfi433:
	.seh_endprologue
	movl	$1, %eax
	movl	%eax, %r8d
	movq	%rcx, -16(%rbp)
	movq	%rdx, -8(%rbp)
.Ltmp438:
	.cv_loc	58 14 635 0
	movq	-16(%rbp), %rcx
	movq	-8(%rbp), %rdx
	callq	_ZN4core3ptr19swap_nonoverlapping17h72cc7806441e09e5E
.Ltmp439:
	.cv_loc	58 14 637 0
	nop
	addq	$48, %rsp
	popq	%rbp
	retq
.Ltmp440:
.Lfunc_end58:
	.seh_handlerdata
	.section	.text,"xr",one_only,_ZN4core3mem4swap17hff4855ab98aa536fE
.Lcfi434:
	.seh_endproc

	.def	 _ZN4core3mem6zeroed17h08f69e951c6210f0E;
	.scl	3;
	.type	32;
	.endef
	.section	.text,"xr",one_only,_ZN4core3mem6zeroed17h08f69e951c6210f0E
	.p2align	4, 0x90
_ZN4core3mem6zeroed17h08f69e951c6210f0E:
.Lfunc_begin59:
	.cv_func_id 59
	.cv_loc	59 14 518 0
.Lcfi435:
.seh_proc _ZN4core3mem6zeroed17h08f69e951c6210f0E
	pushq	%rbp
.Lcfi436:
	.seh_pushreg 5
	subq	$48, %rsp
.Lcfi437:
	.seh_stackalloc 48
	leaq	48(%rsp), %rbp
.Lcfi438:
	.seh_setframe 5, 48
.Lcfi439:
	.seh_endprologue
	movq	%rcx, %rax
	xorl	%edx, %edx
	movl	$2097608, %r8d
.Ltmp441:
	.cv_loc	59 14 519 0
	movq	%rax, -8(%rbp)
	callq	memset
	.cv_loc	59 14 520 0
	movq	-8(%rbp), %rax
	addq	$48, %rsp
	popq	%rbp
	retq
.Ltmp442:
.Lfunc_end59:
	.seh_handlerdata
	.section	.text,"xr",one_only,_ZN4core3mem6zeroed17h08f69e951c6210f0E
.Lcfi440:
	.seh_endproc

	.def	 _ZN4core3mem6zeroed17h54a65ec552755c5eE;
	.scl	3;
	.type	32;
	.endef
	.section	.text,"xr",one_only,_ZN4core3mem6zeroed17h54a65ec552755c5eE
	.p2align	4, 0x90
_ZN4core3mem6zeroed17h54a65ec552755c5eE:
.Lfunc_begin60:
	.cv_func_id 60
	.cv_loc	60 14 518 0
.Lcfi441:
.seh_proc _ZN4core3mem6zeroed17h54a65ec552755c5eE
	pushq	%rbp
.Lcfi442:
	.seh_pushreg 5
	subq	$48, %rsp
.Lcfi443:
	.seh_stackalloc 48
	leaq	48(%rsp), %rbp
.Lcfi444:
	.seh_setframe 5, 48
.Lcfi445:
	.seh_endprologue
	movq	%rcx, %rax
	xorl	%edx, %edx
	movl	$200, %r8d
.Ltmp443:
	.cv_loc	60 14 519 0
	movq	%rax, -8(%rbp)
	callq	memset
	.cv_loc	60 14 520 0
	movq	-8(%rbp), %rax
	addq	$48, %rsp
	popq	%rbp
	retq
.Ltmp444:
.Lfunc_end60:
	.seh_handlerdata
	.section	.text,"xr",one_only,_ZN4core3mem6zeroed17h54a65ec552755c5eE
.Lcfi446:
	.seh_endproc

	.def	 _ZN4core3mem6zeroed17h85dbbc6417d03eacE;
	.scl	3;
	.type	32;
	.endef
	.section	.text,"xr",one_only,_ZN4core3mem6zeroed17h85dbbc6417d03eacE
	.p2align	4, 0x90
_ZN4core3mem6zeroed17h85dbbc6417d03eacE:
.Lfunc_begin61:
	.cv_func_id 61
	.cv_loc	61 14 518 0
.Lcfi447:
.seh_proc _ZN4core3mem6zeroed17h85dbbc6417d03eacE
	pushq	%rbp
.Lcfi448:
	.seh_pushreg 5
	subq	$48, %rsp
.Lcfi449:
	.seh_stackalloc 48
	leaq	48(%rsp), %rbp
.Lcfi450:
	.seh_setframe 5, 48
.Lcfi451:
	.seh_endprologue
	movq	%rcx, %rax
	xorl	%edx, %edx
	movl	$80, %r8d
.Ltmp445:
	.cv_loc	61 14 519 0
	movq	%rax, -8(%rbp)
	callq	memset
	.cv_loc	61 14 520 0
	movq	-8(%rbp), %rax
	addq	$48, %rsp
	popq	%rbp
	retq
.Ltmp446:
.Lfunc_end61:
	.seh_handlerdata
	.section	.text,"xr",one_only,_ZN4core3mem6zeroed17h85dbbc6417d03eacE
.Lcfi452:
	.seh_endproc

	.def	 _ZN4core3mem6zeroed17hfd210dca29a49b45E;
	.scl	3;
	.type	32;
	.endef
	.section	.text,"xr",one_only,_ZN4core3mem6zeroed17hfd210dca29a49b45E
	.p2align	4, 0x90
_ZN4core3mem6zeroed17hfd210dca29a49b45E:
.Lfunc_begin62:
	.cv_func_id 62
	.cv_loc	62 14 518 0
.Lcfi453:
.seh_proc _ZN4core3mem6zeroed17hfd210dca29a49b45E
	pushq	%rbp
.Lcfi454:
	.seh_pushreg 5
	subq	$48, %rsp
.Lcfi455:
	.seh_stackalloc 48
	leaq	48(%rsp), %rbp
.Lcfi456:
	.seh_setframe 5, 48
.Lcfi457:
	.seh_endprologue
	movq	%rcx, %rax
	xorl	%edx, %edx
	movl	$80, %r8d
.Ltmp447:
	.cv_loc	62 14 519 0
	movq	%rax, -8(%rbp)
	callq	memset
	.cv_loc	62 14 520 0
	movq	-8(%rbp), %rax
	addq	$48, %rsp
	popq	%rbp
	retq
.Ltmp448:
.Lfunc_end62:
	.seh_handlerdata
	.section	.text,"xr",one_only,_ZN4core3mem6zeroed17hfd210dca29a49b45E
.Lcfi458:
	.seh_endproc

	.def	 _ZN4core3mem7size_of17h3db975549b7a62b1E;
	.scl	3;
	.type	32;
	.endef
	.section	.text,"xr",one_only,_ZN4core3mem7size_of17h3db975549b7a62b1E
	.p2align	4, 0x90
_ZN4core3mem7size_of17h3db975549b7a62b1E:
.Lfunc_begin63:
	.cv_func_id 63
	.cv_loc	63 14 315 0
.Lcfi459:
.seh_proc _ZN4core3mem7size_of17h3db975549b7a62b1E
	pushq	%rbp
.Lcfi460:
	.seh_pushreg 5
.Ltmp449:
	subq	$16, %rsp
.Lcfi461:
	.seh_stackalloc 16
	leaq	16(%rsp), %rbp
.Lcfi462:
	.seh_setframe 5, 16
.Lcfi463:
	.seh_endprologue
	.cv_loc	63 14 316 0
	movq	$1, -8(%rbp)
	movq	-8(%rbp), %rax
	movq	%rax, -16(%rbp)
.Ltmp450:
	.cv_loc	63 14 317 0
	movq	-16(%rbp), %rax
	addq	$16, %rsp
	popq	%rbp
	retq
.Ltmp451:
.Lfunc_end63:
	.seh_handlerdata
	.section	.text,"xr",one_only,_ZN4core3mem7size_of17h3db975549b7a62b1E
.Lcfi464:
	.seh_endproc

	.def	 _ZN4core3mem7size_of17h5442c97bde73d939E;
	.scl	3;
	.type	32;
	.endef
	.section	.text,"xr",one_only,_ZN4core3mem7size_of17h5442c97bde73d939E
	.p2align	4, 0x90
_ZN4core3mem7size_of17h5442c97bde73d939E:
.Lfunc_begin64:
	.cv_func_id 64
	.cv_loc	64 14 315 0
.Lcfi465:
.seh_proc _ZN4core3mem7size_of17h5442c97bde73d939E
	pushq	%rbp
.Lcfi466:
	.seh_pushreg 5
.Ltmp452:
	subq	$16, %rsp
.Lcfi467:
	.seh_stackalloc 16
	leaq	16(%rsp), %rbp
.Lcfi468:
	.seh_setframe 5, 16
.Lcfi469:
	.seh_endprologue
	.cv_loc	64 14 316 0
	movq	$200, -8(%rbp)
	movq	-8(%rbp), %rax
	movq	%rax, -16(%rbp)
.Ltmp453:
	.cv_loc	64 14 317 0
	movq	-16(%rbp), %rax
	addq	$16, %rsp
	popq	%rbp
	retq
.Ltmp454:
.Lfunc_end64:
	.seh_handlerdata
	.section	.text,"xr",one_only,_ZN4core3mem7size_of17h5442c97bde73d939E
.Lcfi470:
	.seh_endproc

	.def	 _ZN4core3mem7size_of17h9f750dca02c379c0E;
	.scl	3;
	.type	32;
	.endef
	.section	.text,"xr",one_only,_ZN4core3mem7size_of17h9f750dca02c379c0E
	.p2align	4, 0x90
_ZN4core3mem7size_of17h9f750dca02c379c0E:
.Lfunc_begin65:
	.cv_func_id 65
	.cv_loc	65 14 315 0
.Lcfi471:
.seh_proc _ZN4core3mem7size_of17h9f750dca02c379c0E
	pushq	%rbp
.Lcfi472:
	.seh_pushreg 5
.Ltmp455:
	subq	$16, %rsp
.Lcfi473:
	.seh_stackalloc 16
	leaq	16(%rsp), %rbp
.Lcfi474:
	.seh_setframe 5, 16
.Lcfi475:
	.seh_endprologue
	.cv_loc	65 14 316 0
	movq	$8, -8(%rbp)
	movq	-8(%rbp), %rax
	movq	%rax, -16(%rbp)
.Ltmp456:
	.cv_loc	65 14 317 0
	movq	-16(%rbp), %rax
	addq	$16, %rsp
	popq	%rbp
	retq
.Ltmp457:
.Lfunc_end65:
	.seh_handlerdata
	.section	.text,"xr",one_only,_ZN4core3mem7size_of17h9f750dca02c379c0E
.Lcfi476:
	.seh_endproc

	.def	 _ZN4core3mem7size_of17hd41ea041ebd00fd9E;
	.scl	3;
	.type	32;
	.endef
	.section	.text,"xr",one_only,_ZN4core3mem7size_of17hd41ea041ebd00fd9E
	.p2align	4, 0x90
_ZN4core3mem7size_of17hd41ea041ebd00fd9E:
.Lfunc_begin66:
	.cv_func_id 66
	.cv_loc	66 14 315 0
.Lcfi477:
.seh_proc _ZN4core3mem7size_of17hd41ea041ebd00fd9E
	pushq	%rbp
.Lcfi478:
	.seh_pushreg 5
.Ltmp458:
	subq	$16, %rsp
.Lcfi479:
	.seh_stackalloc 16
	leaq	16(%rsp), %rbp
.Lcfi480:
	.seh_setframe 5, 16
.Lcfi481:
	.seh_endprologue
	.cv_loc	66 14 316 0
	movq	$8, -8(%rbp)
	movq	-8(%rbp), %rax
	movq	%rax, -16(%rbp)
.Ltmp459:
	.cv_loc	66 14 317 0
	movq	-16(%rbp), %rax
	addq	$16, %rsp
	popq	%rbp
	retq
.Ltmp460:
.Lfunc_end66:
	.seh_handlerdata
	.section	.text,"xr",one_only,_ZN4core3mem7size_of17hd41ea041ebd00fd9E
.Lcfi482:
	.seh_endproc

	.def	 _ZN4core3mem7size_of17hec2cdb4e6f6dfa5cE;
	.scl	3;
	.type	32;
	.endef
	.section	.text,"xr",one_only,_ZN4core3mem7size_of17hec2cdb4e6f6dfa5cE
	.p2align	4, 0x90
_ZN4core3mem7size_of17hec2cdb4e6f6dfa5cE:
.Lfunc_begin67:
	.cv_func_id 67
	.cv_loc	67 14 315 0
.Lcfi483:
.seh_proc _ZN4core3mem7size_of17hec2cdb4e6f6dfa5cE
	pushq	%rbp
.Lcfi484:
	.seh_pushreg 5
.Ltmp461:
	subq	$16, %rsp
.Lcfi485:
	.seh_stackalloc 16
	leaq	16(%rsp), %rbp
.Lcfi486:
	.seh_setframe 5, 16
.Lcfi487:
	.seh_endprologue
	.cv_loc	67 14 316 0
	movq	$32, -8(%rbp)
	movq	-8(%rbp), %rax
	movq	%rax, -16(%rbp)
.Ltmp462:
	.cv_loc	67 14 317 0
	movq	-16(%rbp), %rax
	addq	$16, %rsp
	popq	%rbp
	retq
.Ltmp463:
.Lfunc_end67:
	.seh_handlerdata
	.section	.text,"xr",one_only,_ZN4core3mem7size_of17hec2cdb4e6f6dfa5cE
.Lcfi488:
	.seh_endproc

	.def	 _ZN4core3mem8align_of17h45fd43838b960971E;
	.scl	3;
	.type	32;
	.endef
	.section	.text,"xr",one_only,_ZN4core3mem8align_of17h45fd43838b960971E
	.p2align	4, 0x90
_ZN4core3mem8align_of17h45fd43838b960971E:
.Lfunc_begin68:
	.cv_func_id 68
	.cv_loc	68 14 407 0
.Lcfi489:
.seh_proc _ZN4core3mem8align_of17h45fd43838b960971E
	pushq	%rbp
.Lcfi490:
	.seh_pushreg 5
.Ltmp464:
	subq	$16, %rsp
.Lcfi491:
	.seh_stackalloc 16
	leaq	16(%rsp), %rbp
.Lcfi492:
	.seh_setframe 5, 16
.Lcfi493:
	.seh_endprologue
	.cv_loc	68 14 408 0
	movq	$1, -8(%rbp)
	movq	-8(%rbp), %rax
	movq	%rax, -16(%rbp)
.Ltmp465:
	.cv_loc	68 14 409 0
	movq	-16(%rbp), %rax
	addq	$16, %rsp
	popq	%rbp
	retq
.Ltmp466:
.Lfunc_end68:
	.seh_handlerdata
	.section	.text,"xr",one_only,_ZN4core3mem8align_of17h45fd43838b960971E
.Lcfi494:
	.seh_endproc

	.def	 _ZN4core3num23_$LT$impl$u20$usize$GT$11checked_add17hd5d97c0dccb4bb1cE;
	.scl	3;
	.type	32;
	.endef
	.section	.text,"xr",one_only,_ZN4core3num23_$LT$impl$u20$usize$GT$11checked_add17hd5d97c0dccb4bb1cE
	.p2align	4, 0x90
_ZN4core3num23_$LT$impl$u20$usize$GT$11checked_add17hd5d97c0dccb4bb1cE:
.Lfunc_begin69:
	.cv_func_id 69
	.cv_file	20 "C:\\projects\\rust\\src\\libcore\\num\\mod.rs"
	.cv_loc	69 20 1575 0
.Lcfi495:
.seh_proc _ZN4core3num23_$LT$impl$u20$usize$GT$11checked_add17hd5d97c0dccb4bb1cE
	pushq	%rbp
.Lcfi496:
	.seh_pushreg 5
	subq	$112, %rsp
.Lcfi497:
	.seh_stackalloc 112
	leaq	112(%rsp), %rbp
.Lcfi498:
	.seh_setframe 5, 112
.Lcfi499:
	.seh_endprologue
	movq	%rcx, %rax
	leaq	-16(%rbp), %r9
	movq	%rdx, -48(%rbp)
	movq	%r8, -40(%rbp)
.Ltmp467:
	.cv_loc	69 20 1576 0
	movq	-48(%rbp), %rdx
	movq	-40(%rbp), %r8
	movq	%rcx, -56(%rbp)
	movq	%r9, %rcx
	movq	%rax, -64(%rbp)
	callq	_ZN4core3num23_$LT$impl$u20$usize$GT$15overflowing_add17hd9aabd3aee812550E
	movq	-16(%rbp), %rax
	movb	-8(%rbp), %r10b
	movq	%rax, -72(%rbp)
	movb	%r10b, -73(%rbp)
	movq	-72(%rbp), %rax
	movq	%rax, -32(%rbp)
	movb	-73(%rbp), %cl
	andb	$1, %cl
	movb	%cl, -17(%rbp)
	.cv_loc	69 20 1577 0
	testb	$1, -17(%rbp)
	je	.LBB69_3
	movq	-56(%rbp), %rax
	movq	$0, (%rax)
	jmp	.LBB69_4
.LBB69_3:
	movq	-32(%rbp), %rax
	movq	-56(%rbp), %rcx
	movq	$1, (%rcx)
	movq	%rax, 8(%rcx)
.Ltmp468:
.LBB69_4:
	.cv_loc	69 20 1578 0
	movq	-64(%rbp), %rax
	addq	$112, %rsp
	popq	%rbp
	retq
.Ltmp469:
.Lfunc_end69:
	.seh_handlerdata
	.section	.text,"xr",one_only,_ZN4core3num23_$LT$impl$u20$usize$GT$11checked_add17hd5d97c0dccb4bb1cE
.Lcfi500:
	.seh_endproc

	.def	 _ZN4core3num23_$LT$impl$u20$usize$GT$11checked_mul17h971de4395b5f8255E;
	.scl	3;
	.type	32;
	.endef
	.section	.text,"xr",one_only,_ZN4core3num23_$LT$impl$u20$usize$GT$11checked_mul17h971de4395b5f8255E
	.p2align	4, 0x90
_ZN4core3num23_$LT$impl$u20$usize$GT$11checked_mul17h971de4395b5f8255E:
.Lfunc_begin70:
	.cv_func_id 70
	.cv_loc	70 20 1611 0
.Lcfi501:
.seh_proc _ZN4core3num23_$LT$impl$u20$usize$GT$11checked_mul17h971de4395b5f8255E
	pushq	%rbp
.Lcfi502:
	.seh_pushreg 5
	subq	$112, %rsp
.Lcfi503:
	.seh_stackalloc 112
	leaq	112(%rsp), %rbp
.Lcfi504:
	.seh_setframe 5, 112
.Lcfi505:
	.seh_endprologue
	movq	%rcx, %rax
	leaq	-16(%rbp), %r9
	movq	%rdx, -48(%rbp)
	movq	%r8, -40(%rbp)
.Ltmp470:
	.cv_loc	70 20 1612 0
	movq	-48(%rbp), %rdx
	movq	-40(%rbp), %r8
	movq	%rcx, -56(%rbp)
	movq	%r9, %rcx
	movq	%rax, -64(%rbp)
	callq	_ZN4core3num23_$LT$impl$u20$usize$GT$15overflowing_mul17hf4f4177164584a41E
	movq	-16(%rbp), %rax
	movb	-8(%rbp), %r10b
	movq	%rax, -72(%rbp)
	movb	%r10b, -73(%rbp)
	movq	-72(%rbp), %rax
	movq	%rax, -32(%rbp)
	movb	-73(%rbp), %cl
	andb	$1, %cl
	movb	%cl, -17(%rbp)
	.cv_loc	70 20 1613 0
	testb	$1, -17(%rbp)
	je	.LBB70_3
	movq	-56(%rbp), %rax
	movq	$0, (%rax)
	jmp	.LBB70_4
.LBB70_3:
	movq	-32(%rbp), %rax
	movq	-56(%rbp), %rcx
	movq	$1, (%rcx)
	movq	%rax, 8(%rcx)
.Ltmp471:
.LBB70_4:
	.cv_loc	70 20 1614 0
	movq	-64(%rbp), %rax
	addq	$112, %rsp
	popq	%rbp
	retq
.Ltmp472:
.Lfunc_end70:
	.seh_handlerdata
	.section	.text,"xr",one_only,_ZN4core3num23_$LT$impl$u20$usize$GT$11checked_mul17h971de4395b5f8255E
.Lcfi506:
	.seh_endproc

	.def	 _ZN4core3num23_$LT$impl$u20$usize$GT$12wrapping_add17hc0fbfcb3cc852498E;
	.scl	3;
	.type	32;
	.endef
	.section	.text,"xr",one_only,_ZN4core3num23_$LT$impl$u20$usize$GT$12wrapping_add17hc0fbfcb3cc852498E
	.p2align	4, 0x90
_ZN4core3num23_$LT$impl$u20$usize$GT$12wrapping_add17hc0fbfcb3cc852498E:
.Lfunc_begin71:
	.cv_func_id 71
	.cv_loc	71 20 1785 0
.Lcfi507:
.seh_proc _ZN4core3num23_$LT$impl$u20$usize$GT$12wrapping_add17hc0fbfcb3cc852498E
	pushq	%rbp
.Lcfi508:
	.seh_pushreg 5
	subq	$32, %rsp
.Lcfi509:
	.seh_stackalloc 32
	leaq	32(%rsp), %rbp
.Lcfi510:
	.seh_setframe 5, 32
.Lcfi511:
	.seh_endprologue
	movq	%rcx, -24(%rbp)
	movq	%rdx, -16(%rbp)
.Ltmp473:
	.cv_loc	71 20 1787 0
	movq	-24(%rbp), %rcx
	addq	-16(%rbp), %rcx
	movq	%rcx, -8(%rbp)
	movq	-8(%rbp), %rax
	movq	%rax, -32(%rbp)
.Ltmp474:
	.cv_loc	71 20 1789 0
	movq	-32(%rbp), %rax
	addq	$32, %rsp
	popq	%rbp
	retq
.Ltmp475:
.Lfunc_end71:
	.seh_handlerdata
	.section	.text,"xr",one_only,_ZN4core3num23_$LT$impl$u20$usize$GT$12wrapping_add17hc0fbfcb3cc852498E
.Lcfi512:
	.seh_endproc

	.def	 _ZN4core3num23_$LT$impl$u20$usize$GT$12wrapping_sub17ha905bb690b3ca91eE;
	.scl	3;
	.type	32;
	.endef
	.section	.text,"xr",one_only,_ZN4core3num23_$LT$impl$u20$usize$GT$12wrapping_sub17ha905bb690b3ca91eE
	.p2align	4, 0x90
_ZN4core3num23_$LT$impl$u20$usize$GT$12wrapping_sub17ha905bb690b3ca91eE:
.Lfunc_begin72:
	.cv_func_id 72
	.cv_loc	72 20 1804 0
.Lcfi513:
.seh_proc _ZN4core3num23_$LT$impl$u20$usize$GT$12wrapping_sub17ha905bb690b3ca91eE
	pushq	%rbp
.Lcfi514:
	.seh_pushreg 5
	subq	$32, %rsp
.Lcfi515:
	.seh_stackalloc 32
	leaq	32(%rsp), %rbp
.Lcfi516:
	.seh_setframe 5, 32
.Lcfi517:
	.seh_endprologue
	movq	%rcx, -24(%rbp)
	movq	%rdx, -16(%rbp)
.Ltmp476:
	.cv_loc	72 20 1806 0
	movq	-24(%rbp), %rcx
	subq	-16(%rbp), %rcx
	movq	%rcx, -8(%rbp)
	movq	-8(%rbp), %rax
	movq	%rax, -32(%rbp)
.Ltmp477:
	.cv_loc	72 20 1808 0
	movq	-32(%rbp), %rax
	addq	$32, %rsp
	popq	%rbp
	retq
.Ltmp478:
.Lfunc_end72:
	.seh_handlerdata
	.section	.text,"xr",one_only,_ZN4core3num23_$LT$impl$u20$usize$GT$12wrapping_sub17ha905bb690b3ca91eE
.Lcfi518:
	.seh_endproc

	.def	 _ZN4core3num23_$LT$impl$u20$usize$GT$15is_power_of_two17h190599347810eca4E;
	.scl	3;
	.type	32;
	.endef
	.section	.text,"xr",one_only,_ZN4core3num23_$LT$impl$u20$usize$GT$15is_power_of_two17h190599347810eca4E
	.p2align	4, 0x90
_ZN4core3num23_$LT$impl$u20$usize$GT$15is_power_of_two17h190599347810eca4E:
.Lfunc_begin73:
	.cv_func_id 73
	.cv_loc	73 20 2184 0
.Lcfi519:
.seh_proc _ZN4core3num23_$LT$impl$u20$usize$GT$15is_power_of_two17h190599347810eca4E
	pushq	%rbp
.Lcfi520:
	.seh_pushreg 5
	subq	$64, %rsp
.Lcfi521:
	.seh_stackalloc 64
	leaq	64(%rsp), %rbp
.Lcfi522:
	.seh_setframe 5, 64
.Lcfi523:
	.seh_endprologue
	movl	$1, %eax
	movl	%eax, %edx
	movq	%rcx, -16(%rbp)
.Ltmp479:
	.cv_loc	73 20 2185 0
	movq	-16(%rbp), %rcx
	callq	_ZN4core3num23_$LT$impl$u20$usize$GT$12wrapping_sub17ha905bb690b3ca91eE
	movq	%rax, -24(%rbp)
	jmp	.LBB73_5
.LBB73_1:
	movb	$1, -1(%rbp)
	jmp	.LBB73_4
.LBB73_2:
	movb	$0, -1(%rbp)
	jmp	.LBB73_4
.LBB73_3:
	cmpq	$0, -16(%rbp)
	sete	%al
	xorb	$-1, %al
	testb	$1, %al
	jne	.LBB73_1
	jmp	.LBB73_2
.LBB73_4:
	.cv_loc	73 20 2186 0
	movb	-1(%rbp), %al
	andb	$1, %al
	movzbl	%al, %eax
	addq	$64, %rsp
	popq	%rbp
	retq
.LBB73_5:
	.cv_loc	73 20 2185 0
	movq	-24(%rbp), %rax
	andq	-16(%rbp), %rax
	cmpq	$0, %rax
	je	.LBB73_3
	jmp	.LBB73_2
.Ltmp480:
.Lfunc_end73:
	.seh_handlerdata
	.section	.text,"xr",one_only,_ZN4core3num23_$LT$impl$u20$usize$GT$15is_power_of_two17h190599347810eca4E
.Lcfi524:
	.seh_endproc

	.def	 _ZN4core3num23_$LT$impl$u20$usize$GT$15overflowing_add17hd9aabd3aee812550E;
	.scl	3;
	.type	32;
	.endef
	.section	.text,"xr",one_only,_ZN4core3num23_$LT$impl$u20$usize$GT$15overflowing_add17hd9aabd3aee812550E
	.p2align	4, 0x90
_ZN4core3num23_$LT$impl$u20$usize$GT$15overflowing_add17hd9aabd3aee812550E:
.Lfunc_begin74:
	.cv_func_id 74
	.cv_loc	74 20 1966 0
.Lcfi525:
.seh_proc _ZN4core3num23_$LT$impl$u20$usize$GT$15overflowing_add17hd9aabd3aee812550E
	pushq	%rbp
.Lcfi526:
	.seh_pushreg 5
	subq	$80, %rsp
.Lcfi527:
	.seh_stackalloc 80
	leaq	80(%rsp), %rbp
.Lcfi528:
	.seh_setframe 5, 80
.Lcfi529:
	.seh_endprologue
	movq	%rcx, %rax
	movq	%rdx, -48(%rbp)
	movq	%r8, -40(%rbp)
.Ltmp481:
	.cv_loc	74 20 1968 0
	movq	-48(%rbp), %rdx
	addq	-40(%rbp), %rdx
	setb	%r9b
	andb	$1, %r9b
	movq	%rdx, -16(%rbp)
	movb	%r9b, -8(%rbp)
	movq	-16(%rbp), %rdx
	movb	-8(%rbp), %r9b
	movq	%rax, -56(%rbp)
	movq	%rcx, -64(%rbp)
	movq	%rdx, -72(%rbp)
	movb	%r9b, -73(%rbp)
	movq	-72(%rbp), %rax
	movq	%rax, -32(%rbp)
	movb	-73(%rbp), %cl
	andb	$1, %cl
	movb	%cl, -17(%rbp)
	.cv_loc	74 20 1970 0
	movq	-32(%rbp), %rdx
	movb	-17(%rbp), %cl
	movq	-64(%rbp), %r8
	movq	%rdx, (%r8)
	andb	$1, %cl
	movb	%cl, 8(%r8)
.Ltmp482:
	.cv_loc	74 20 1972 0
	movq	-56(%rbp), %rax
	addq	$80, %rsp
	popq	%rbp
	retq
.Ltmp483:
.Lfunc_end74:
	.seh_handlerdata
	.section	.text,"xr",one_only,_ZN4core3num23_$LT$impl$u20$usize$GT$15overflowing_add17hd9aabd3aee812550E
.Lcfi530:
	.seh_endproc

	.def	 _ZN4core3num23_$LT$impl$u20$usize$GT$15overflowing_mul17hf4f4177164584a41E;
	.scl	3;
	.type	32;
	.endef
	.section	.text,"xr",one_only,_ZN4core3num23_$LT$impl$u20$usize$GT$15overflowing_mul17hf4f4177164584a41E
	.p2align	4, 0x90
_ZN4core3num23_$LT$impl$u20$usize$GT$15overflowing_mul17hf4f4177164584a41E:
.Lfunc_begin75:
	.cv_func_id 75
	.cv_loc	75 20 2016 0
.Lcfi531:
.seh_proc _ZN4core3num23_$LT$impl$u20$usize$GT$15overflowing_mul17hf4f4177164584a41E
	pushq	%rbp
.Lcfi532:
	.seh_pushreg 5
	subq	$80, %rsp
.Lcfi533:
	.seh_stackalloc 80
	leaq	80(%rsp), %rbp
.Lcfi534:
	.seh_setframe 5, 80
.Lcfi535:
	.seh_endprologue
	movq	%rcx, %rax
	movq	%rdx, -48(%rbp)
	movq	%r8, -40(%rbp)
.Ltmp484:
	.cv_loc	75 20 2018 0
	movq	-48(%rbp), %rdx
	movq	%rax, -56(%rbp)
	movq	%rdx, %rax
	mulq	-40(%rbp)
	seto	%r9b
	andb	$1, %r9b
	movq	%rax, -16(%rbp)
	movb	%r9b, -8(%rbp)
	movq	-16(%rbp), %rax
	movb	-8(%rbp), %r9b
	movq	%rcx, -64(%rbp)
	movq	%rax, -72(%rbp)
	movb	%r9b, -73(%rbp)
	movq	-72(%rbp), %rax
	movq	%rax, -32(%rbp)
	movb	-73(%rbp), %cl
	andb	$1, %cl
	movb	%cl, -17(%rbp)
	.cv_loc	75 20 2020 0
	movq	-32(%rbp), %rdx
	movb	-17(%rbp), %cl
	movq	-64(%rbp), %r8
	movq	%rdx, (%r8)
	andb	$1, %cl
	movb	%cl, 8(%r8)
.Ltmp485:
	.cv_loc	75 20 2022 0
	movq	-56(%rbp), %rax
	addq	$80, %rsp
	popq	%rbp
	retq
.Ltmp486:
.Lfunc_end75:
	.seh_handlerdata
	.section	.text,"xr",one_only,_ZN4core3num23_$LT$impl$u20$usize$GT$15overflowing_mul17hf4f4177164584a41E
.Lcfi536:
	.seh_endproc

	.def	 _ZN4core3ptr13drop_in_place17h0426045526efd4f5E;
	.scl	3;
	.type	32;
	.endef
	.section	.text,"xr",one_only,_ZN4core3ptr13drop_in_place17h0426045526efd4f5E
	.p2align	4, 0x90
_ZN4core3ptr13drop_in_place17h0426045526efd4f5E:
.Lfunc_begin76:
	.cv_func_id 76
	.cv_loc	76 7 59 0
.Lcfi537:
.seh_proc _ZN4core3ptr13drop_in_place17h0426045526efd4f5E
	pushq	%rbp
.Lcfi538:
	.seh_pushreg 5
	subq	$48, %rsp
.Lcfi539:
	.seh_stackalloc 48
	leaq	48(%rsp), %rbp
.Lcfi540:
	.seh_setframe 5, 48
.Lcfi541:
	.seh_endprologue
	movq	%rcx, -8(%rbp)
.Ltmp487:
	movq	-8(%rbp), %rcx
	callq	_ZN4core3ptr13drop_in_place17h4c5a705ad1f1cd97E
	nop
	addq	$48, %rsp
	popq	%rbp
	retq
.Ltmp488:
.Lfunc_end76:
	.seh_handlerdata
	.section	.text,"xr",one_only,_ZN4core3ptr13drop_in_place17h0426045526efd4f5E
.Lcfi542:
	.seh_endproc

	.def	 _ZN4core3ptr13drop_in_place17h14cd10101ecd5e1bE;
	.scl	3;
	.type	32;
	.endef
	.section	.text,"xr",one_only,_ZN4core3ptr13drop_in_place17h14cd10101ecd5e1bE
	.p2align	4, 0x90
_ZN4core3ptr13drop_in_place17h14cd10101ecd5e1bE:
.Lfunc_begin77:
	.cv_func_id 77
	.cv_loc	77 7 59 0
.Lcfi543:
.seh_proc _ZN4core3ptr13drop_in_place17h14cd10101ecd5e1bE
	pushq	%rbp
.Lcfi544:
	.seh_pushreg 5
	subq	$48, %rsp
.Lcfi545:
	.seh_stackalloc 48
	leaq	48(%rsp), %rbp
.Lcfi546:
	.seh_setframe 5, 48
.Lcfi547:
	.seh_endprologue
	movq	%rcx, -8(%rbp)
.Ltmp489:
	movq	-8(%rbp), %rcx
	addq	$8, %rcx
	callq	_ZN4core3ptr13drop_in_place17h16b35dc812dabffcE
	nop
	addq	$48, %rsp
	popq	%rbp
	retq
.Ltmp490:
.Lfunc_end77:
	.seh_handlerdata
	.section	.text,"xr",one_only,_ZN4core3ptr13drop_in_place17h14cd10101ecd5e1bE
.Lcfi548:
	.seh_endproc

	.def	 _ZN4core3ptr13drop_in_place17h1529aeab937f4cdfE;
	.scl	3;
	.type	32;
	.endef
	.section	.text,"xr",one_only,_ZN4core3ptr13drop_in_place17h1529aeab937f4cdfE
	.p2align	4, 0x90
_ZN4core3ptr13drop_in_place17h1529aeab937f4cdfE:
.Lfunc_begin78:
	.cv_func_id 78
	.cv_loc	78 7 59 0
.Lcfi549:
.seh_proc _ZN4core3ptr13drop_in_place17h1529aeab937f4cdfE
	.seh_handler __CxxFrameHandler3, @unwind, @except
	pushq	%rbp
.Lcfi550:
	.seh_pushreg 5
	subq	$48, %rsp
.Lcfi551:
	.seh_stackalloc 48
	leaq	48(%rsp), %rbp
.Lcfi552:
	.seh_setframe 5, 48
.Lcfi553:
	.seh_endprologue
	movq	$-2, -8(%rbp)
	movq	%rcx, -16(%rbp)
.Ltmp493:
	movq	-16(%rbp), %rcx
.Ltmp491:
	callq	_ZN66_$LT$alloc..vec..Vec$LT$T$GT$$u20$as$u20$core..ops..drop..Drop$GT$4drop17h601db2a66023ed60E
.Ltmp492:
	jmp	.LBB78_1
.Ltmp494:
.LBB78_1:
	movq	-16(%rbp), %rcx
	callq	_ZN4core3ptr13drop_in_place17hd5d743d8f92c1f99E
	nop
	addq	$48, %rsp
	popq	%rbp
.Ltmp495:
	retq
	.seh_handlerdata
	.long	($cppxdata$_ZN4core3ptr13drop_in_place17h1529aeab937f4cdfE)@IMGREL
	.section	.text,"xr",one_only,_ZN4core3ptr13drop_in_place17h1529aeab937f4cdfE
.Lcfi554:
	.seh_endproc
	.def	 "?dtor$2@?0?_ZN4core3ptr13drop_in_place17h1529aeab937f4cdfE@4HA";
	.scl	3;
	.type	32;
	.endef
	.p2align	4, 0x90
"?dtor$2@?0?_ZN4core3ptr13drop_in_place17h1529aeab937f4cdfE@4HA":
.Lcfi555:
.seh_proc "?dtor$2@?0?_ZN4core3ptr13drop_in_place17h1529aeab937f4cdfE@4HA"
.LBB78_2:
.Ltmp496:
	movq	%rdx, 16(%rsp)
	pushq	%rbp
.Lcfi556:
	.seh_pushreg 5
	subq	$32, %rsp
.Lcfi557:
	.seh_stackalloc 32
	leaq	48(%rdx), %rbp
.Ltmp497:
.Lcfi558:
	.seh_endprologue
	movq	-16(%rbp), %rcx
	callq	_ZN4core3ptr13drop_in_place17hd5d743d8f92c1f99E
	nop
	addq	$32, %rsp
	popq	%rbp
	retq
.Ltmp498:
.Lfunc_end78:
	.seh_handlerdata
	.section	.text,"xr",one_only,_ZN4core3ptr13drop_in_place17h1529aeab937f4cdfE
.Lcfi559:
	.seh_endproc
	.section	.xdata,"dr",associative,_ZN4core3ptr13drop_in_place17h1529aeab937f4cdfE
	.p2align	2
$cppxdata$_ZN4core3ptr13drop_in_place17h1529aeab937f4cdfE:
	.long	429065506
	.long	1
	.long	($stateUnwindMap$_ZN4core3ptr13drop_in_place17h1529aeab937f4cdfE)@IMGREL
	.long	0
	.long	0
	.long	3
	.long	($ip2state$_ZN4core3ptr13drop_in_place17h1529aeab937f4cdfE)@IMGREL
	.long	40
	.long	0
	.long	1
$stateUnwindMap$_ZN4core3ptr13drop_in_place17h1529aeab937f4cdfE:
	.long	-1
	.long	"?dtor$2@?0?_ZN4core3ptr13drop_in_place17h1529aeab937f4cdfE@4HA"@IMGREL
$ip2state$_ZN4core3ptr13drop_in_place17h1529aeab937f4cdfE:
	.long	.Lfunc_begin78@IMGREL
	.long	-1
	.long	.Ltmp491@IMGREL+1
	.long	0
	.long	.Ltmp492@IMGREL+1
	.long	-1
	.section	.text,"xr",one_only,_ZN4core3ptr13drop_in_place17h1529aeab937f4cdfE

	.def	 _ZN4core3ptr13drop_in_place17h16b35dc812dabffcE;
	.scl	3;
	.type	32;
	.endef
	.section	.text,"xr",one_only,_ZN4core3ptr13drop_in_place17h16b35dc812dabffcE
	.p2align	4, 0x90
_ZN4core3ptr13drop_in_place17h16b35dc812dabffcE:
.Lfunc_begin79:
	.cv_func_id 79
	.cv_loc	79 7 59 0
.Lcfi560:
.seh_proc _ZN4core3ptr13drop_in_place17h16b35dc812dabffcE
	.seh_handler __CxxFrameHandler3, @unwind, @except
	pushq	%rbp
.Lcfi561:
	.seh_pushreg 5
	subq	$64, %rsp
.Lcfi562:
	.seh_stackalloc 64
	leaq	64(%rsp), %rbp
.Lcfi563:
	.seh_setframe 5, 64
.Lcfi564:
	.seh_endprologue
	movq	$-2, -8(%rbp)
	movq	%rcx, -16(%rbp)
.Ltmp501:
	movq	-16(%rbp), %rcx
	movq	(%rcx), %rax
	movq	8(%rcx), %rcx
	movq	(%rcx), %rcx
.Ltmp499:
	movq	%rcx, -24(%rbp)
	movq	%rax, %rcx
	movq	-24(%rbp), %rax
	callq	*%rax
.Ltmp500:
	jmp	.LBB79_1
.Ltmp502:
.LBB79_1:
	movq	-16(%rbp), %rax
	movq	(%rax), %rcx
	movq	8(%rax), %rax
	movq	%rax, %rdx
	callq	_ZN5alloc4heap8box_free17h498c52f11f69a135E
	nop
	addq	$64, %rsp
	popq	%rbp
.Ltmp503:
	retq
	.seh_handlerdata
	.long	($cppxdata$_ZN4core3ptr13drop_in_place17h16b35dc812dabffcE)@IMGREL
	.section	.text,"xr",one_only,_ZN4core3ptr13drop_in_place17h16b35dc812dabffcE
.Lcfi565:
	.seh_endproc
	.def	 "?dtor$2@?0?_ZN4core3ptr13drop_in_place17h16b35dc812dabffcE@4HA";
	.scl	3;
	.type	32;
	.endef
	.p2align	4, 0x90
"?dtor$2@?0?_ZN4core3ptr13drop_in_place17h16b35dc812dabffcE@4HA":
.Lcfi566:
.seh_proc "?dtor$2@?0?_ZN4core3ptr13drop_in_place17h16b35dc812dabffcE@4HA"
.LBB79_2:
.Ltmp504:
	movq	%rdx, 16(%rsp)
	pushq	%rbp
.Lcfi567:
	.seh_pushreg 5
	subq	$32, %rsp
.Lcfi568:
	.seh_stackalloc 32
	leaq	64(%rdx), %rbp
.Ltmp505:
.Lcfi569:
	.seh_endprologue
	movq	-16(%rbp), %rax
	movq	(%rax), %rcx
	movq	8(%rax), %rdx
	callq	_ZN5alloc4heap8box_free17h498c52f11f69a135E
	nop
	addq	$32, %rsp
	popq	%rbp
	retq
.Ltmp506:
.Lfunc_end79:
	.seh_handlerdata
	.section	.text,"xr",one_only,_ZN4core3ptr13drop_in_place17h16b35dc812dabffcE
.Lcfi570:
	.seh_endproc
	.section	.xdata,"dr",associative,_ZN4core3ptr13drop_in_place17h16b35dc812dabffcE
	.p2align	2
$cppxdata$_ZN4core3ptr13drop_in_place17h16b35dc812dabffcE:
	.long	429065506
	.long	1
	.long	($stateUnwindMap$_ZN4core3ptr13drop_in_place17h16b35dc812dabffcE)@IMGREL
	.long	0
	.long	0
	.long	3
	.long	($ip2state$_ZN4core3ptr13drop_in_place17h16b35dc812dabffcE)@IMGREL
	.long	56
	.long	0
	.long	1
$stateUnwindMap$_ZN4core3ptr13drop_in_place17h16b35dc812dabffcE:
	.long	-1
	.long	"?dtor$2@?0?_ZN4core3ptr13drop_in_place17h16b35dc812dabffcE@4HA"@IMGREL
$ip2state$_ZN4core3ptr13drop_in_place17h16b35dc812dabffcE:
	.long	.Lfunc_begin79@IMGREL
	.long	-1
	.long	.Ltmp499@IMGREL+1
	.long	0
	.long	.Ltmp500@IMGREL+1
	.long	-1
	.section	.text,"xr",one_only,_ZN4core3ptr13drop_in_place17h16b35dc812dabffcE

	.def	 _ZN4core3ptr13drop_in_place17h1b91f7d135ecb0e8E;
	.scl	3;
	.type	32;
	.endef
	.section	.text,"xr",one_only,_ZN4core3ptr13drop_in_place17h1b91f7d135ecb0e8E
	.p2align	4, 0x90
_ZN4core3ptr13drop_in_place17h1b91f7d135ecb0e8E:
.Lfunc_begin80:
	.cv_func_id 80
	.cv_loc	80 7 59 0
.Lcfi571:
.seh_proc _ZN4core3ptr13drop_in_place17h1b91f7d135ecb0e8E
	pushq	%rbp
.Lcfi572:
	.seh_pushreg 5
	subq	$48, %rsp
.Lcfi573:
	.seh_stackalloc 48
	leaq	48(%rsp), %rbp
.Lcfi574:
	.seh_setframe 5, 48
.Lcfi575:
	.seh_endprologue
	movq	%rcx, -8(%rbp)
.Ltmp507:
	movq	-8(%rbp), %rcx
	movq	(%rcx), %rcx
	callq	_ZN5alloc4heap8box_free17h49e0da94dcb580bcE
	nop
	addq	$48, %rsp
	popq	%rbp
	retq
.Ltmp508:
.Lfunc_end80:
	.seh_handlerdata
	.section	.text,"xr",one_only,_ZN4core3ptr13drop_in_place17h1b91f7d135ecb0e8E
.Lcfi576:
	.seh_endproc

	.def	 _ZN4core3ptr13drop_in_place17h1be10147fc54d157E;
	.scl	3;
	.type	32;
	.endef
	.section	.text,"xr",one_only,_ZN4core3ptr13drop_in_place17h1be10147fc54d157E
	.p2align	4, 0x90
_ZN4core3ptr13drop_in_place17h1be10147fc54d157E:
.Lfunc_begin81:
	.cv_func_id 81
	.cv_loc	81 7 59 0
.Lcfi577:
.seh_proc _ZN4core3ptr13drop_in_place17h1be10147fc54d157E
	.seh_handler __CxxFrameHandler3, @unwind, @except
	pushq	%rbp
.Lcfi578:
	.seh_pushreg 5
	subq	$48, %rsp
.Lcfi579:
	.seh_stackalloc 48
	leaq	48(%rsp), %rbp
.Lcfi580:
	.seh_setframe 5, 48
.Lcfi581:
	.seh_endprologue
	movq	$-2, -8(%rbp)
	movq	%rcx, -16(%rbp)
.Ltmp513:
	movq	-16(%rbp), %rcx
.Ltmp509:
	callq	_ZN91_$LT$std..sys_common..remutex..ReentrantMutex$LT$T$GT$$u20$as$u20$core..ops..drop..Drop$GT$4drop17hb42018ef05e27d41E
.Ltmp510:
	jmp	.LBB81_2
.Ltmp514:
.LBB81_1:
	movq	-16(%rbp), %rax
	addq	$8, %rax
	movq	%rax, %rcx
	callq	_ZN4core3ptr13drop_in_place17h89074b9fef1a7192E
	nop
	addq	$48, %rsp
	popq	%rbp
.Ltmp515:
	retq
.LBB81_2:
.Ltmp516:
	movq	-16(%rbp), %rcx
.Ltmp511:
	callq	_ZN4core3ptr13drop_in_place17h1b91f7d135ecb0e8E
.Ltmp512:
	jmp	.LBB81_1
.Ltmp517:
	.seh_handlerdata
	.long	($cppxdata$_ZN4core3ptr13drop_in_place17h1be10147fc54d157E)@IMGREL
	.section	.text,"xr",one_only,_ZN4core3ptr13drop_in_place17h1be10147fc54d157E
.Lcfi582:
	.seh_endproc
	.def	 "?dtor$3@?0?_ZN4core3ptr13drop_in_place17h1be10147fc54d157E@4HA";
	.scl	3;
	.type	32;
	.endef
	.p2align	4, 0x90
"?dtor$3@?0?_ZN4core3ptr13drop_in_place17h1be10147fc54d157E@4HA":
.Lcfi583:
.seh_proc "?dtor$3@?0?_ZN4core3ptr13drop_in_place17h1be10147fc54d157E@4HA"
.LBB81_3:
	movq	%rdx, 16(%rsp)
	pushq	%rbp
.Lcfi584:
	.seh_pushreg 5
	subq	$32, %rsp
.Lcfi585:
	.seh_stackalloc 32
	leaq	48(%rdx), %rbp
.Ltmp518:
.Lcfi586:
	.seh_endprologue
	movq	-16(%rbp), %rax
	addq	$8, %rax
	movq	%rax, %rcx
	callq	_ZN4core3ptr13drop_in_place17h89074b9fef1a7192E
	nop
	addq	$32, %rsp
	popq	%rbp
	retq
	.seh_handlerdata
	.section	.text,"xr",one_only,_ZN4core3ptr13drop_in_place17h1be10147fc54d157E
.Lcfi587:
	.seh_endproc
	.def	 "?dtor$4@?0?_ZN4core3ptr13drop_in_place17h1be10147fc54d157E@4HA";
	.scl	3;
	.type	32;
	.endef
	.p2align	4, 0x90
"?dtor$4@?0?_ZN4core3ptr13drop_in_place17h1be10147fc54d157E@4HA":
.Lcfi588:
.seh_proc "?dtor$4@?0?_ZN4core3ptr13drop_in_place17h1be10147fc54d157E@4HA"
.LBB81_4:
.Ltmp519:
	movq	%rdx, 16(%rsp)
	pushq	%rbp
.Lcfi589:
	.seh_pushreg 5
	subq	$32, %rsp
.Lcfi590:
	.seh_stackalloc 32
	leaq	48(%rdx), %rbp
.Ltmp520:
.Lcfi591:
	.seh_endprologue
	movq	-16(%rbp), %rcx
	callq	_ZN4core3ptr13drop_in_place17h1b91f7d135ecb0e8E
	nop
	addq	$32, %rsp
	popq	%rbp
	retq
.Ltmp521:
.Lfunc_end81:
	.seh_handlerdata
	.section	.text,"xr",one_only,_ZN4core3ptr13drop_in_place17h1be10147fc54d157E
.Lcfi592:
	.seh_endproc
	.section	.xdata,"dr",associative,_ZN4core3ptr13drop_in_place17h1be10147fc54d157E
	.p2align	2
$cppxdata$_ZN4core3ptr13drop_in_place17h1be10147fc54d157E:
	.long	429065506
	.long	2
	.long	($stateUnwindMap$_ZN4core3ptr13drop_in_place17h1be10147fc54d157E)@IMGREL
	.long	0
	.long	0
	.long	5
	.long	($ip2state$_ZN4core3ptr13drop_in_place17h1be10147fc54d157E)@IMGREL
	.long	40
	.long	0
	.long	1
$stateUnwindMap$_ZN4core3ptr13drop_in_place17h1be10147fc54d157E:
	.long	-1
	.long	"?dtor$3@?0?_ZN4core3ptr13drop_in_place17h1be10147fc54d157E@4HA"@IMGREL
	.long	0
	.long	"?dtor$4@?0?_ZN4core3ptr13drop_in_place17h1be10147fc54d157E@4HA"@IMGREL
$ip2state$_ZN4core3ptr13drop_in_place17h1be10147fc54d157E:
	.long	.Lfunc_begin81@IMGREL
	.long	-1
	.long	.Ltmp509@IMGREL+1
	.long	1
	.long	.Ltmp510@IMGREL+1
	.long	-1
	.long	.Ltmp511@IMGREL+1
	.long	0
	.long	.Ltmp512@IMGREL+1
	.long	-1
	.section	.text,"xr",one_only,_ZN4core3ptr13drop_in_place17h1be10147fc54d157E

	.def	 _ZN4core3ptr13drop_in_place17h355b8a135d4331fbE;
	.scl	3;
	.type	32;
	.endef
	.section	.text,"xr",one_only,_ZN4core3ptr13drop_in_place17h355b8a135d4331fbE
	.p2align	4, 0x90
_ZN4core3ptr13drop_in_place17h355b8a135d4331fbE:
.Lfunc_begin82:
	.cv_func_id 82
	.cv_loc	82 7 59 0
.Lcfi593:
.seh_proc _ZN4core3ptr13drop_in_place17h355b8a135d4331fbE
	pushq	%rbp
.Lcfi594:
	.seh_pushreg 5
	subq	$48, %rsp
.Lcfi595:
	.seh_stackalloc 48
	leaq	48(%rsp), %rbp
.Lcfi596:
	.seh_setframe 5, 48
.Lcfi597:
	.seh_endprologue
	movq	%rcx, -16(%rbp)
	movq	%rdx, -8(%rbp)
.Ltmp522:
	movq	-16(%rbp), %rcx
	movq	-8(%rbp), %rdx
	callq	*(%rdx)
	nop
	addq	$48, %rsp
	popq	%rbp
	retq
.Ltmp523:
.Lfunc_end82:
	.seh_handlerdata
	.section	.text,"xr",one_only,_ZN4core3ptr13drop_in_place17h355b8a135d4331fbE
.Lcfi598:
	.seh_endproc

	.def	 _ZN4core3ptr13drop_in_place17h37fe342de93aa543E;
	.scl	3;
	.type	32;
	.endef
	.section	.text,"xr",one_only,_ZN4core3ptr13drop_in_place17h37fe342de93aa543E
	.p2align	4, 0x90
_ZN4core3ptr13drop_in_place17h37fe342de93aa543E:
.Lfunc_begin83:
	.cv_func_id 83
	.cv_loc	83 7 59 0
.Lcfi599:
.seh_proc _ZN4core3ptr13drop_in_place17h37fe342de93aa543E
	pushq	%rbp
.Lcfi600:
	.seh_pushreg 5
	subq	$48, %rsp
.Lcfi601:
	.seh_stackalloc 48
	leaq	48(%rsp), %rbp
.Lcfi602:
	.seh_setframe 5, 48
.Lcfi603:
	.seh_endprologue
	movq	%rcx, -8(%rbp)
.Ltmp524:
	movq	-8(%rbp), %rcx
	callq	_ZN82_$LT$alloc..vec..Drain$LT$$u27$a$C$$u20$T$GT$$u20$as$u20$core..ops..drop..Drop$GT$4drop17hc6587bbe4de00dc2E
	nop
	addq	$48, %rsp
	popq	%rbp
	retq
.Ltmp525:
.Lfunc_end83:
	.seh_handlerdata
	.section	.text,"xr",one_only,_ZN4core3ptr13drop_in_place17h37fe342de93aa543E
.Lcfi604:
	.seh_endproc

	.def	 _ZN4core3ptr13drop_in_place17h4bba7387e787af1bE;
	.scl	3;
	.type	32;
	.endef
	.section	.text,"xr",one_only,_ZN4core3ptr13drop_in_place17h4bba7387e787af1bE
	.p2align	4, 0x90
_ZN4core3ptr13drop_in_place17h4bba7387e787af1bE:
.Lfunc_begin84:
	.cv_func_id 84
	.cv_loc	84 7 59 0
.Lcfi605:
.seh_proc _ZN4core3ptr13drop_in_place17h4bba7387e787af1bE
	.seh_handler __CxxFrameHandler3, @unwind, @except
	pushq	%rbp
.Lcfi606:
	.seh_pushreg 5
	subq	$48, %rsp
.Lcfi607:
	.seh_stackalloc 48
	leaq	48(%rsp), %rbp
.Lcfi608:
	.seh_setframe 5, 48
.Lcfi609:
	.seh_endprologue
	movq	$-2, -8(%rbp)
	movq	%rcx, -16(%rbp)
.Ltmp528:
	movq	-16(%rbp), %rcx
.Ltmp526:
	callq	_ZN4core3ptr13drop_in_place17h1529aeab937f4cdfE
.Ltmp527:
	jmp	.LBB84_1
.Ltmp529:
.LBB84_1:
	movq	-16(%rbp), %rax
	addq	$32, %rax
	movq	%rax, %rcx
	callq	_ZN4core3ptr13drop_in_place17h1529aeab937f4cdfE
	nop
	addq	$48, %rsp
	popq	%rbp
.Ltmp530:
	retq
	.seh_handlerdata
	.long	($cppxdata$_ZN4core3ptr13drop_in_place17h4bba7387e787af1bE)@IMGREL
	.section	.text,"xr",one_only,_ZN4core3ptr13drop_in_place17h4bba7387e787af1bE
.Lcfi610:
	.seh_endproc
	.def	 "?dtor$2@?0?_ZN4core3ptr13drop_in_place17h4bba7387e787af1bE@4HA";
	.scl	3;
	.type	32;
	.endef
	.p2align	4, 0x90
"?dtor$2@?0?_ZN4core3ptr13drop_in_place17h4bba7387e787af1bE@4HA":
.Lcfi611:
.seh_proc "?dtor$2@?0?_ZN4core3ptr13drop_in_place17h4bba7387e787af1bE@4HA"
.LBB84_2:
.Ltmp531:
	movq	%rdx, 16(%rsp)
	pushq	%rbp
.Lcfi612:
	.seh_pushreg 5
	subq	$32, %rsp
.Lcfi613:
	.seh_stackalloc 32
	leaq	48(%rdx), %rbp
.Ltmp532:
.Lcfi614:
	.seh_endprologue
	movq	-16(%rbp), %rax
	addq	$32, %rax
	movq	%rax, %rcx
	callq	_ZN4core3ptr13drop_in_place17h1529aeab937f4cdfE
	nop
	addq	$32, %rsp
	popq	%rbp
	retq
.Ltmp533:
.Lfunc_end84:
	.seh_handlerdata
	.section	.text,"xr",one_only,_ZN4core3ptr13drop_in_place17h4bba7387e787af1bE
.Lcfi615:
	.seh_endproc
	.section	.xdata,"dr",associative,_ZN4core3ptr13drop_in_place17h4bba7387e787af1bE
	.p2align	2
$cppxdata$_ZN4core3ptr13drop_in_place17h4bba7387e787af1bE:
	.long	429065506
	.long	1
	.long	($stateUnwindMap$_ZN4core3ptr13drop_in_place17h4bba7387e787af1bE)@IMGREL
	.long	0
	.long	0
	.long	3
	.long	($ip2state$_ZN4core3ptr13drop_in_place17h4bba7387e787af1bE)@IMGREL
	.long	40
	.long	0
	.long	1
$stateUnwindMap$_ZN4core3ptr13drop_in_place17h4bba7387e787af1bE:
	.long	-1
	.long	"?dtor$2@?0?_ZN4core3ptr13drop_in_place17h4bba7387e787af1bE@4HA"@IMGREL
$ip2state$_ZN4core3ptr13drop_in_place17h4bba7387e787af1bE:
	.long	.Lfunc_begin84@IMGREL
	.long	-1
	.long	.Ltmp526@IMGREL+1
	.long	0
	.long	.Ltmp527@IMGREL+1
	.long	-1
	.section	.text,"xr",one_only,_ZN4core3ptr13drop_in_place17h4bba7387e787af1bE

	.def	 _ZN4core3ptr13drop_in_place17h4c5a705ad1f1cd97E;
	.scl	3;
	.type	32;
	.endef
	.section	.text,"xr",one_only,_ZN4core3ptr13drop_in_place17h4c5a705ad1f1cd97E
	.p2align	4, 0x90
_ZN4core3ptr13drop_in_place17h4c5a705ad1f1cd97E:
.Lfunc_begin85:
	.cv_func_id 85
	.cv_loc	85 7 59 0
.Lcfi616:
.seh_proc _ZN4core3ptr13drop_in_place17h4c5a705ad1f1cd97E
	pushq	%rbp
.Lcfi617:
	.seh_pushreg 5
	subq	$48, %rsp
.Lcfi618:
	.seh_stackalloc 48
	leaq	48(%rsp), %rbp
.Lcfi619:
	.seh_setframe 5, 48
.Lcfi620:
	.seh_endprologue
	movq	%rcx, -8(%rbp)
.Ltmp534:
	movq	-8(%rbp), %rcx
	callq	_ZN4core3ptr13drop_in_place17h4bba7387e787af1bE
	nop
	addq	$48, %rsp
	popq	%rbp
	retq
.Ltmp535:
.Lfunc_end85:
	.seh_handlerdata
	.section	.text,"xr",one_only,_ZN4core3ptr13drop_in_place17h4c5a705ad1f1cd97E
.Lcfi621:
	.seh_endproc

	.def	 _ZN4core3ptr13drop_in_place17h53effb9a67c5a3a2E;
	.scl	3;
	.type	32;
	.endef
	.section	.text,"xr",one_only,_ZN4core3ptr13drop_in_place17h53effb9a67c5a3a2E
	.p2align	4, 0x90
_ZN4core3ptr13drop_in_place17h53effb9a67c5a3a2E:
.Lfunc_begin86:
	.cv_func_id 86
	.cv_loc	86 7 59 0
.Lcfi622:
.seh_proc _ZN4core3ptr13drop_in_place17h53effb9a67c5a3a2E
	pushq	%rbp
.Lcfi623:
	.seh_pushreg 5
	subq	$48, %rsp
.Lcfi624:
	.seh_stackalloc 48
	leaq	48(%rsp), %rbp
.Lcfi625:
	.seh_setframe 5, 48
.Lcfi626:
	.seh_endprologue
	movq	%rcx, -8(%rbp)
.Ltmp536:
	movq	-8(%rbp), %rcx
	movb	(%rcx), %al
	subb	$1, %al
	movb	%al, -9(%rbp)
	ja	.LBB86_2
	jmp	.LBB86_1
.Ltmp537:
.LBB86_1:
	addq	$48, %rsp
	popq	%rbp
	retq
.LBB86_2:
.Ltmp538:
	movq	-8(%rbp), %rax
	addq	$8, %rax
	movq	%rax, %rcx
	callq	_ZN4core3ptr13drop_in_place17had5b5d0361187ff3E
	jmp	.LBB86_1
.Ltmp539:
.Lfunc_end86:
	.seh_handlerdata
	.section	.text,"xr",one_only,_ZN4core3ptr13drop_in_place17h53effb9a67c5a3a2E
.Lcfi627:
	.seh_endproc

	.def	 _ZN4core3ptr13drop_in_place17h846ad4f85b4b56acE;
	.scl	3;
	.type	32;
	.endef
	.section	.text,"xr",one_only,_ZN4core3ptr13drop_in_place17h846ad4f85b4b56acE
	.p2align	4, 0x90
_ZN4core3ptr13drop_in_place17h846ad4f85b4b56acE:
.Lfunc_begin87:
	.cv_func_id 87
	.cv_loc	87 7 59 0
.Lcfi628:
.seh_proc _ZN4core3ptr13drop_in_place17h846ad4f85b4b56acE
	pushq	%rbp
.Lcfi629:
	.seh_pushreg 5
	subq	$48, %rsp
.Lcfi630:
	.seh_stackalloc 48
	leaq	48(%rsp), %rbp
.Lcfi631:
	.seh_setframe 5, 48
.Lcfi632:
	.seh_endprologue
	movq	%rcx, -8(%rbp)
.Ltmp540:
	movq	-8(%rbp), %rcx
	movq	(%rcx), %rcx
	testq	%rcx, %rcx
	jne	.LBB87_2
	jmp	.LBB87_1
.Ltmp541:
.LBB87_1:
	addq	$48, %rsp
	popq	%rbp
	retq
.LBB87_2:
.Ltmp542:
	movq	-8(%rbp), %rax
	addq	$8, %rax
	movq	%rax, %rcx
	callq	_ZN4core3ptr13drop_in_place17hf04c43bd20d522c7E
	jmp	.LBB87_1
.Ltmp543:
.Lfunc_end87:
	.seh_handlerdata
	.section	.text,"xr",one_only,_ZN4core3ptr13drop_in_place17h846ad4f85b4b56acE
.Lcfi633:
	.seh_endproc

	.def	 _ZN4core3ptr13drop_in_place17h89074b9fef1a7192E;
	.scl	3;
	.type	32;
	.endef
	.section	.text,"xr",one_only,_ZN4core3ptr13drop_in_place17h89074b9fef1a7192E
	.p2align	4, 0x90
_ZN4core3ptr13drop_in_place17h89074b9fef1a7192E:
.Lfunc_begin88:
	.cv_func_id 88
	.cv_loc	88 7 59 0
.Lcfi634:
.seh_proc _ZN4core3ptr13drop_in_place17h89074b9fef1a7192E
	pushq	%rbp
.Lcfi635:
	.seh_pushreg 5
	subq	$48, %rsp
.Lcfi636:
	.seh_stackalloc 48
	leaq	48(%rsp), %rbp
.Lcfi637:
	.seh_setframe 5, 48
.Lcfi638:
	.seh_endprologue
	movq	%rcx, -8(%rbp)
.Ltmp544:
	movq	-8(%rbp), %rcx
	addq	$8, %rcx
	callq	_ZN4core3ptr13drop_in_place17hc183fa79d66ba853E
	nop
	addq	$48, %rsp
	popq	%rbp
	retq
.Ltmp545:
.Lfunc_end88:
	.seh_handlerdata
	.section	.text,"xr",one_only,_ZN4core3ptr13drop_in_place17h89074b9fef1a7192E
.Lcfi639:
	.seh_endproc

	.def	 _ZN4core3ptr13drop_in_place17h8a1848e73772174eE;
	.scl	3;
	.type	32;
	.endef
	.section	.text,"xr",one_only,_ZN4core3ptr13drop_in_place17h8a1848e73772174eE
	.p2align	4, 0x90
_ZN4core3ptr13drop_in_place17h8a1848e73772174eE:
.Lfunc_begin89:
	.cv_func_id 89
	.cv_loc	89 7 59 0
.Lcfi640:
.seh_proc _ZN4core3ptr13drop_in_place17h8a1848e73772174eE
	pushq	%rbp
.Lcfi641:
	.seh_pushreg 5
	subq	$48, %rsp
.Lcfi642:
	.seh_stackalloc 48
	leaq	48(%rsp), %rbp
.Lcfi643:
	.seh_setframe 5, 48
.Lcfi644:
	.seh_endprologue
	movq	%rcx, -8(%rbp)
.Ltmp546:
	movq	-8(%rbp), %rcx
	callq	_ZN4core3ptr13drop_in_place17hb06fd77bfb5245bbE
	nop
	addq	$48, %rsp
	popq	%rbp
	retq
.Ltmp547:
.Lfunc_end89:
	.seh_handlerdata
	.section	.text,"xr",one_only,_ZN4core3ptr13drop_in_place17h8a1848e73772174eE
.Lcfi645:
	.seh_endproc

	.def	 _ZN4core3ptr13drop_in_place17hac8234896e7c0f6dE;
	.scl	3;
	.type	32;
	.endef
	.section	.text,"xr",one_only,_ZN4core3ptr13drop_in_place17hac8234896e7c0f6dE
	.p2align	4, 0x90
_ZN4core3ptr13drop_in_place17hac8234896e7c0f6dE:
.Lfunc_begin90:
	.cv_func_id 90
	.cv_loc	90 7 59 0
.Lcfi646:
.seh_proc _ZN4core3ptr13drop_in_place17hac8234896e7c0f6dE
	.seh_handler __CxxFrameHandler3, @unwind, @except
	pushq	%rbp
.Lcfi647:
	.seh_pushreg 5
	subq	$48, %rsp
.Lcfi648:
	.seh_stackalloc 48
	leaq	48(%rsp), %rbp
.Lcfi649:
	.seh_setframe 5, 48
.Lcfi650:
	.seh_endprologue
	movq	$-2, -8(%rbp)
	movq	%rcx, -16(%rbp)
.Ltmp550:
	movq	-16(%rbp), %rcx
.Ltmp548:
	callq	_ZN79_$LT$std..io..buffered..BufWriter$LT$W$GT$$u20$as$u20$core..ops..drop..Drop$GT$4drop17h3c48316981504457E
.Ltmp549:
	jmp	.LBB90_1
.Ltmp551:
.LBB90_1:
	movq	-16(%rbp), %rcx
	callq	_ZN4core3ptr13drop_in_place17h1529aeab937f4cdfE
	nop
	addq	$48, %rsp
	popq	%rbp
.Ltmp552:
	retq
	.seh_handlerdata
	.long	($cppxdata$_ZN4core3ptr13drop_in_place17hac8234896e7c0f6dE)@IMGREL
	.section	.text,"xr",one_only,_ZN4core3ptr13drop_in_place17hac8234896e7c0f6dE
.Lcfi651:
	.seh_endproc
	.def	 "?dtor$2@?0?_ZN4core3ptr13drop_in_place17hac8234896e7c0f6dE@4HA";
	.scl	3;
	.type	32;
	.endef
	.p2align	4, 0x90
"?dtor$2@?0?_ZN4core3ptr13drop_in_place17hac8234896e7c0f6dE@4HA":
.Lcfi652:
.seh_proc "?dtor$2@?0?_ZN4core3ptr13drop_in_place17hac8234896e7c0f6dE@4HA"
.LBB90_2:
.Ltmp553:
	movq	%rdx, 16(%rsp)
	pushq	%rbp
.Lcfi653:
	.seh_pushreg 5
	subq	$32, %rsp
.Lcfi654:
	.seh_stackalloc 32
	leaq	48(%rdx), %rbp
.Ltmp554:
.Lcfi655:
	.seh_endprologue
	movq	-16(%rbp), %rcx
	callq	_ZN4core3ptr13drop_in_place17h1529aeab937f4cdfE
	nop
	addq	$32, %rsp
	popq	%rbp
	retq
.Ltmp555:
.Lfunc_end90:
	.seh_handlerdata
	.section	.text,"xr",one_only,_ZN4core3ptr13drop_in_place17hac8234896e7c0f6dE
.Lcfi656:
	.seh_endproc
	.section	.xdata,"dr",associative,_ZN4core3ptr13drop_in_place17hac8234896e7c0f6dE
	.p2align	2
$cppxdata$_ZN4core3ptr13drop_in_place17hac8234896e7c0f6dE:
	.long	429065506
	.long	1
	.long	($stateUnwindMap$_ZN4core3ptr13drop_in_place17hac8234896e7c0f6dE)@IMGREL
	.long	0
	.long	0
	.long	3
	.long	($ip2state$_ZN4core3ptr13drop_in_place17hac8234896e7c0f6dE)@IMGREL
	.long	40
	.long	0
	.long	1
$stateUnwindMap$_ZN4core3ptr13drop_in_place17hac8234896e7c0f6dE:
	.long	-1
	.long	"?dtor$2@?0?_ZN4core3ptr13drop_in_place17hac8234896e7c0f6dE@4HA"@IMGREL
$ip2state$_ZN4core3ptr13drop_in_place17hac8234896e7c0f6dE:
	.long	.Lfunc_begin90@IMGREL
	.long	-1
	.long	.Ltmp548@IMGREL+1
	.long	0
	.long	.Ltmp549@IMGREL+1
	.long	-1
	.section	.text,"xr",one_only,_ZN4core3ptr13drop_in_place17hac8234896e7c0f6dE

	.def	 _ZN4core3ptr13drop_in_place17had5b5d0361187ff3E;
	.scl	3;
	.type	32;
	.endef
	.section	.text,"xr",one_only,_ZN4core3ptr13drop_in_place17had5b5d0361187ff3E
	.p2align	4, 0x90
_ZN4core3ptr13drop_in_place17had5b5d0361187ff3E:
.Lfunc_begin91:
	.cv_func_id 91
	.cv_loc	91 7 59 0
.Lcfi657:
.seh_proc _ZN4core3ptr13drop_in_place17had5b5d0361187ff3E
	.seh_handler __CxxFrameHandler3, @unwind, @except
	pushq	%rbp
.Lcfi658:
	.seh_pushreg 5
	subq	$48, %rsp
.Lcfi659:
	.seh_stackalloc 48
	leaq	48(%rsp), %rbp
.Lcfi660:
	.seh_setframe 5, 48
.Lcfi661:
	.seh_endprologue
	movq	$-2, -8(%rbp)
	movq	%rcx, -16(%rbp)
.Ltmp558:
	movq	-16(%rbp), %rcx
	movq	(%rcx), %rcx
.Ltmp556:
	callq	_ZN4core3ptr13drop_in_place17h14cd10101ecd5e1bE
.Ltmp557:
	jmp	.LBB91_1
.Ltmp559:
.LBB91_1:
	movq	-16(%rbp), %rax
	movq	(%rax), %rcx
	callq	_ZN5alloc4heap8box_free17h2bd0b2674cf59030E
	nop
	addq	$48, %rsp
	popq	%rbp
.Ltmp560:
	retq
	.seh_handlerdata
	.long	($cppxdata$_ZN4core3ptr13drop_in_place17had5b5d0361187ff3E)@IMGREL
	.section	.text,"xr",one_only,_ZN4core3ptr13drop_in_place17had5b5d0361187ff3E
.Lcfi662:
	.seh_endproc
	.def	 "?dtor$2@?0?_ZN4core3ptr13drop_in_place17had5b5d0361187ff3E@4HA";
	.scl	3;
	.type	32;
	.endef
	.p2align	4, 0x90
"?dtor$2@?0?_ZN4core3ptr13drop_in_place17had5b5d0361187ff3E@4HA":
.Lcfi663:
.seh_proc "?dtor$2@?0?_ZN4core3ptr13drop_in_place17had5b5d0361187ff3E@4HA"
.LBB91_2:
.Ltmp561:
	movq	%rdx, 16(%rsp)
	pushq	%rbp
.Lcfi664:
	.seh_pushreg 5
	subq	$32, %rsp
.Lcfi665:
	.seh_stackalloc 32
	leaq	48(%rdx), %rbp
.Ltmp562:
.Lcfi666:
	.seh_endprologue
	movq	-16(%rbp), %rax
	movq	(%rax), %rcx
	callq	_ZN5alloc4heap8box_free17h2bd0b2674cf59030E
	nop
	addq	$32, %rsp
	popq	%rbp
	retq
.Ltmp563:
.Lfunc_end91:
	.seh_handlerdata
	.section	.text,"xr",one_only,_ZN4core3ptr13drop_in_place17had5b5d0361187ff3E
.Lcfi667:
	.seh_endproc
	.section	.xdata,"dr",associative,_ZN4core3ptr13drop_in_place17had5b5d0361187ff3E
	.p2align	2
$cppxdata$_ZN4core3ptr13drop_in_place17had5b5d0361187ff3E:
	.long	429065506
	.long	1
	.long	($stateUnwindMap$_ZN4core3ptr13drop_in_place17had5b5d0361187ff3E)@IMGREL
	.long	0
	.long	0
	.long	3
	.long	($ip2state$_ZN4core3ptr13drop_in_place17had5b5d0361187ff3E)@IMGREL
	.long	40
	.long	0
	.long	1
$stateUnwindMap$_ZN4core3ptr13drop_in_place17had5b5d0361187ff3E:
	.long	-1
	.long	"?dtor$2@?0?_ZN4core3ptr13drop_in_place17had5b5d0361187ff3E@4HA"@IMGREL
$ip2state$_ZN4core3ptr13drop_in_place17had5b5d0361187ff3E:
	.long	.Lfunc_begin91@IMGREL
	.long	-1
	.long	.Ltmp556@IMGREL+1
	.long	0
	.long	.Ltmp557@IMGREL+1
	.long	-1
	.section	.text,"xr",one_only,_ZN4core3ptr13drop_in_place17had5b5d0361187ff3E

	.def	 _ZN4core3ptr13drop_in_place17hb06fd77bfb5245bbE;
	.scl	3;
	.type	32;
	.endef
	.section	.text,"xr",one_only,_ZN4core3ptr13drop_in_place17hb06fd77bfb5245bbE
	.p2align	4, 0x90
_ZN4core3ptr13drop_in_place17hb06fd77bfb5245bbE:
.Lfunc_begin92:
	.cv_func_id 92
	.cv_loc	92 7 59 0
.Lcfi668:
.seh_proc _ZN4core3ptr13drop_in_place17hb06fd77bfb5245bbE
	pushq	%rbp
.Lcfi669:
	.seh_pushreg 5
	subq	$48, %rsp
.Lcfi670:
	.seh_stackalloc 48
	leaq	48(%rsp), %rbp
.Lcfi671:
	.seh_setframe 5, 48
.Lcfi672:
	.seh_endprologue
	movq	%rcx, -8(%rbp)
.Ltmp564:
	movq	-8(%rbp), %rcx
	callq	_ZN66_$LT$alloc..arc..Arc$LT$T$GT$$u20$as$u20$core..ops..drop..Drop$GT$4drop17h31689722c60e91fdE
	nop
	addq	$48, %rsp
	popq	%rbp
	retq
.Ltmp565:
.Lfunc_end92:
	.seh_handlerdata
	.section	.text,"xr",one_only,_ZN4core3ptr13drop_in_place17hb06fd77bfb5245bbE
.Lcfi673:
	.seh_endproc

	.def	 _ZN4core3ptr13drop_in_place17hb891408a94eec4a7E;
	.scl	3;
	.type	32;
	.endef
	.section	.text,"xr",one_only,_ZN4core3ptr13drop_in_place17hb891408a94eec4a7E
	.p2align	4, 0x90
_ZN4core3ptr13drop_in_place17hb891408a94eec4a7E:
.Lfunc_begin93:
	.cv_func_id 93
	.cv_loc	93 7 59 0
.Lcfi674:
.seh_proc _ZN4core3ptr13drop_in_place17hb891408a94eec4a7E
	pushq	%rbp
.Lcfi675:
	.seh_pushreg 5
	subq	$48, %rsp
.Lcfi676:
	.seh_stackalloc 48
	leaq	48(%rsp), %rbp
.Lcfi677:
	.seh_setframe 5, 48
.Lcfi678:
	.seh_endprologue
	movq	%rcx, -8(%rbp)
.Ltmp566:
	movq	-8(%rbp), %rcx
	movq	(%rcx), %rcx
	testq	%rcx, %rcx
	jne	.LBB93_2
	jmp	.LBB93_1
.Ltmp567:
.LBB93_1:
	addq	$48, %rsp
	popq	%rbp
	retq
.LBB93_2:
.Ltmp568:
	movq	-8(%rbp), %rax
	addq	$8, %rax
	movq	%rax, %rcx
	callq	_ZN4core3ptr13drop_in_place17hf04c43bd20d522c7E
	jmp	.LBB93_1
.Ltmp569:
.Lfunc_end93:
	.seh_handlerdata
	.section	.text,"xr",one_only,_ZN4core3ptr13drop_in_place17hb891408a94eec4a7E
.Lcfi679:
	.seh_endproc

	.def	 _ZN4core3ptr13drop_in_place17hc183fa79d66ba853E;
	.scl	3;
	.type	32;
	.endef
	.section	.text,"xr",one_only,_ZN4core3ptr13drop_in_place17hc183fa79d66ba853E
	.p2align	4, 0x90
_ZN4core3ptr13drop_in_place17hc183fa79d66ba853E:
.Lfunc_begin94:
	.cv_func_id 94
	.cv_loc	94 7 59 0
.Lcfi680:
.seh_proc _ZN4core3ptr13drop_in_place17hc183fa79d66ba853E
	pushq	%rbp
.Lcfi681:
	.seh_pushreg 5
	subq	$48, %rsp
.Lcfi682:
	.seh_stackalloc 48
	leaq	48(%rsp), %rbp
.Lcfi683:
	.seh_setframe 5, 48
.Lcfi684:
	.seh_endprologue
	movq	%rcx, -8(%rbp)
.Ltmp570:
	movq	-8(%rbp), %rcx
	callq	_ZN4core3ptr13drop_in_place17hf9b0743f6930678dE
	nop
	addq	$48, %rsp
	popq	%rbp
	retq
.Ltmp571:
.Lfunc_end94:
	.seh_handlerdata
	.section	.text,"xr",one_only,_ZN4core3ptr13drop_in_place17hc183fa79d66ba853E
.Lcfi685:
	.seh_endproc

	.def	 _ZN4core3ptr13drop_in_place17hd5d743d8f92c1f99E;
	.scl	3;
	.type	32;
	.endef
	.section	.text,"xr",one_only,_ZN4core3ptr13drop_in_place17hd5d743d8f92c1f99E
	.p2align	4, 0x90
_ZN4core3ptr13drop_in_place17hd5d743d8f92c1f99E:
.Lfunc_begin95:
	.cv_func_id 95
	.cv_loc	95 7 59 0
.Lcfi686:
.seh_proc _ZN4core3ptr13drop_in_place17hd5d743d8f92c1f99E
	pushq	%rbp
.Lcfi687:
	.seh_pushreg 5
	subq	$48, %rsp
.Lcfi688:
	.seh_stackalloc 48
	leaq	48(%rsp), %rbp
.Lcfi689:
	.seh_setframe 5, 48
.Lcfi690:
	.seh_endprologue
	movq	%rcx, -8(%rbp)
.Ltmp572:
	movq	-8(%rbp), %rcx
	callq	_ZN82_$LT$alloc..raw_vec..RawVec$LT$T$C$$u20$A$GT$$u20$as$u20$core..ops..drop..Drop$GT$4drop17h1324211f61913275E
	nop
	addq	$48, %rsp
	popq	%rbp
	retq
.Ltmp573:
.Lfunc_end95:
	.seh_handlerdata
	.section	.text,"xr",one_only,_ZN4core3ptr13drop_in_place17hd5d743d8f92c1f99E
.Lcfi691:
	.seh_endproc

	.def	 _ZN4core3ptr13drop_in_place17hf04c43bd20d522c7E;
	.scl	3;
	.type	32;
	.endef
	.section	.text,"xr",one_only,_ZN4core3ptr13drop_in_place17hf04c43bd20d522c7E
	.p2align	4, 0x90
_ZN4core3ptr13drop_in_place17hf04c43bd20d522c7E:
.Lfunc_begin96:
	.cv_func_id 96
	.cv_loc	96 7 59 0
.Lcfi692:
.seh_proc _ZN4core3ptr13drop_in_place17hf04c43bd20d522c7E
	pushq	%rbp
.Lcfi693:
	.seh_pushreg 5
	subq	$48, %rsp
.Lcfi694:
	.seh_stackalloc 48
	leaq	48(%rsp), %rbp
.Lcfi695:
	.seh_setframe 5, 48
.Lcfi696:
	.seh_endprologue
	movq	%rcx, -8(%rbp)
.Ltmp574:
	movq	-8(%rbp), %rcx
	callq	_ZN4core3ptr13drop_in_place17h53effb9a67c5a3a2E
	nop
	addq	$48, %rsp
	popq	%rbp
	retq
.Ltmp575:
.Lfunc_end96:
	.seh_handlerdata
	.section	.text,"xr",one_only,_ZN4core3ptr13drop_in_place17hf04c43bd20d522c7E
.Lcfi697:
	.seh_endproc

	.def	 _ZN4core3ptr13drop_in_place17hf9b0743f6930678dE;
	.scl	3;
	.type	32;
	.endef
	.section	.text,"xr",one_only,_ZN4core3ptr13drop_in_place17hf9b0743f6930678dE
	.p2align	4, 0x90
_ZN4core3ptr13drop_in_place17hf9b0743f6930678dE:
.Lfunc_begin97:
	.cv_func_id 97
	.cv_loc	97 7 59 0
.Lcfi698:
.seh_proc _ZN4core3ptr13drop_in_place17hf9b0743f6930678dE
	pushq	%rbp
.Lcfi699:
	.seh_pushreg 5
	subq	$48, %rsp
.Lcfi700:
	.seh_stackalloc 48
	leaq	48(%rsp), %rbp
.Lcfi701:
	.seh_setframe 5, 48
.Lcfi702:
	.seh_endprologue
	movq	%rcx, -8(%rbp)
.Ltmp576:
	movq	-8(%rbp), %rcx
	callq	_ZN4core3ptr13drop_in_place17hac8234896e7c0f6dE
	nop
	addq	$48, %rsp
	popq	%rbp
	retq
.Ltmp577:
.Lfunc_end97:
	.seh_handlerdata
	.section	.text,"xr",one_only,_ZN4core3ptr13drop_in_place17hf9b0743f6930678dE
.Lcfi703:
	.seh_endproc

	.def	 _ZN4core3ptr19swap_nonoverlapping17h39b86e6b1cf03c60E;
	.scl	3;
	.type	32;
	.endef
	.section	.text,"xr",one_only,_ZN4core3ptr19swap_nonoverlapping17h39b86e6b1cf03c60E
	.p2align	4, 0x90
_ZN4core3ptr19swap_nonoverlapping17h39b86e6b1cf03c60E:
.Lfunc_begin98:
	.cv_func_id 98
	.cv_loc	98 7 149 0
.Lcfi704:
.seh_proc _ZN4core3ptr19swap_nonoverlapping17h39b86e6b1cf03c60E
	pushq	%rbp
.Lcfi705:
	.seh_pushreg 5
	subq	$96, %rsp
.Lcfi706:
	.seh_stackalloc 96
	leaq	96(%rsp), %rbp
.Lcfi707:
	.seh_setframe 5, 96
.Lcfi708:
	.seh_endprologue
	movq	%rcx, -48(%rbp)
	movq	%rdx, -40(%rbp)
	movq	%r8, -32(%rbp)
.Ltmp578:
	.cv_loc	98 7 150 0
	movq	-48(%rbp), %rcx
	movq	%rcx, -24(%rbp)
.Ltmp579:
	.cv_loc	98 7 151 0
	movq	-40(%rbp), %rcx
	movq	%rcx, -16(%rbp)
.Ltmp580:
	.cv_loc	98 7 152 0
	callq	_ZN4core3mem7size_of17hd41ea041ebd00fd9E
	movq	%rax, -56(%rbp)
	movq	-56(%rbp), %rax
	imulq	-32(%rbp), %rax
	movq	%rax, -8(%rbp)
	.cv_loc	98 7 153 0
	movq	-24(%rbp), %rcx
	movq	-16(%rbp), %rdx
	movq	-8(%rbp), %r8
	callq	_ZN4core3ptr25swap_nonoverlapping_bytes17ha6deacc52123d0e2E
.Ltmp581:
	.cv_loc	98 7 154 0
	nop
	addq	$96, %rsp
	popq	%rbp
	retq
.Ltmp582:
.Lfunc_end98:
	.seh_handlerdata
	.section	.text,"xr",one_only,_ZN4core3ptr19swap_nonoverlapping17h39b86e6b1cf03c60E
.Lcfi709:
	.seh_endproc

	.def	 _ZN4core3ptr19swap_nonoverlapping17h72cc7806441e09e5E;
	.scl	3;
	.type	32;
	.endef
	.section	.text,"xr",one_only,_ZN4core3ptr19swap_nonoverlapping17h72cc7806441e09e5E
	.p2align	4, 0x90
_ZN4core3ptr19swap_nonoverlapping17h72cc7806441e09e5E:
.Lfunc_begin99:
	.cv_func_id 99
	.cv_loc	99 7 149 0
.Lcfi710:
.seh_proc _ZN4core3ptr19swap_nonoverlapping17h72cc7806441e09e5E
	pushq	%rbp
.Lcfi711:
	.seh_pushreg 5
	subq	$96, %rsp
.Lcfi712:
	.seh_stackalloc 96
	leaq	96(%rsp), %rbp
.Lcfi713:
	.seh_setframe 5, 96
.Lcfi714:
	.seh_endprologue
	movq	%rcx, -48(%rbp)
	movq	%rdx, -40(%rbp)
	movq	%r8, -32(%rbp)
.Ltmp583:
	.cv_loc	99 7 150 0
	movq	-48(%rbp), %rcx
	movq	%rcx, -24(%rbp)
.Ltmp584:
	.cv_loc	99 7 151 0
	movq	-40(%rbp), %rcx
	movq	%rcx, -16(%rbp)
.Ltmp585:
	.cv_loc	99 7 152 0
	callq	_ZN4core3mem7size_of17h9f750dca02c379c0E
	movq	%rax, -56(%rbp)
	movq	-56(%rbp), %rax
	imulq	-32(%rbp), %rax
	movq	%rax, -8(%rbp)
	.cv_loc	99 7 153 0
	movq	-24(%rbp), %rcx
	movq	-16(%rbp), %rdx
	movq	-8(%rbp), %r8
	callq	_ZN4core3ptr25swap_nonoverlapping_bytes17ha6deacc52123d0e2E
.Ltmp586:
	.cv_loc	99 7 154 0
	nop
	addq	$96, %rsp
	popq	%rbp
	retq
.Ltmp587:
.Lfunc_end99:
	.seh_handlerdata
	.section	.text,"xr",one_only,_ZN4core3ptr19swap_nonoverlapping17h72cc7806441e09e5E
.Lcfi715:
	.seh_endproc

	.def	 _ZN4core3ptr25swap_nonoverlapping_bytes17ha6deacc52123d0e2E;
	.scl	3;
	.type	32;
	.endef
	.section	.text,"xr",one_only,_ZN4core3ptr25swap_nonoverlapping_bytes17ha6deacc52123d0e2E
	.p2align	4, 0x90
_ZN4core3ptr25swap_nonoverlapping_bytes17ha6deacc52123d0e2E:
.Lfunc_begin100:
	.cv_func_id 100
	.cv_loc	100 7 157 0
.Lcfi716:
.seh_proc _ZN4core3ptr25swap_nonoverlapping_bytes17ha6deacc52123d0e2E
	pushq	%rbp
.Lcfi717:
	.seh_pushreg 5
	subq	$240, %rsp
.Lcfi718:
	.seh_stackalloc 240
	leaq	128(%rsp), %rbp
.Lcfi719:
	.seh_setframe 5, 128
.Lcfi720:
	.seh_endprologue
	andq	$-32, %rsp
	movq	%rcx, 48(%rsp)
	movq	%rdx, 56(%rsp)
	movq	%r8, 64(%rsp)
.Ltmp588:
	.cv_loc	100 7 171 0
	callq	_ZN4core3mem7size_of17hec2cdb4e6f6dfa5cE
	movq	%rax, 80(%rsp)
.Ltmp589:
	.cv_loc	100 7 176 0
	movq	$0, 88(%rsp)
.LBB100_2:
	.cv_loc	100 7 177 0
	movq	88(%rsp), %rax
	addq	80(%rsp), %rax
	cmpq	64(%rsp), %rax
	jbe	.LBB100_4
	.cv_loc	100 7 193 0
	movq	88(%rsp), %rax
	cmpq	64(%rsp), %rax
	jb	.LBB100_11
	jmp	.LBB100_12
.LBB100_4:
.Ltmp590:
	.cv_loc	100 7 180 0
	callq	_ZN4core3mem13uninitialized17h5b44e22dafdad2c0E
	movaps	%xmm1, 112(%rsp)
	movaps	%xmm0, 96(%rsp)
	leaq	96(%rsp), %rax
.Ltmp591:
	.cv_loc	100 7 181 0
	movq	%rax, 152(%rsp)
.Ltmp592:
	.cv_loc	100 7 182 0
	movq	48(%rsp), %rcx
	movq	88(%rsp), %rdx
	callq	_ZN4core3ptr31_$LT$impl$u20$$BP$mut$u20$T$GT$6offset17h671482efc58bfd68E
	movq	%rax, 160(%rsp)
.Ltmp593:
	.cv_loc	100 7 183 0
	movq	56(%rsp), %rcx
	movq	88(%rsp), %rdx
	callq	_ZN4core3ptr31_$LT$impl$u20$$BP$mut$u20$T$GT$6offset17h671482efc58bfd68E
	movq	%rax, 168(%rsp)
	.cv_loc	100 7 187 0
	movq	160(%rsp), %rdx
	movq	152(%rsp), %rcx
	movq	80(%rsp), %rax
	shlq	$0, %rax
	movq	%rax, %r8
	callq	memcpy
	.cv_loc	100 7 188 0
	movq	168(%rsp), %rdx
	movq	160(%rsp), %rcx
	movq	80(%rsp), %rax
	shlq	$0, %rax
	movq	%rax, %r8
	callq	memcpy
	.cv_loc	100 7 189 0
	movq	152(%rsp), %rdx
	movq	168(%rsp), %rcx
	movq	80(%rsp), %rax
	shlq	$0, %rax
	movq	%rax, %r8
	callq	memcpy
	.cv_loc	100 7 190 0
	movq	80(%rsp), %rax
	addq	88(%rsp), %rax
	movq	%rax, 88(%rsp)
.Ltmp594:
	.cv_loc	100 7 177 0
	jmp	.LBB100_2
.LBB100_11:
	leaq	176(%rsp), %rcx
.Ltmp595:
	.cv_loc	100 7 195 0
	callq	_ZN4core3mem13uninitialized17heb723bb780ce828dE
	jmp	.LBB100_13
.Ltmp596:
.LBB100_12:
	.cv_loc	100 7 193 0
	jmp	.LBB100_19
.LBB100_13:
	leaq	176(%rsp), %rax
.Ltmp597:
	.cv_loc	100 7 196 0
	movq	64(%rsp), %rcx
	subq	88(%rsp), %rcx
	movq	%rcx, 208(%rsp)
.Ltmp598:
	.cv_loc	100 7 198 0
	movq	%rax, 216(%rsp)
.Ltmp599:
	.cv_loc	100 7 199 0
	movq	48(%rsp), %rcx
	movq	88(%rsp), %rdx
	callq	_ZN4core3ptr31_$LT$impl$u20$$BP$mut$u20$T$GT$6offset17h671482efc58bfd68E
	movq	%rax, 224(%rsp)
.Ltmp600:
	.cv_loc	100 7 200 0
	movq	56(%rsp), %rcx
	movq	88(%rsp), %rdx
	callq	_ZN4core3ptr31_$LT$impl$u20$$BP$mut$u20$T$GT$6offset17h671482efc58bfd68E
	movq	%rax, 232(%rsp)
	.cv_loc	100 7 202 0
	movq	224(%rsp), %rdx
	movq	216(%rsp), %rcx
	movq	208(%rsp), %rax
	shlq	$0, %rax
	movq	%rax, %r8
	callq	memcpy
	.cv_loc	100 7 203 0
	movq	232(%rsp), %rdx
	movq	224(%rsp), %rcx
	movq	208(%rsp), %rax
	shlq	$0, %rax
	movq	%rax, %r8
	callq	memcpy
	.cv_loc	100 7 204 0
	movq	216(%rsp), %rdx
	movq	232(%rsp), %rcx
	movq	208(%rsp), %rax
	shlq	$0, %rax
	movq	%rax, %r8
	callq	memcpy
.Ltmp601:
	.cv_loc	100 7 193 0
	jmp	.LBB100_19
.Ltmp602:
.LBB100_19:
	.cv_loc	100 7 206 0
	leaq	112(%rbp), %rsp
	popq	%rbp
	retq
.Ltmp603:
.Lfunc_end100:
	.seh_handlerdata
	.section	.text,"xr",one_only,_ZN4core3ptr25swap_nonoverlapping_bytes17ha6deacc52123d0e2E
.Lcfi721:
	.seh_endproc

	.def	 _ZN4core3ptr31_$LT$impl$u20$$BP$mut$u20$T$GT$15wrapping_offset17h4bdddfdcdd67fe97E;
	.scl	3;
	.type	32;
	.endef
	.section	.text,"xr",one_only,_ZN4core3ptr31_$LT$impl$u20$$BP$mut$u20$T$GT$15wrapping_offset17h4bdddfdcdd67fe97E
	.p2align	4, 0x90
_ZN4core3ptr31_$LT$impl$u20$$BP$mut$u20$T$GT$15wrapping_offset17h4bdddfdcdd67fe97E:
.Lfunc_begin101:
	.cv_func_id 101
	.cv_loc	101 7 1251 0
.Lcfi722:
.seh_proc _ZN4core3ptr31_$LT$impl$u20$$BP$mut$u20$T$GT$15wrapping_offset17h4bdddfdcdd67fe97E
	pushq	%rbp
.Lcfi723:
	.seh_pushreg 5
	subq	$32, %rsp
.Lcfi724:
	.seh_stackalloc 32
	leaq	32(%rsp), %rbp
.Lcfi725:
	.seh_setframe 5, 32
.Lcfi726:
	.seh_endprologue
	movq	%rcx, -24(%rbp)
	movq	%rdx, -16(%rbp)
.Ltmp604:
	.cv_loc	101 7 1253 0
	movq	-24(%rbp), %rcx
	addq	-16(%rbp), %rcx
	movq	%rcx, -8(%rbp)
	movq	-8(%rbp), %rax
	movq	%rax, -32(%rbp)
.Ltmp605:
	.cv_loc	101 7 1255 0
	movq	-32(%rbp), %rax
	addq	$32, %rsp
	popq	%rbp
	retq
.Ltmp606:
.Lfunc_end101:
	.seh_handlerdata
	.section	.text,"xr",one_only,_ZN4core3ptr31_$LT$impl$u20$$BP$mut$u20$T$GT$15wrapping_offset17h4bdddfdcdd67fe97E
.Lcfi727:
	.seh_endproc

	.def	 _ZN4core3ptr31_$LT$impl$u20$$BP$mut$u20$T$GT$6offset17h671482efc58bfd68E;
	.scl	3;
	.type	32;
	.endef
	.section	.text,"xr",one_only,_ZN4core3ptr31_$LT$impl$u20$$BP$mut$u20$T$GT$6offset17h671482efc58bfd68E
	.p2align	4, 0x90
_ZN4core3ptr31_$LT$impl$u20$$BP$mut$u20$T$GT$6offset17h671482efc58bfd68E:
.Lfunc_begin102:
	.cv_func_id 102
	.cv_loc	102 7 1214 0
.Lcfi728:
.seh_proc _ZN4core3ptr31_$LT$impl$u20$$BP$mut$u20$T$GT$6offset17h671482efc58bfd68E
	pushq	%rbp
.Lcfi729:
	.seh_pushreg 5
	subq	$32, %rsp
.Lcfi730:
	.seh_stackalloc 32
	leaq	32(%rsp), %rbp
.Lcfi731:
	.seh_setframe 5, 32
.Lcfi732:
	.seh_endprologue
	movq	%rcx, -24(%rbp)
	movq	%rdx, -16(%rbp)
.Ltmp607:
	.cv_loc	102 7 1215 0
	movq	-24(%rbp), %rcx
	addq	-16(%rbp), %rcx
	movq	%rcx, -8(%rbp)
	movq	-8(%rbp), %rax
	movq	%rax, -32(%rbp)
	.cv_loc	102 7 1216 0
	movq	-32(%rbp), %rax
	addq	$32, %rsp
	popq	%rbp
	retq
.Ltmp608:
.Lfunc_end102:
	.seh_handlerdata
	.section	.text,"xr",one_only,_ZN4core3ptr31_$LT$impl$u20$$BP$mut$u20$T$GT$6offset17h671482efc58bfd68E
.Lcfi733:
	.seh_endproc

	.def	 _ZN4core3ptr31_$LT$impl$u20$$BP$mut$u20$T$GT$6offset17h6ebf5680eff5fee2E;
	.scl	3;
	.type	32;
	.endef
	.section	.text,"xr",one_only,_ZN4core3ptr31_$LT$impl$u20$$BP$mut$u20$T$GT$6offset17h6ebf5680eff5fee2E
	.p2align	4, 0x90
_ZN4core3ptr31_$LT$impl$u20$$BP$mut$u20$T$GT$6offset17h6ebf5680eff5fee2E:
.Lfunc_begin103:
	.cv_func_id 103
	.cv_loc	103 7 1214 0
.Lcfi734:
.seh_proc _ZN4core3ptr31_$LT$impl$u20$$BP$mut$u20$T$GT$6offset17h6ebf5680eff5fee2E
	pushq	%rbp
.Lcfi735:
	.seh_pushreg 5
	subq	$32, %rsp
.Lcfi736:
	.seh_stackalloc 32
	leaq	32(%rsp), %rbp
.Lcfi737:
	.seh_setframe 5, 32
.Lcfi738:
	.seh_endprologue
	movq	%rcx, -24(%rbp)
	movq	%rdx, -16(%rbp)
.Ltmp609:
	.cv_loc	103 7 1215 0
	movq	-24(%rbp), %rcx
	movq	-16(%rbp), %rdx
	shlq	$2, %rdx
	addq	%rdx, %rcx
	movq	%rcx, -8(%rbp)
	movq	-8(%rbp), %rax
	movq	%rax, -32(%rbp)
	.cv_loc	103 7 1216 0
	movq	-32(%rbp), %rax
	addq	$32, %rsp
	popq	%rbp
	retq
.Ltmp610:
.Lfunc_end103:
	.seh_handlerdata
	.section	.text,"xr",one_only,_ZN4core3ptr31_$LT$impl$u20$$BP$mut$u20$T$GT$6offset17h6ebf5680eff5fee2E
.Lcfi739:
	.seh_endproc

	.def	 _ZN4core3ptr31_$LT$impl$u20$$BP$mut$u20$T$GT$6offset17hc867c1587a758976E;
	.scl	3;
	.type	32;
	.endef
	.section	.text,"xr",one_only,_ZN4core3ptr31_$LT$impl$u20$$BP$mut$u20$T$GT$6offset17hc867c1587a758976E
	.p2align	4, 0x90
_ZN4core3ptr31_$LT$impl$u20$$BP$mut$u20$T$GT$6offset17hc867c1587a758976E:
.Lfunc_begin104:
	.cv_func_id 104
	.cv_loc	104 7 1214 0
.Lcfi740:
.seh_proc _ZN4core3ptr31_$LT$impl$u20$$BP$mut$u20$T$GT$6offset17hc867c1587a758976E
	pushq	%rbp
.Lcfi741:
	.seh_pushreg 5
	subq	$32, %rsp
.Lcfi742:
	.seh_stackalloc 32
	leaq	32(%rsp), %rbp
.Lcfi743:
	.seh_setframe 5, 32
.Lcfi744:
	.seh_endprologue
	movq	%rcx, -24(%rbp)
	movq	%rdx, -16(%rbp)
.Ltmp611:
	.cv_loc	104 7 1215 0
	movq	-24(%rbp), %rcx
	movq	-16(%rbp), %rdx
	shlq	$3, %rdx
	addq	%rdx, %rcx
	movq	%rcx, -8(%rbp)
	movq	-8(%rbp), %rax
	movq	%rax, -32(%rbp)
	.cv_loc	104 7 1216 0
	movq	-32(%rbp), %rax
	addq	$32, %rsp
	popq	%rbp
	retq
.Ltmp612:
.Lfunc_end104:
	.seh_handlerdata
	.section	.text,"xr",one_only,_ZN4core3ptr31_$LT$impl$u20$$BP$mut$u20$T$GT$6offset17hc867c1587a758976E
.Lcfi745:
	.seh_endproc

	.def	 _ZN4core3ptr31_$LT$impl$u20$$BP$mut$u20$T$GT$7is_null17h7355f3fc11e0887cE;
	.scl	3;
	.type	32;
	.endef
	.section	.text,"xr",one_only,_ZN4core3ptr31_$LT$impl$u20$$BP$mut$u20$T$GT$7is_null17h7355f3fc11e0887cE
	.p2align	4, 0x90
_ZN4core3ptr31_$LT$impl$u20$$BP$mut$u20$T$GT$7is_null17h7355f3fc11e0887cE:
.Lfunc_begin105:
	.cv_func_id 105
	.cv_loc	105 7 1121 0
.Lcfi746:
.seh_proc _ZN4core3ptr31_$LT$impl$u20$$BP$mut$u20$T$GT$7is_null17h7355f3fc11e0887cE
	pushq	%rbp
.Lcfi747:
	.seh_pushreg 5
	subq	$64, %rsp
.Lcfi748:
	.seh_stackalloc 64
	leaq	64(%rsp), %rbp
.Lcfi749:
	.seh_setframe 5, 64
.Lcfi750:
	.seh_endprologue
	movq	%rcx, -8(%rbp)
.Ltmp613:
	.cv_loc	105 7 1122 0
	movq	-8(%rbp), %rcx
	movq	%rcx, -16(%rbp)
	callq	_ZN4core3ptr8null_mut17h3e5bc4a1be6070f9E
	movq	%rax, -24(%rbp)
	movq	-16(%rbp), %rax
	movq	-24(%rbp), %rcx
	cmpq	%rcx, %rax
	sete	%dl
	.cv_loc	105 7 1123 0
	andb	$1, %dl
	movzbl	%dl, %eax
	addq	$64, %rsp
	popq	%rbp
	retq
.Ltmp614:
.Lfunc_end105:
	.seh_handlerdata
	.section	.text,"xr",one_only,_ZN4core3ptr31_$LT$impl$u20$$BP$mut$u20$T$GT$7is_null17h7355f3fc11e0887cE
.Lcfi751:
	.seh_endproc

	.def	 _ZN4core3ptr33_$LT$impl$u20$$BP$const$u20$T$GT$6offset17h8b478d947290c0b5E;
	.scl	3;
	.type	32;
	.endef
	.section	.text,"xr",one_only,_ZN4core3ptr33_$LT$impl$u20$$BP$const$u20$T$GT$6offset17h8b478d947290c0b5E
	.p2align	4, 0x90
_ZN4core3ptr33_$LT$impl$u20$$BP$const$u20$T$GT$6offset17h8b478d947290c0b5E:
.Lfunc_begin106:
	.cv_func_id 106
	.cv_loc	106 7 581 0
.Lcfi752:
.seh_proc _ZN4core3ptr33_$LT$impl$u20$$BP$const$u20$T$GT$6offset17h8b478d947290c0b5E
	pushq	%rbp
.Lcfi753:
	.seh_pushreg 5
	subq	$32, %rsp
.Lcfi754:
	.seh_stackalloc 32
	leaq	32(%rsp), %rbp
.Lcfi755:
	.seh_setframe 5, 32
.Lcfi756:
	.seh_endprologue
	movq	%rcx, -24(%rbp)
	movq	%rdx, -16(%rbp)
.Ltmp615:
	.cv_loc	106 7 582 0
	movq	-24(%rbp), %rcx
	movq	-16(%rbp), %rdx
	shlq	$2, %rdx
	addq	%rdx, %rcx
	movq	%rcx, -8(%rbp)
	movq	-8(%rbp), %rax
	movq	%rax, -32(%rbp)
	.cv_loc	106 7 583 0
	movq	-32(%rbp), %rax
	addq	$32, %rsp
	popq	%rbp
	retq
.Ltmp616:
.Lfunc_end106:
	.seh_handlerdata
	.section	.text,"xr",one_only,_ZN4core3ptr33_$LT$impl$u20$$BP$const$u20$T$GT$6offset17h8b478d947290c0b5E
.Lcfi757:
	.seh_endproc

	.def	 _ZN4core3ptr33_$LT$impl$u20$$BP$const$u20$T$GT$6offset17h9e52aded596f8b54E;
	.scl	3;
	.type	32;
	.endef
	.section	.text,"xr",one_only,_ZN4core3ptr33_$LT$impl$u20$$BP$const$u20$T$GT$6offset17h9e52aded596f8b54E
	.p2align	4, 0x90
_ZN4core3ptr33_$LT$impl$u20$$BP$const$u20$T$GT$6offset17h9e52aded596f8b54E:
.Lfunc_begin107:
	.cv_func_id 107
	.cv_loc	107 7 581 0
.Lcfi758:
.seh_proc _ZN4core3ptr33_$LT$impl$u20$$BP$const$u20$T$GT$6offset17h9e52aded596f8b54E
	pushq	%rbp
.Lcfi759:
	.seh_pushreg 5
	subq	$32, %rsp
.Lcfi760:
	.seh_stackalloc 32
	leaq	32(%rsp), %rbp
.Lcfi761:
	.seh_setframe 5, 32
.Lcfi762:
	.seh_endprologue
	movq	%rcx, -24(%rbp)
	movq	%rdx, -16(%rbp)
.Ltmp617:
	.cv_loc	107 7 582 0
	movq	-24(%rbp), %rcx
	addq	-16(%rbp), %rcx
	movq	%rcx, -8(%rbp)
	movq	-8(%rbp), %rax
	movq	%rax, -32(%rbp)
	.cv_loc	107 7 583 0
	movq	-32(%rbp), %rax
	addq	$32, %rsp
	popq	%rbp
	retq
.Ltmp618:
.Lfunc_end107:
	.seh_handlerdata
	.section	.text,"xr",one_only,_ZN4core3ptr33_$LT$impl$u20$$BP$const$u20$T$GT$6offset17h9e52aded596f8b54E
.Lcfi763:
	.seh_endproc

	.def	 _ZN4core3ptr33_$LT$impl$u20$$BP$const$u20$T$GT$6offset17hf81ee528cb79d389E;
	.scl	3;
	.type	32;
	.endef
	.section	.text,"xr",one_only,_ZN4core3ptr33_$LT$impl$u20$$BP$const$u20$T$GT$6offset17hf81ee528cb79d389E
	.p2align	4, 0x90
_ZN4core3ptr33_$LT$impl$u20$$BP$const$u20$T$GT$6offset17hf81ee528cb79d389E:
.Lfunc_begin108:
	.cv_func_id 108
	.cv_loc	108 7 581 0
.Lcfi764:
.seh_proc _ZN4core3ptr33_$LT$impl$u20$$BP$const$u20$T$GT$6offset17hf81ee528cb79d389E
	pushq	%rbp
.Lcfi765:
	.seh_pushreg 5
	subq	$32, %rsp
.Lcfi766:
	.seh_stackalloc 32
	leaq	32(%rsp), %rbp
.Lcfi767:
	.seh_setframe 5, 32
.Lcfi768:
	.seh_endprologue
	movq	%rcx, -24(%rbp)
	movq	%rdx, -16(%rbp)
.Ltmp619:
	.cv_loc	108 7 582 0
	movq	-24(%rbp), %rcx
	movq	-16(%rbp), %rdx
	shlq	$3, %rdx
	addq	%rdx, %rcx
	movq	%rcx, -8(%rbp)
	movq	-8(%rbp), %rax
	movq	%rax, -32(%rbp)
	.cv_loc	108 7 583 0
	movq	-32(%rbp), %rax
	addq	$32, %rsp
	popq	%rbp
	retq
.Ltmp620:
.Lfunc_end108:
	.seh_handlerdata
	.section	.text,"xr",one_only,_ZN4core3ptr33_$LT$impl$u20$$BP$const$u20$T$GT$6offset17hf81ee528cb79d389E
.Lcfi769:
	.seh_endproc

	.def	 _ZN4core3ptr33_$LT$impl$u20$$BP$const$u20$T$GT$7is_null17h026cd24e592a576eE;
	.scl	3;
	.type	32;
	.endef
	.section	.text,"xr",one_only,_ZN4core3ptr33_$LT$impl$u20$$BP$const$u20$T$GT$7is_null17h026cd24e592a576eE
	.p2align	4, 0x90
_ZN4core3ptr33_$LT$impl$u20$$BP$const$u20$T$GT$7is_null17h026cd24e592a576eE:
.Lfunc_begin109:
	.cv_func_id 109
	.cv_loc	109 7 488 0
.Lcfi770:
.seh_proc _ZN4core3ptr33_$LT$impl$u20$$BP$const$u20$T$GT$7is_null17h026cd24e592a576eE
	pushq	%rbp
.Lcfi771:
	.seh_pushreg 5
	subq	$64, %rsp
.Lcfi772:
	.seh_stackalloc 64
	leaq	64(%rsp), %rbp
.Lcfi773:
	.seh_setframe 5, 64
.Lcfi774:
	.seh_endprologue
	movq	%rcx, -8(%rbp)
.Ltmp621:
	.cv_loc	109 7 489 0
	movq	-8(%rbp), %rcx
	movq	%rcx, -16(%rbp)
	callq	_ZN4core3ptr4null17h37c56f109beb7f79E
	movq	%rax, -24(%rbp)
	movq	-16(%rbp), %rax
	movq	-24(%rbp), %rcx
	cmpq	%rcx, %rax
	sete	%dl
	.cv_loc	109 7 490 0
	andb	$1, %dl
	movzbl	%dl, %eax
	addq	$64, %rsp
	popq	%rbp
	retq
.Ltmp622:
.Lfunc_end109:
	.seh_handlerdata
	.section	.text,"xr",one_only,_ZN4core3ptr33_$LT$impl$u20$$BP$const$u20$T$GT$7is_null17h026cd24e592a576eE
.Lcfi775:
	.seh_endproc

	.def	 _ZN4core3ptr4null17h37c56f109beb7f79E;
	.scl	3;
	.type	32;
	.endef
	.section	.text,"xr",one_only,_ZN4core3ptr4null17h37c56f109beb7f79E
	.p2align	4, 0x90
_ZN4core3ptr4null17h37c56f109beb7f79E:
.Lfunc_begin110:
	.cv_func_id 110
	.cv_loc	110 7 78 0
.Lcfi776:
.seh_proc _ZN4core3ptr4null17h37c56f109beb7f79E
	pushq	%rbp
.Lcfi777:
	.seh_pushreg 5
	movq	%rsp, %rbp
.Lcfi778:
	.seh_setframe 5, 0
.Lcfi779:
	.seh_endprologue
	xorl	%eax, %eax
.Ltmp623:
	popq	%rbp
	retq
.Ltmp624:
.Lfunc_end110:
	.seh_handlerdata
	.section	.text,"xr",one_only,_ZN4core3ptr4null17h37c56f109beb7f79E
.Lcfi780:
	.seh_endproc

	.def	 _ZN4core3ptr4read17h490c1b3fb1eaf1c3E;
	.scl	3;
	.type	32;
	.endef
	.section	.text,"xr",one_only,_ZN4core3ptr4read17h490c1b3fb1eaf1c3E
	.p2align	4, 0x90
_ZN4core3ptr4read17h490c1b3fb1eaf1c3E:
.Lfunc_begin111:
	.cv_func_id 111
	.cv_loc	111 7 250 0
.Lcfi781:
.seh_proc _ZN4core3ptr4read17h490c1b3fb1eaf1c3E
	pushq	%rbp
.Lcfi782:
	.seh_pushreg 5
	subq	$48, %rsp
.Lcfi783:
	.seh_stackalloc 48
	leaq	48(%rsp), %rbp
.Lcfi784:
	.seh_setframe 5, 48
.Lcfi785:
	.seh_endprologue
	movq	%rcx, -16(%rbp)
.Ltmp625:
	.cv_loc	111 7 251 0
	callq	_ZN4core3mem13uninitialized17h85c5c4e5ef41d918E
	movb	%al, -1(%rbp)
	.cv_loc	111 7 252 0
	movq	-16(%rbp), %rcx
	movb	(%rcx), %al
	movb	%al, -1(%rbp)
	.cv_loc	111 7 253 0
	movb	-1(%rbp), %al
.Ltmp626:
	.cv_loc	111 7 254 0
	addq	$48, %rsp
	popq	%rbp
	retq
.Ltmp627:
.Lfunc_end111:
	.seh_handlerdata
	.section	.text,"xr",one_only,_ZN4core3ptr4read17h490c1b3fb1eaf1c3E
.Lcfi786:
	.seh_endproc

	.def	 _ZN4core3ptr8null_mut17h3e5bc4a1be6070f9E;
	.scl	3;
	.type	32;
	.endef
	.section	.text,"xr",one_only,_ZN4core3ptr8null_mut17h3e5bc4a1be6070f9E
	.p2align	4, 0x90
_ZN4core3ptr8null_mut17h3e5bc4a1be6070f9E:
.Lfunc_begin112:
	.cv_func_id 112
	.cv_loc	112 7 93 0
.Lcfi787:
.seh_proc _ZN4core3ptr8null_mut17h3e5bc4a1be6070f9E
	pushq	%rbp
.Lcfi788:
	.seh_pushreg 5
	movq	%rsp, %rbp
.Lcfi789:
	.seh_setframe 5, 0
.Lcfi790:
	.seh_endprologue
	xorl	%eax, %eax
.Ltmp628:
	popq	%rbp
	retq
.Ltmp629:
.Lfunc_end112:
	.seh_handlerdata
	.section	.text,"xr",one_only,_ZN4core3ptr8null_mut17h3e5bc4a1be6070f9E
.Lcfi791:
	.seh_endproc

	.def	 _ZN4core4iter5range93_$LT$impl$u20$core..iter..iterator..Iterator$u20$for$u20$core..ops..range..Range$LT$A$GT$$GT$4next17hacac0f0849ef83a2E;
	.scl	3;
	.type	32;
	.endef
	.section	.text,"xr",one_only,_ZN4core4iter5range93_$LT$impl$u20$core..iter..iterator..Iterator$u20$for$u20$core..ops..range..Range$LT$A$GT$$GT$4next17hacac0f0849ef83a2E
	.p2align	4, 0x90
_ZN4core4iter5range93_$LT$impl$u20$core..iter..iterator..Iterator$u20$for$u20$core..ops..range..Range$LT$A$GT$$GT$4next17hacac0f0849ef83a2E:
.Lfunc_begin113:
	.cv_func_id 113
	.cv_loc	113 17 217 0
.Lcfi792:
.seh_proc _ZN4core4iter5range93_$LT$impl$u20$core..iter..iterator..Iterator$u20$for$u20$core..ops..range..Range$LT$A$GT$$GT$4next17hacac0f0849ef83a2E
	.seh_handler __CxxFrameHandler3, @unwind, @except
	pushq	%rbp
.Lcfi793:
	.seh_pushreg 5
	subq	$96, %rsp
.Lcfi794:
	.seh_stackalloc 96
	leaq	96(%rsp), %rbp
.Lcfi795:
	.seh_setframe 5, 96
.Lcfi796:
	.seh_endprologue
	movq	$-2, -8(%rbp)
	movq	%rcx, %rax
	movq	%rdx, -48(%rbp)
.Ltmp632:
	.cv_loc	113 17 218 0
	movb	$0, -9(%rbp)
	movq	-48(%rbp), %rdx
	movq	-48(%rbp), %r8
	addq	$8, %r8
	movq	%rcx, -56(%rbp)
	movq	%rdx, %rcx
	movq	%r8, %rdx
	movq	%rax, -64(%rbp)
	callq	_ZN4core3cmp5impls57_$LT$impl$u20$core..cmp..PartialOrd$u20$for$u20$isize$GT$2lt17h23531c1c94823e63E
	testb	$1, %al
	jne	.LBB113_1
	jmp	.LBB113_2
.LBB113_1:
	leaq	-40(%rbp), %rcx
	movl	$1, %eax
	movl	%eax, %r8d
	.cv_loc	113 17 223 0
	movq	-48(%rbp), %rdx
	movb	$1, -9(%rbp)
	callq	_ZN49_$LT$isize$u20$as$u20$core..iter..range..Step$GT$9add_usize17hc1aa7618dda9f512E
.Ltmp633:
	.cv_loc	113 17 223 0
	cmpq	$1, -40(%rbp)
	je	.LBB113_4
	jmp	.LBB113_3
.Ltmp634:
.LBB113_2:
	.cv_loc	113 17 230 0
	movq	-56(%rbp), %rax
	movq	$0, (%rax)
	.cv_loc	113 17 218 0
	jmp	.LBB113_8
.LBB113_3:
.Ltmp635:
	.cv_loc	113 17 227 0
	movq	-56(%rbp), %rax
	movq	$0, (%rax)
	.cv_loc	113 17 223 0
	jmp	.LBB113_7
.LBB113_4:
	movb	$0, -9(%rbp)
	movq	-32(%rbp), %rax
	movq	%rax, -24(%rbp)
	.cv_loc	113 17 224 0
	movq	-48(%rbp), %rdx
.Ltmp630:
	leaq	-24(%rbp), %rcx
	callq	_ZN4core3mem4swap17hbb67a47f2fbe9258E
.Ltmp631:
	jmp	.LBB113_5
.LBB113_5:
	.cv_loc	113 17 225 0
	movq	-24(%rbp), %rax
	movq	-56(%rbp), %rcx
	movq	$1, (%rcx)
	movq	%rax, 8(%rcx)
.Ltmp636:
	.cv_loc	113 17 228 0
	jmp	.LBB113_7
.LBB113_7:
	.cv_loc	113 17 229 0
	cmpq	$1, -40(%rbp)
	je	.LBB113_11
	jmp	.LBB113_13
.LBB113_8:
	.cv_loc	113 17 232 0
	movq	-64(%rbp), %rax
	addq	$96, %rsp
	popq	%rbp
	retq
.LBB113_10:
	.cv_loc	113 17 229 0
	movb	$0, -9(%rbp)
	.cv_loc	113 17 218 0
	jmp	.LBB113_8
.LBB113_11:
	.cv_loc	113 17 229 0
	testb	$1, -9(%rbp)
	je	.LBB113_10
	movb	$0, -9(%rbp)
	jmp	.LBB113_10
.LBB113_13:
	jmp	.LBB113_10
.LBB113_6:
	.cv_loc	113 17 217 0
	addq	$32, %rsp
	popq	%rbp
	retq
.LBB113_9:
	.cv_loc	113 17 229 0
	jmp	.LBB113_6
	.seh_handlerdata
	.long	($cppxdata$_ZN4core4iter5range93_$LT$impl$u20$core..iter..iterator..Iterator$u20$for$u20$core..ops..range..Range$LT$A$GT$$GT$4next17hacac0f0849ef83a2E)@IMGREL
	.section	.text,"xr",one_only,_ZN4core4iter5range93_$LT$impl$u20$core..iter..iterator..Iterator$u20$for$u20$core..ops..range..Range$LT$A$GT$$GT$4next17hacac0f0849ef83a2E
.Lcfi797:
	.seh_endproc
	.def	 "?dtor$14@?0?_ZN4core4iter5range93_$LT$impl$u20$core..iter..iterator..Iterator$u20$for$u20$core..ops..range..Range$LT$A$GT$$GT$4next17hacac0f0849ef83a2E@4HA";
	.scl	3;
	.type	32;
	.endef
	.p2align	4, 0x90
"?dtor$14@?0?_ZN4core4iter5range93_$LT$impl$u20$core..iter..iterator..Iterator$u20$for$u20$core..ops..range..Range$LT$A$GT$$GT$4next17hacac0f0849ef83a2E@4HA":
.Lcfi798:
.seh_proc "?dtor$14@?0?_ZN4core4iter5range93_$LT$impl$u20$core..iter..iterator..Iterator$u20$for$u20$core..ops..range..Range$LT$A$GT$$GT$4next17hacac0f0849ef83a2E@4HA"
.LBB113_14:
	movq	%rdx, 16(%rsp)
	pushq	%rbp
.Lcfi799:
	.seh_pushreg 5
	subq	$32, %rsp
.Lcfi800:
	.seh_stackalloc 32
	leaq	96(%rdx), %rbp
.Lcfi801:
	.seh_endprologue
	cmpq	$1, -40(%rbp)
	je	.LBB113_6
	jmp	.LBB113_9
.Ltmp637:
.Lfunc_end113:
	.seh_handlerdata
	.section	.text,"xr",one_only,_ZN4core4iter5range93_$LT$impl$u20$core..iter..iterator..Iterator$u20$for$u20$core..ops..range..Range$LT$A$GT$$GT$4next17hacac0f0849ef83a2E
.Lcfi802:
	.seh_endproc
	.section	.xdata,"dr",associative,_ZN4core4iter5range93_$LT$impl$u20$core..iter..iterator..Iterator$u20$for$u20$core..ops..range..Range$LT$A$GT$$GT$4next17hacac0f0849ef83a2E
	.p2align	2
$cppxdata$_ZN4core4iter5range93_$LT$impl$u20$core..iter..iterator..Iterator$u20$for$u20$core..ops..range..Range$LT$A$GT$$GT$4next17hacac0f0849ef83a2E:
	.long	429065506
	.long	1
	.long	($stateUnwindMap$_ZN4core4iter5range93_$LT$impl$u20$core..iter..iterator..Iterator$u20$for$u20$core..ops..range..Range$LT$A$GT$$GT$4next17hacac0f0849ef83a2E)@IMGREL
	.long	0
	.long	0
	.long	3
	.long	($ip2state$_ZN4core4iter5range93_$LT$impl$u20$core..iter..iterator..Iterator$u20$for$u20$core..ops..range..Range$LT$A$GT$$GT$4next17hacac0f0849ef83a2E)@IMGREL
	.long	88
	.long	0
	.long	1
$stateUnwindMap$_ZN4core4iter5range93_$LT$impl$u20$core..iter..iterator..Iterator$u20$for$u20$core..ops..range..Range$LT$A$GT$$GT$4next17hacac0f0849ef83a2E:
	.long	-1
	.long	"?dtor$14@?0?_ZN4core4iter5range93_$LT$impl$u20$core..iter..iterator..Iterator$u20$for$u20$core..ops..range..Range$LT$A$GT$$GT$4next17hacac0f0849ef83a2E@4HA"@IMGREL
$ip2state$_ZN4core4iter5range93_$LT$impl$u20$core..iter..iterator..Iterator$u20$for$u20$core..ops..range..Range$LT$A$GT$$GT$4next17hacac0f0849ef83a2E:
	.long	.Lfunc_begin113@IMGREL
	.long	-1
	.long	.Ltmp630@IMGREL+1
	.long	0
	.long	.Ltmp631@IMGREL+1
	.long	-1
	.section	.text,"xr",one_only,_ZN4core4iter5range93_$LT$impl$u20$core..iter..iterator..Iterator$u20$for$u20$core..ops..range..Range$LT$A$GT$$GT$4next17hacac0f0849ef83a2E

	.def	 _ZN4core4iter5range93_$LT$impl$u20$core..iter..iterator..Iterator$u20$for$u20$core..ops..range..Range$LT$A$GT$$GT$4next17hb132283088cfa6b4E;
	.scl	3;
	.type	32;
	.endef
	.section	.text,"xr",one_only,_ZN4core4iter5range93_$LT$impl$u20$core..iter..iterator..Iterator$u20$for$u20$core..ops..range..Range$LT$A$GT$$GT$4next17hb132283088cfa6b4E
	.p2align	4, 0x90
_ZN4core4iter5range93_$LT$impl$u20$core..iter..iterator..Iterator$u20$for$u20$core..ops..range..Range$LT$A$GT$$GT$4next17hb132283088cfa6b4E:
.Lfunc_begin114:
	.cv_func_id 114
	.cv_loc	114 17 217 0
.Lcfi803:
.seh_proc _ZN4core4iter5range93_$LT$impl$u20$core..iter..iterator..Iterator$u20$for$u20$core..ops..range..Range$LT$A$GT$$GT$4next17hb132283088cfa6b4E
	.seh_handler __CxxFrameHandler3, @unwind, @except
	pushq	%rbp
.Lcfi804:
	.seh_pushreg 5
	subq	$96, %rsp
.Lcfi805:
	.seh_stackalloc 96
	leaq	96(%rsp), %rbp
.Lcfi806:
	.seh_setframe 5, 96
.Lcfi807:
	.seh_endprologue
	movq	$-2, -8(%rbp)
	movq	%rcx, %rax
	movq	%rdx, -48(%rbp)
.Ltmp640:
	.cv_loc	114 17 218 0
	movb	$0, -9(%rbp)
	movq	-48(%rbp), %rdx
	movq	-48(%rbp), %r8
	addq	$8, %r8
	movq	%rcx, -56(%rbp)
	movq	%rdx, %rcx
	movq	%r8, %rdx
	movq	%rax, -64(%rbp)
	callq	_ZN4core3cmp5impls57_$LT$impl$u20$core..cmp..PartialOrd$u20$for$u20$usize$GT$2lt17h6454258eebc81503E
	testb	$1, %al
	jne	.LBB114_1
	jmp	.LBB114_2
.LBB114_1:
	leaq	-40(%rbp), %rcx
	movl	$1, %eax
	movl	%eax, %r8d
	.cv_loc	114 17 223 0
	movq	-48(%rbp), %rdx
	movb	$1, -9(%rbp)
	callq	_ZN49_$LT$usize$u20$as$u20$core..iter..range..Step$GT$9add_usize17hb7e9eec4e14a2d6cE
.Ltmp641:
	.cv_loc	114 17 223 0
	cmpq	$1, -40(%rbp)
	je	.LBB114_4
	jmp	.LBB114_3
.Ltmp642:
.LBB114_2:
	.cv_loc	114 17 230 0
	movq	-56(%rbp), %rax
	movq	$0, (%rax)
	.cv_loc	114 17 218 0
	jmp	.LBB114_8
.LBB114_3:
.Ltmp643:
	.cv_loc	114 17 227 0
	movq	-56(%rbp), %rax
	movq	$0, (%rax)
	.cv_loc	114 17 223 0
	jmp	.LBB114_7
.LBB114_4:
	movb	$0, -9(%rbp)
	movq	-32(%rbp), %rax
	movq	%rax, -24(%rbp)
	.cv_loc	114 17 224 0
	movq	-48(%rbp), %rdx
.Ltmp638:
	leaq	-24(%rbp), %rcx
	callq	_ZN4core3mem4swap17hff4855ab98aa536fE
.Ltmp639:
	jmp	.LBB114_5
.LBB114_5:
	.cv_loc	114 17 225 0
	movq	-24(%rbp), %rax
	movq	-56(%rbp), %rcx
	movq	$1, (%rcx)
	movq	%rax, 8(%rcx)
.Ltmp644:
	.cv_loc	114 17 228 0
	jmp	.LBB114_7
.LBB114_7:
	.cv_loc	114 17 229 0
	cmpq	$1, -40(%rbp)
	je	.LBB114_11
	jmp	.LBB114_13
.LBB114_8:
	.cv_loc	114 17 232 0
	movq	-64(%rbp), %rax
	addq	$96, %rsp
	popq	%rbp
	retq
.LBB114_10:
	.cv_loc	114 17 229 0
	movb	$0, -9(%rbp)
	.cv_loc	114 17 218 0
	jmp	.LBB114_8
.LBB114_11:
	.cv_loc	114 17 229 0
	testb	$1, -9(%rbp)
	je	.LBB114_10
	movb	$0, -9(%rbp)
	jmp	.LBB114_10
.LBB114_13:
	jmp	.LBB114_10
.LBB114_6:
	.cv_loc	114 17 217 0
	addq	$32, %rsp
	popq	%rbp
	retq
.LBB114_9:
	.cv_loc	114 17 229 0
	jmp	.LBB114_6
	.seh_handlerdata
	.long	($cppxdata$_ZN4core4iter5range93_$LT$impl$u20$core..iter..iterator..Iterator$u20$for$u20$core..ops..range..Range$LT$A$GT$$GT$4next17hb132283088cfa6b4E)@IMGREL
	.section	.text,"xr",one_only,_ZN4core4iter5range93_$LT$impl$u20$core..iter..iterator..Iterator$u20$for$u20$core..ops..range..Range$LT$A$GT$$GT$4next17hb132283088cfa6b4E
.Lcfi808:
	.seh_endproc
	.def	 "?dtor$14@?0?_ZN4core4iter5range93_$LT$impl$u20$core..iter..iterator..Iterator$u20$for$u20$core..ops..range..Range$LT$A$GT$$GT$4next17hb132283088cfa6b4E@4HA";
	.scl	3;
	.type	32;
	.endef
	.p2align	4, 0x90
"?dtor$14@?0?_ZN4core4iter5range93_$LT$impl$u20$core..iter..iterator..Iterator$u20$for$u20$core..ops..range..Range$LT$A$GT$$GT$4next17hb132283088cfa6b4E@4HA":
.Lcfi809:
.seh_proc "?dtor$14@?0?_ZN4core4iter5range93_$LT$impl$u20$core..iter..iterator..Iterator$u20$for$u20$core..ops..range..Range$LT$A$GT$$GT$4next17hb132283088cfa6b4E@4HA"
.LBB114_14:
	movq	%rdx, 16(%rsp)
	pushq	%rbp
.Lcfi810:
	.seh_pushreg 5
	subq	$32, %rsp
.Lcfi811:
	.seh_stackalloc 32
	leaq	96(%rdx), %rbp
.Lcfi812:
	.seh_endprologue
	cmpq	$1, -40(%rbp)
	je	.LBB114_6
	jmp	.LBB114_9
.Ltmp645:
.Lfunc_end114:
	.seh_handlerdata
	.section	.text,"xr",one_only,_ZN4core4iter5range93_$LT$impl$u20$core..iter..iterator..Iterator$u20$for$u20$core..ops..range..Range$LT$A$GT$$GT$4next17hb132283088cfa6b4E
.Lcfi813:
	.seh_endproc
	.section	.xdata,"dr",associative,_ZN4core4iter5range93_$LT$impl$u20$core..iter..iterator..Iterator$u20$for$u20$core..ops..range..Range$LT$A$GT$$GT$4next17hb132283088cfa6b4E
	.p2align	2
$cppxdata$_ZN4core4iter5range93_$LT$impl$u20$core..iter..iterator..Iterator$u20$for$u20$core..ops..range..Range$LT$A$GT$$GT$4next17hb132283088cfa6b4E:
	.long	429065506
	.long	1
	.long	($stateUnwindMap$_ZN4core4iter5range93_$LT$impl$u20$core..iter..iterator..Iterator$u20$for$u20$core..ops..range..Range$LT$A$GT$$GT$4next17hb132283088cfa6b4E)@IMGREL
	.long	0
	.long	0
	.long	3
	.long	($ip2state$_ZN4core4iter5range93_$LT$impl$u20$core..iter..iterator..Iterator$u20$for$u20$core..ops..range..Range$LT$A$GT$$GT$4next17hb132283088cfa6b4E)@IMGREL
	.long	88
	.long	0
	.long	1
$stateUnwindMap$_ZN4core4iter5range93_$LT$impl$u20$core..iter..iterator..Iterator$u20$for$u20$core..ops..range..Range$LT$A$GT$$GT$4next17hb132283088cfa6b4E:
	.long	-1
	.long	"?dtor$14@?0?_ZN4core4iter5range93_$LT$impl$u20$core..iter..iterator..Iterator$u20$for$u20$core..ops..range..Range$LT$A$GT$$GT$4next17hb132283088cfa6b4E@4HA"@IMGREL
$ip2state$_ZN4core4iter5range93_$LT$impl$u20$core..iter..iterator..Iterator$u20$for$u20$core..ops..range..Range$LT$A$GT$$GT$4next17hb132283088cfa6b4E:
	.long	.Lfunc_begin114@IMGREL
	.long	-1
	.long	.Ltmp638@IMGREL+1
	.long	0
	.long	.Ltmp639@IMGREL+1
	.long	-1
	.section	.text,"xr",one_only,_ZN4core4iter5range93_$LT$impl$u20$core..iter..iterator..Iterator$u20$for$u20$core..ops..range..Range$LT$A$GT$$GT$4next17hb132283088cfa6b4E

	.def	 _ZN4core4sync6atomic10atomic_sub17ha4ac59bf9516583fE;
	.scl	3;
	.type	32;
	.endef
	.section	.text,"xr",one_only,_ZN4core4sync6atomic10atomic_sub17ha4ac59bf9516583fE
	.p2align	4, 0x90
_ZN4core4sync6atomic10atomic_sub17ha4ac59bf9516583fE:
.Lfunc_begin115:
	.cv_func_id 115
	.cv_file	21 "C:\\projects\\rust\\src\\libcore\\sync\\atomic.rs"
	.cv_loc	115 21 1533 0
.Lcfi814:
.seh_proc _ZN4core4sync6atomic10atomic_sub17ha4ac59bf9516583fE
	.seh_handler __CxxFrameHandler3, @unwind, @except
	pushq	%rbp
.Lcfi815:
	.seh_pushreg 5
	subq	$96, %rsp
.Lcfi816:
	.seh_stackalloc 96
	leaq	96(%rsp), %rbp
.Lcfi817:
	.seh_setframe 5, 96
.Lcfi818:
	.seh_endprologue
	movq	$-2, -8(%rbp)
	movb	%r8b, %al
	movq	%rcx, -48(%rbp)
	movq	%rdx, -40(%rbp)
	movb	%al, -25(%rbp)
.Ltmp648:
	.cv_loc	115 21 1535 0
	movb	$0, -9(%rbp)
	movb	$1, -9(%rbp)
	movzbl	-25(%rbp), %r8d
	movl	%r8d, %ecx
	movq	%rcx, %rdx
	subq	$5, %rdx
	movq	%rcx, -56(%rbp)
	movq	%rdx, -64(%rbp)
	ja	.LBB115_7
.Ltmp649:
	leaq	.LJTI115_0(%rip), %rax
	movq	-56(%rbp), %rcx
	movslq	(%rax,%rcx,4), %rdx
	addq	%rax, %rdx
	jmpq	*%rdx
.Ltmp650:
.LBB115_1:
	movq	-48(%rbp), %rax
	movb	$0, -9(%rbp)
	movq	-40(%rbp), %rcx
	negq	%rcx
	lock		xaddq	%rcx, (%rax)
	movq	%rcx, -24(%rbp)
	.cv_loc	115 21 1534 0
	jmp	.LBB115_8
.Ltmp651:
.LBB115_2:
	.cv_loc	115 21 1536 0
	movq	-48(%rbp), %rax
	movb	$0, -9(%rbp)
	movq	-40(%rbp), %rcx
	negq	%rcx
	lock		xaddq	%rcx, (%rax)
	movq	%rcx, -24(%rbp)
	.cv_loc	115 21 1534 0
	jmp	.LBB115_8
.Ltmp652:
.LBB115_3:
	.cv_loc	115 21 1537 0
	movq	-48(%rbp), %rax
	movb	$0, -9(%rbp)
	movq	-40(%rbp), %rcx
	negq	%rcx
	lock		xaddq	%rcx, (%rax)
	movq	%rcx, -24(%rbp)
	.cv_loc	115 21 1534 0
	jmp	.LBB115_8
.Ltmp653:
.LBB115_4:
	.cv_loc	115 21 1538 0
	movq	-48(%rbp), %rax
	movb	$0, -9(%rbp)
	movq	-40(%rbp), %rcx
	negq	%rcx
	lock		xaddq	%rcx, (%rax)
	movq	%rcx, -24(%rbp)
	.cv_loc	115 21 1534 0
	jmp	.LBB115_8
.Ltmp654:
.LBB115_5:
	.cv_loc	115 21 1539 0
	movq	-48(%rbp), %rax
	movb	$0, -9(%rbp)
	movq	-40(%rbp), %rcx
	negq	%rcx
	lock		xaddq	%rcx, (%rax)
	movq	%rcx, -24(%rbp)
	.cv_loc	115 21 1534 0
	jmp	.LBB115_8
.Ltmp655:
.LBB115_6:
	.cv_loc	115 9 20 0
.Ltmp646:
	leaq	ref.h(%rip), %rcx
	callq	_ZN4core9panicking5panic17hbb9b03eae4db0581E
.Ltmp647:
	jmp	.LBB115_12
.Ltmp656:
.LBB115_7:
	.cv_loc	115 21 1542 0
	ud2
.Ltmp657:
.LBB115_8:
	movq	-24(%rbp), %rax
	addq	$96, %rsp
	popq	%rbp
.Ltmp658:
	retq
.LBB115_12:
.Ltmp659:
	ud2
.Ltmp660:
.LBB115_9:
	.cv_loc	115 21 1533 0
	addq	$32, %rsp
	popq	%rbp
.Ltmp661:
	retq
.LBB115_10:
.Ltmp662:
	.cv_loc	115 21 1542 0
	movb	$0, -9(%rbp)
	jmp	.LBB115_9
.Ltmp663:
	.seh_handlerdata
	.long	($cppxdata$_ZN4core4sync6atomic10atomic_sub17ha4ac59bf9516583fE)@IMGREL
	.section	.text,"xr",one_only,_ZN4core4sync6atomic10atomic_sub17ha4ac59bf9516583fE
.Lcfi819:
	.seh_endproc
	.def	 "?dtor$11@?0?_ZN4core4sync6atomic10atomic_sub17ha4ac59bf9516583fE@4HA";
	.scl	3;
	.type	32;
	.endef
	.p2align	4, 0x90
"?dtor$11@?0?_ZN4core4sync6atomic10atomic_sub17ha4ac59bf9516583fE@4HA":
.Lcfi820:
.seh_proc "?dtor$11@?0?_ZN4core4sync6atomic10atomic_sub17ha4ac59bf9516583fE@4HA"
.LBB115_11:
	movq	%rdx, 16(%rsp)
	pushq	%rbp
.Lcfi821:
	.seh_pushreg 5
	subq	$32, %rsp
.Lcfi822:
	.seh_stackalloc 32
	leaq	96(%rdx), %rbp
.Ltmp664:
.Lcfi823:
	.seh_endprologue
	testb	$1, -9(%rbp)
	jne	.LBB115_10
	jmp	.LBB115_9
.Ltmp665:
.Lfunc_end115:
	.p2align	2, 0x90
.LJTI115_0:
	.long	.LBB115_4-.LJTI115_0
	.long	.LBB115_2-.LJTI115_0
	.long	.LBB115_1-.LJTI115_0
	.long	.LBB115_3-.LJTI115_0
	.long	.LBB115_5-.LJTI115_0
	.long	.LBB115_6-.LJTI115_0
	.seh_handlerdata
	.section	.text,"xr",one_only,_ZN4core4sync6atomic10atomic_sub17ha4ac59bf9516583fE
.Lcfi824:
	.seh_endproc
	.section	.xdata,"dr",associative,_ZN4core4sync6atomic10atomic_sub17ha4ac59bf9516583fE
	.p2align	2
$cppxdata$_ZN4core4sync6atomic10atomic_sub17ha4ac59bf9516583fE:
	.long	429065506
	.long	1
	.long	($stateUnwindMap$_ZN4core4sync6atomic10atomic_sub17ha4ac59bf9516583fE)@IMGREL
	.long	0
	.long	0
	.long	3
	.long	($ip2state$_ZN4core4sync6atomic10atomic_sub17ha4ac59bf9516583fE)@IMGREL
	.long	88
	.long	0
	.long	1
$stateUnwindMap$_ZN4core4sync6atomic10atomic_sub17ha4ac59bf9516583fE:
	.long	-1
	.long	"?dtor$11@?0?_ZN4core4sync6atomic10atomic_sub17ha4ac59bf9516583fE@4HA"@IMGREL
$ip2state$_ZN4core4sync6atomic10atomic_sub17ha4ac59bf9516583fE:
	.long	.Lfunc_begin115@IMGREL
	.long	-1
	.long	.Ltmp646@IMGREL+1
	.long	0
	.long	.Ltmp647@IMGREL+1
	.long	-1
	.section	.text,"xr",one_only,_ZN4core4sync6atomic10atomic_sub17ha4ac59bf9516583fE

	.def	 _ZN4core4sync6atomic11AtomicUsize9fetch_sub17h75d7d6529666448cE;
	.scl	3;
	.type	32;
	.endef
	.section	.text,"xr",one_only,_ZN4core4sync6atomic11AtomicUsize9fetch_sub17h75d7d6529666448cE
	.p2align	4, 0x90
_ZN4core4sync6atomic11AtomicUsize9fetch_sub17h75d7d6529666448cE:
.Lfunc_begin116:
	.cv_func_id 116
	.cv_loc	116 21 1299 0
.Lcfi825:
.seh_proc _ZN4core4sync6atomic11AtomicUsize9fetch_sub17h75d7d6529666448cE
	pushq	%rbp
.Lcfi826:
	.seh_pushreg 5
	subq	$80, %rsp
.Lcfi827:
	.seh_stackalloc 80
	leaq	80(%rsp), %rbp
.Lcfi828:
	.seh_setframe 5, 80
.Lcfi829:
	.seh_endprologue
	movb	%r8b, %al
	movq	%rcx, -24(%rbp)
	movq	%rdx, -16(%rbp)
	movb	%al, -2(%rbp)
.Ltmp666:
	.cv_loc	116 21 1300 0
	movq	-24(%rbp), %rcx
	callq	_ZN40_$LT$core..cell..UnsafeCell$LT$T$GT$$GT$3get17h292987dfa6a6b0c8E
	movq	%rax, -32(%rbp)
	movq	-16(%rbp), %rdx
	movb	-2(%rbp), %al
	movb	%al, -1(%rbp)
	movq	-32(%rbp), %rcx
	movzbl	-1(%rbp), %r8d
	callq	_ZN4core4sync6atomic10atomic_sub17ha4ac59bf9516583fE
	movq	%rax, -40(%rbp)
.Ltmp667:
	.cv_loc	116 21 1301 0
	movq	-40(%rbp), %rax
	addq	$80, %rsp
	popq	%rbp
	retq
.Ltmp668:
.Lfunc_end116:
	.seh_handlerdata
	.section	.text,"xr",one_only,_ZN4core4sync6atomic11AtomicUsize9fetch_sub17h75d7d6529666448cE
.Lcfi830:
	.seh_endproc

	.def	 _ZN4core4sync6atomic5fence17hf08cafd961182495E;
	.scl	3;
	.type	32;
	.endef
	.section	.text,"xr",one_only,_ZN4core4sync6atomic5fence17hf08cafd961182495E
	.p2align	4, 0x90
_ZN4core4sync6atomic5fence17hf08cafd961182495E:
.Lfunc_begin117:
	.cv_func_id 117
	.cv_loc	117 21 1710 0
.Lcfi831:
.seh_proc _ZN4core4sync6atomic5fence17hf08cafd961182495E
	pushq	%rbp
.Lcfi832:
	.seh_pushreg 5
	subq	$64, %rsp
.Lcfi833:
	.seh_stackalloc 64
	leaq	64(%rsp), %rbp
.Lcfi834:
	.seh_setframe 5, 64
.Lcfi835:
	.seh_endprologue
	movb	%cl, %al
	movb	%al, -9(%rbp)
.Ltmp669:
	.cv_loc	117 21 1713 0
	movzbl	-9(%rbp), %ecx
	movl	%ecx, %edx
	movq	%rdx, %r8
	subq	$5, %r8
	movq	%rdx, -24(%rbp)
	movq	%r8, -32(%rbp)
	ja	.LBB117_7
.Ltmp670:
	leaq	.LJTI117_0(%rip), %rax
	movq	-24(%rbp), %rcx
	movslq	(%rax,%rcx,4), %rdx
	addq	%rax, %rdx
	jmpq	*%rdx
.Ltmp671:
.LBB117_1:
	#MEMBARRIER
	jmp	.LBB117_8
.Ltmp672:
.LBB117_2:
	.cv_loc	117 21 1714 0
	#MEMBARRIER
	jmp	.LBB117_8
.Ltmp673:
.LBB117_3:
	.cv_loc	117 21 1715 0
	#MEMBARRIER
	jmp	.LBB117_8
.Ltmp674:
.LBB117_4:
	.cv_loc	117 21 1716 0
	mfence
	jmp	.LBB117_8
.Ltmp675:
.LBB117_5:
	.cv_loc	117 9 20 0
	movq	const.n(%rip), %rcx
	callq	_ZN4core9panicking5panic17hbb9b03eae4db0581E
	ud2
.Ltmp676:
.LBB117_6:
	movq	const.k(%rip), %rcx
	callq	_ZN4core9panicking5panic17hbb9b03eae4db0581E
	ud2
.Ltmp677:
.LBB117_7:
	.cv_loc	117 21 1721 0
	ud2
.Ltmp678:
.LBB117_8:
	addq	$64, %rsp
	popq	%rbp
.Ltmp679:
	retq
.Ltmp680:
.Lfunc_end117:
	.p2align	2, 0x90
.LJTI117_0:
	.long	.LBB117_5-.LJTI117_0
	.long	.LBB117_2-.LJTI117_0
	.long	.LBB117_1-.LJTI117_0
	.long	.LBB117_3-.LJTI117_0
	.long	.LBB117_4-.LJTI117_0
	.long	.LBB117_6-.LJTI117_0
	.seh_handlerdata
	.section	.text,"xr",one_only,_ZN4core4sync6atomic5fence17hf08cafd961182495E
.Lcfi836:
	.seh_endproc

	.def	 _ZN4core5slice13size_from_ptr17ha21e678b476f22a0E;
	.scl	3;
	.type	32;
	.endef
	.section	.text,"xr",one_only,_ZN4core5slice13size_from_ptr17ha21e678b476f22a0E
	.p2align	4, 0x90
_ZN4core5slice13size_from_ptr17ha21e678b476f22a0E:
.Lfunc_begin118:
	.cv_func_id 118
	.cv_loc	118 1 1119 0
.Lcfi837:
.seh_proc _ZN4core5slice13size_from_ptr17ha21e678b476f22a0E
	pushq	%rbp
.Lcfi838:
	.seh_pushreg 5
	subq	$48, %rsp
.Lcfi839:
	.seh_stackalloc 48
	leaq	48(%rsp), %rbp
.Lcfi840:
	.seh_setframe 5, 48
.Lcfi841:
	.seh_endprologue
	movq	%rcx, -8(%rbp)
.Ltmp681:
	.cv_loc	118 1 1120 0
	callq	_ZN4core3mem7size_of17h3db975549b7a62b1E
	movq	%rax, -16(%rbp)
	.cv_loc	118 1 1121 0
	movq	-16(%rbp), %rax
	addq	$48, %rsp
	popq	%rbp
	retq
.Ltmp682:
.Lfunc_end118:
	.seh_handlerdata
	.section	.text,"xr",one_only,_ZN4core5slice13size_from_ptr17ha21e678b476f22a0E
.Lcfi842:
	.seh_endproc

	.def	 _ZN4core5slice14from_raw_parts17h649162f38266a9daE;
	.scl	3;
	.type	32;
	.endef
	.section	.text,"xr",one_only,_ZN4core5slice14from_raw_parts17h649162f38266a9daE
	.p2align	4, 0x90
_ZN4core5slice14from_raw_parts17h649162f38266a9daE:
.Lfunc_begin119:
	.cv_func_id 119
	.cv_loc	119 1 2370 0
.Lcfi843:
.seh_proc _ZN4core5slice14from_raw_parts17h649162f38266a9daE
	pushq	%rbp
.Lcfi844:
	.seh_pushreg 5
	subq	$64, %rsp
.Lcfi845:
	.seh_stackalloc 64
	leaq	64(%rsp), %rbp
.Lcfi846:
	.seh_setframe 5, 64
.Lcfi847:
	.seh_endprologue
	movq	%rcx, -48(%rbp)
	movq	%rdx, -40(%rbp)
.Ltmp683:
	.cv_loc	119 1 2371 0
	movq	-48(%rbp), %rcx
	movq	-40(%rbp), %rdx
	movq	%rcx, -32(%rbp)
	movq	%rdx, -24(%rbp)
	movq	-32(%rbp), %rcx
	movq	-24(%rbp), %rdx
	movq	%rcx, -16(%rbp)
	movq	%rdx, -8(%rbp)
	movq	-16(%rbp), %rax
	movq	-8(%rbp), %rdx
	movq	%rax, -56(%rbp)
	movq	%rdx, -64(%rbp)
	.cv_loc	119 1 2372 0
	movq	-56(%rbp), %rax
	movq	-64(%rbp), %rdx
	addq	$64, %rsp
	popq	%rbp
	retq
.Ltmp684:
.Lfunc_end119:
	.seh_handlerdata
	.section	.text,"xr",one_only,_ZN4core5slice14from_raw_parts17h649162f38266a9daE
.Lcfi848:
	.seh_endproc

	.def	 _ZN4core5slice18from_raw_parts_mut17h69bc7ac3dd5dbe8bE;
	.scl	3;
	.type	32;
	.endef
	.section	.text,"xr",one_only,_ZN4core5slice18from_raw_parts_mut17h69bc7ac3dd5dbe8bE
	.p2align	4, 0x90
_ZN4core5slice18from_raw_parts_mut17h69bc7ac3dd5dbe8bE:
.Lfunc_begin120:
	.cv_func_id 120
	.cv_loc	120 1 2383 0
.Lcfi849:
.seh_proc _ZN4core5slice18from_raw_parts_mut17h69bc7ac3dd5dbe8bE
	pushq	%rbp
.Lcfi850:
	.seh_pushreg 5
	subq	$64, %rsp
.Lcfi851:
	.seh_stackalloc 64
	leaq	64(%rsp), %rbp
.Lcfi852:
	.seh_setframe 5, 64
.Lcfi853:
	.seh_endprologue
	movq	%rcx, -48(%rbp)
	movq	%rdx, -40(%rbp)
.Ltmp685:
	.cv_loc	120 1 2384 0
	movq	-48(%rbp), %rcx
	movq	-40(%rbp), %rdx
	movq	%rcx, -32(%rbp)
	movq	%rdx, -24(%rbp)
	movq	-32(%rbp), %rcx
	movq	-24(%rbp), %rdx
	movq	%rcx, -16(%rbp)
	movq	%rdx, -8(%rbp)
	movq	-16(%rbp), %rax
	movq	-8(%rbp), %rdx
	movq	%rax, -56(%rbp)
	movq	%rdx, -64(%rbp)
	.cv_loc	120 1 2385 0
	movq	-56(%rbp), %rax
	movq	-64(%rbp), %rdx
	addq	$64, %rsp
	popq	%rbp
	retq
.Ltmp686:
.Lfunc_end120:
	.seh_handlerdata
	.section	.text,"xr",one_only,_ZN4core5slice18from_raw_parts_mut17h69bc7ac3dd5dbe8bE
.Lcfi854:
	.seh_endproc

	.def	 _ZN4core5slice74_$LT$impl$u20$core..ops..index..Index$LT$I$GT$$u20$for$u20$$u5b$T$u5d$$GT$5index17h534a23bc4ef271b5E;
	.scl	3;
	.type	32;
	.endef
	.section	.text,"xr",one_only,_ZN4core5slice74_$LT$impl$u20$core..ops..index..Index$LT$I$GT$$u20$for$u20$$u5b$T$u5d$$GT$5index17h534a23bc4ef271b5E
	.p2align	4, 0x90
_ZN4core5slice74_$LT$impl$u20$core..ops..index..Index$LT$I$GT$$u20$for$u20$$u5b$T$u5d$$GT$5index17h534a23bc4ef271b5E:
.Lfunc_begin121:
	.cv_func_id 121
	.cv_loc	121 1 726 0
.Lcfi855:
.seh_proc _ZN4core5slice74_$LT$impl$u20$core..ops..index..Index$LT$I$GT$$u20$for$u20$$u5b$T$u5d$$GT$5index17h534a23bc4ef271b5E
	pushq	%rbp
.Lcfi856:
	.seh_pushreg 5
	subq	$80, %rsp
.Lcfi857:
	.seh_stackalloc 80
	leaq	80(%rsp), %rbp
.Lcfi858:
	.seh_setframe 5, 80
.Lcfi859:
	.seh_endprologue
	leaq	-16(%rbp), %rax
	movq	%rcx, -32(%rbp)
	movq	%rdx, -24(%rbp)
.Ltmp687:
	.cv_loc	121 1 727 0
	movq	(%r8), %rcx
	movq	8(%r8), %rdx
	movq	-32(%rbp), %r8
.Ltmp688:
	movq	-24(%rbp), %r9
	movq	%rcx, -16(%rbp)
	movq	%rdx, -8(%rbp)
	movq	%rax, %rcx
	movq	%r8, %rdx
	movq	%r9, %r8
	callq	_ZN99_$LT$core..ops..range..Range$LT$usize$GT$$u20$as$u20$core..slice..SliceIndex$LT$$u5b$T$u5d$$GT$$GT$5index17hb1e0679ddf82a70cE
	movq	%rax, -40(%rbp)
	movq	%rdx, -48(%rbp)
	.cv_loc	121 1 728 0
	movq	-40(%rbp), %rax
	movq	-48(%rbp), %rdx
	addq	$80, %rsp
	popq	%rbp
	retq
.Ltmp689:
.Lfunc_end121:
	.seh_handlerdata
	.section	.text,"xr",one_only,_ZN4core5slice74_$LT$impl$u20$core..ops..index..Index$LT$I$GT$$u20$for$u20$$u5b$T$u5d$$GT$5index17h534a23bc4ef271b5E
.Lcfi860:
	.seh_endproc

	.def	 _ZN4core5slice74_$LT$impl$u20$core..ops..index..Index$LT$I$GT$$u20$for$u20$$u5b$T$u5d$$GT$5index17h9073aed9b3858111E;
	.scl	3;
	.type	32;
	.endef
	.section	.text,"xr",one_only,_ZN4core5slice74_$LT$impl$u20$core..ops..index..Index$LT$I$GT$$u20$for$u20$$u5b$T$u5d$$GT$5index17h9073aed9b3858111E
	.p2align	4, 0x90
_ZN4core5slice74_$LT$impl$u20$core..ops..index..Index$LT$I$GT$$u20$for$u20$$u5b$T$u5d$$GT$5index17h9073aed9b3858111E:
.Lfunc_begin122:
	.cv_func_id 122
	.cv_loc	122 1 726 0
.Lcfi861:
.seh_proc _ZN4core5slice74_$LT$impl$u20$core..ops..index..Index$LT$I$GT$$u20$for$u20$$u5b$T$u5d$$GT$5index17h9073aed9b3858111E
	pushq	%rbp
.Lcfi862:
	.seh_pushreg 5
	subq	$96, %rsp
.Lcfi863:
	.seh_stackalloc 96
	leaq	96(%rsp), %rbp
.Lcfi864:
	.seh_setframe 5, 96
.Lcfi865:
	.seh_endprologue
	movq	%rcx, -40(%rbp)
	movq	%rdx, -32(%rbp)
	movq	%r8, -16(%rbp)
	movq	-16(%rbp), %rcx
	movq	%rcx, -24(%rbp)
.Ltmp690:
	.cv_loc	122 1 727 0
	movq	-24(%rbp), %rcx
	movq	%rcx, -8(%rbp)
	movq	-40(%rbp), %rdx
	movq	-32(%rbp), %r8
	movq	-8(%rbp), %rcx
	callq	_ZN103_$LT$core..ops..range..RangeFrom$LT$usize$GT$$u20$as$u20$core..slice..SliceIndex$LT$$u5b$T$u5d$$GT$$GT$5index17h409a942690393f68E
	movq	%rax, -48(%rbp)
	movq	%rdx, -56(%rbp)
	.cv_loc	122 1 728 0
	movq	-48(%rbp), %rax
	movq	-56(%rbp), %rdx
	addq	$96, %rsp
	popq	%rbp
	retq
.Ltmp691:
.Lfunc_end122:
	.seh_handlerdata
	.section	.text,"xr",one_only,_ZN4core5slice74_$LT$impl$u20$core..ops..index..Index$LT$I$GT$$u20$for$u20$$u5b$T$u5d$$GT$5index17h9073aed9b3858111E
.Lcfi866:
	.seh_endproc

	.def	 _ZN4core5slice74_$LT$impl$u20$core..ops..index..Index$LT$I$GT$$u20$for$u20$$u5b$T$u5d$$GT$5index17hb526186e14a6f14bE;
	.scl	3;
	.type	32;
	.endef
	.section	.text,"xr",one_only,_ZN4core5slice74_$LT$impl$u20$core..ops..index..Index$LT$I$GT$$u20$for$u20$$u5b$T$u5d$$GT$5index17hb526186e14a6f14bE
	.p2align	4, 0x90
_ZN4core5slice74_$LT$impl$u20$core..ops..index..Index$LT$I$GT$$u20$for$u20$$u5b$T$u5d$$GT$5index17hb526186e14a6f14bE:
.Lfunc_begin123:
	.cv_func_id 123
	.cv_loc	123 1 726 0
.Lcfi867:
.seh_proc _ZN4core5slice74_$LT$impl$u20$core..ops..index..Index$LT$I$GT$$u20$for$u20$$u5b$T$u5d$$GT$5index17hb526186e14a6f14bE
	pushq	%rbp
.Lcfi868:
	.seh_pushreg 5
	subq	$64, %rsp
.Lcfi869:
	.seh_stackalloc 64
	leaq	64(%rsp), %rbp
.Lcfi870:
	.seh_setframe 5, 64
.Lcfi871:
	.seh_endprologue
	movq	%rcx, -24(%rbp)
	movq	%rdx, -16(%rbp)
	movq	%r8, -8(%rbp)
.Ltmp692:
	.cv_loc	123 1 727 0
	movq	-8(%rbp), %rcx
	movq	-24(%rbp), %rdx
	movq	-16(%rbp), %r8
	callq	_ZN68_$LT$usize$u20$as$u20$core..slice..SliceIndex$LT$$u5b$T$u5d$$GT$$GT$5index17h6b1beeeed32404ccE
	movq	%rax, -32(%rbp)
	.cv_loc	123 1 728 0
	movq	-32(%rbp), %rax
	addq	$64, %rsp
	popq	%rbp
	retq
.Ltmp693:
.Lfunc_end123:
	.seh_handlerdata
	.section	.text,"xr",one_only,_ZN4core5slice74_$LT$impl$u20$core..ops..index..Index$LT$I$GT$$u20$for$u20$$u5b$T$u5d$$GT$5index17hb526186e14a6f14bE
.Lcfi872:
	.seh_endproc

	.def	 _ZN4core5slice74_$LT$impl$u20$core..ops..index..Index$LT$I$GT$$u20$for$u20$$u5b$T$u5d$$GT$5index17hbb20c4254dbe7a82E;
	.scl	3;
	.type	32;
	.endef
	.section	.text,"xr",one_only,_ZN4core5slice74_$LT$impl$u20$core..ops..index..Index$LT$I$GT$$u20$for$u20$$u5b$T$u5d$$GT$5index17hbb20c4254dbe7a82E
	.p2align	4, 0x90
_ZN4core5slice74_$LT$impl$u20$core..ops..index..Index$LT$I$GT$$u20$for$u20$$u5b$T$u5d$$GT$5index17hbb20c4254dbe7a82E:
.Lfunc_begin124:
	.cv_func_id 124
	.cv_loc	124 1 726 0
.Lcfi873:
.seh_proc _ZN4core5slice74_$LT$impl$u20$core..ops..index..Index$LT$I$GT$$u20$for$u20$$u5b$T$u5d$$GT$5index17hbb20c4254dbe7a82E
	pushq	%rbp
.Lcfi874:
	.seh_pushreg 5
	subq	$80, %rsp
.Lcfi875:
	.seh_stackalloc 80
	leaq	80(%rsp), %rbp
.Lcfi876:
	.seh_setframe 5, 80
.Lcfi877:
	.seh_endprologue
	movq	%rcx, -24(%rbp)
	movq	%rdx, -16(%rbp)
.Ltmp694:
	.cv_loc	124 1 727 0
	movq	-24(%rbp), %rcx
	movq	-16(%rbp), %rdx
	callq	_ZN90_$LT$core..ops..range..RangeFull$u20$as$u20$core..slice..SliceIndex$LT$$u5b$T$u5d$$GT$$GT$5index17h6c16655bcc017958E
	movq	%rax, -32(%rbp)
	movq	%rdx, -40(%rbp)
	.cv_loc	124 1 728 0
	movq	-32(%rbp), %rax
	movq	-40(%rbp), %rdx
	addq	$80, %rsp
	popq	%rbp
	retq
.Ltmp695:
.Lfunc_end124:
	.seh_handlerdata
	.section	.text,"xr",one_only,_ZN4core5slice74_$LT$impl$u20$core..ops..index..Index$LT$I$GT$$u20$for$u20$$u5b$T$u5d$$GT$5index17hbb20c4254dbe7a82E
.Lcfi878:
	.seh_endproc

	.def	 _ZN4core5slice74_$LT$impl$u20$core..ops..index..Index$LT$I$GT$$u20$for$u20$$u5b$T$u5d$$GT$5index17hd6acae996bff473cE;
	.scl	3;
	.type	32;
	.endef
	.section	.text,"xr",one_only,_ZN4core5slice74_$LT$impl$u20$core..ops..index..Index$LT$I$GT$$u20$for$u20$$u5b$T$u5d$$GT$5index17hd6acae996bff473cE
	.p2align	4, 0x90
_ZN4core5slice74_$LT$impl$u20$core..ops..index..Index$LT$I$GT$$u20$for$u20$$u5b$T$u5d$$GT$5index17hd6acae996bff473cE:
.Lfunc_begin125:
	.cv_func_id 125
	.cv_loc	125 1 726 0
.Lcfi879:
.seh_proc _ZN4core5slice74_$LT$impl$u20$core..ops..index..Index$LT$I$GT$$u20$for$u20$$u5b$T$u5d$$GT$5index17hd6acae996bff473cE
	pushq	%rbp
.Lcfi880:
	.seh_pushreg 5
	subq	$64, %rsp
.Lcfi881:
	.seh_stackalloc 64
	leaq	64(%rsp), %rbp
.Lcfi882:
	.seh_setframe 5, 64
.Lcfi883:
	.seh_endprologue
	movq	%rcx, -24(%rbp)
	movq	%rdx, -16(%rbp)
	movq	%r8, -8(%rbp)
.Ltmp696:
	.cv_loc	125 1 727 0
	movq	-8(%rbp), %rcx
	movq	-24(%rbp), %rdx
	movq	-16(%rbp), %r8
	callq	_ZN68_$LT$usize$u20$as$u20$core..slice..SliceIndex$LT$$u5b$T$u5d$$GT$$GT$5index17hf4bd2891f456e10dE
	movq	%rax, -32(%rbp)
	.cv_loc	125 1 728 0
	movq	-32(%rbp), %rax
	addq	$64, %rsp
	popq	%rbp
	retq
.Ltmp697:
.Lfunc_end125:
	.seh_handlerdata
	.section	.text,"xr",one_only,_ZN4core5slice74_$LT$impl$u20$core..ops..index..Index$LT$I$GT$$u20$for$u20$$u5b$T$u5d$$GT$5index17hd6acae996bff473cE
.Lcfi884:
	.seh_endproc

	.def	 _ZN4core5slice74_$LT$impl$u20$core..ops..index..Index$LT$I$GT$$u20$for$u20$$u5b$T$u5d$$GT$5index17hd8d77802c7f99ae6E;
	.scl	3;
	.type	32;
	.endef
	.section	.text,"xr",one_only,_ZN4core5slice74_$LT$impl$u20$core..ops..index..Index$LT$I$GT$$u20$for$u20$$u5b$T$u5d$$GT$5index17hd8d77802c7f99ae6E
	.p2align	4, 0x90
_ZN4core5slice74_$LT$impl$u20$core..ops..index..Index$LT$I$GT$$u20$for$u20$$u5b$T$u5d$$GT$5index17hd8d77802c7f99ae6E:
.Lfunc_begin126:
	.cv_func_id 126
	.cv_loc	126 1 726 0
.Lcfi885:
.seh_proc _ZN4core5slice74_$LT$impl$u20$core..ops..index..Index$LT$I$GT$$u20$for$u20$$u5b$T$u5d$$GT$5index17hd8d77802c7f99ae6E
	pushq	%rbp
.Lcfi886:
	.seh_pushreg 5
	subq	$64, %rsp
.Lcfi887:
	.seh_stackalloc 64
	leaq	64(%rsp), %rbp
.Lcfi888:
	.seh_setframe 5, 64
.Lcfi889:
	.seh_endprologue
	movq	%rcx, -24(%rbp)
	movq	%rdx, -16(%rbp)
	movq	%r8, -8(%rbp)
.Ltmp698:
	.cv_loc	126 1 727 0
	movq	-8(%rbp), %rcx
	movq	-24(%rbp), %rdx
	movq	-16(%rbp), %r8
	callq	_ZN68_$LT$usize$u20$as$u20$core..slice..SliceIndex$LT$$u5b$T$u5d$$GT$$GT$5index17ha40b297ce1233ca7E
	movq	%rax, -32(%rbp)
	.cv_loc	126 1 728 0
	movq	-32(%rbp), %rax
	addq	$64, %rsp
	popq	%rbp
	retq
.Ltmp699:
.Lfunc_end126:
	.seh_handlerdata
	.section	.text,"xr",one_only,_ZN4core5slice74_$LT$impl$u20$core..ops..index..Index$LT$I$GT$$u20$for$u20$$u5b$T$u5d$$GT$5index17hd8d77802c7f99ae6E
.Lcfi890:
	.seh_endproc

	.def	 _ZN4core5slice74_$LT$impl$u20$core..ops..index..Index$LT$I$GT$$u20$for$u20$$u5b$T$u5d$$GT$5index17hfda12dd63d720e0bE;
	.scl	3;
	.type	32;
	.endef
	.section	.text,"xr",one_only,_ZN4core5slice74_$LT$impl$u20$core..ops..index..Index$LT$I$GT$$u20$for$u20$$u5b$T$u5d$$GT$5index17hfda12dd63d720e0bE
	.p2align	4, 0x90
_ZN4core5slice74_$LT$impl$u20$core..ops..index..Index$LT$I$GT$$u20$for$u20$$u5b$T$u5d$$GT$5index17hfda12dd63d720e0bE:
.Lfunc_begin127:
	.cv_func_id 127
	.cv_loc	127 1 726 0
.Lcfi891:
.seh_proc _ZN4core5slice74_$LT$impl$u20$core..ops..index..Index$LT$I$GT$$u20$for$u20$$u5b$T$u5d$$GT$5index17hfda12dd63d720e0bE
	pushq	%rbp
.Lcfi892:
	.seh_pushreg 5
	subq	$64, %rsp
.Lcfi893:
	.seh_stackalloc 64
	leaq	64(%rsp), %rbp
.Lcfi894:
	.seh_setframe 5, 64
.Lcfi895:
	.seh_endprologue
	movq	%rcx, -24(%rbp)
	movq	%rdx, -16(%rbp)
	movq	%r8, -8(%rbp)
.Ltmp700:
	.cv_loc	127 1 727 0
	movq	-8(%rbp), %rcx
	movq	-24(%rbp), %rdx
	movq	-16(%rbp), %r8
	callq	_ZN68_$LT$usize$u20$as$u20$core..slice..SliceIndex$LT$$u5b$T$u5d$$GT$$GT$5index17h5b6c9dad536e90d6E
	movq	%rax, -32(%rbp)
	.cv_loc	127 1 728 0
	movq	-32(%rbp), %rax
	addq	$64, %rsp
	popq	%rbp
	retq
.Ltmp701:
.Lfunc_end127:
	.seh_handlerdata
	.section	.text,"xr",one_only,_ZN4core5slice74_$LT$impl$u20$core..ops..index..Index$LT$I$GT$$u20$for$u20$$u5b$T$u5d$$GT$5index17hfda12dd63d720e0bE
.Lcfi896:
	.seh_endproc

	.def	 _ZN4core5slice77_$LT$impl$u20$core..ops..index..IndexMut$LT$I$GT$$u20$for$u20$$u5b$T$u5d$$GT$9index_mut17h0ebb7fc41c17a7f7E;
	.scl	3;
	.type	32;
	.endef
	.section	.text,"xr",one_only,_ZN4core5slice77_$LT$impl$u20$core..ops..index..IndexMut$LT$I$GT$$u20$for$u20$$u5b$T$u5d$$GT$9index_mut17h0ebb7fc41c17a7f7E
	.p2align	4, 0x90
_ZN4core5slice77_$LT$impl$u20$core..ops..index..IndexMut$LT$I$GT$$u20$for$u20$$u5b$T$u5d$$GT$9index_mut17h0ebb7fc41c17a7f7E:
.Lfunc_begin128:
	.cv_func_id 128
	.cv_loc	128 1 737 0
.Lcfi897:
.seh_proc _ZN4core5slice77_$LT$impl$u20$core..ops..index..IndexMut$LT$I$GT$$u20$for$u20$$u5b$T$u5d$$GT$9index_mut17h0ebb7fc41c17a7f7E
	pushq	%rbp
.Lcfi898:
	.seh_pushreg 5
	subq	$64, %rsp
.Lcfi899:
	.seh_stackalloc 64
	leaq	64(%rsp), %rbp
.Lcfi900:
	.seh_setframe 5, 64
.Lcfi901:
	.seh_endprologue
	movq	%rcx, -24(%rbp)
	movq	%rdx, -16(%rbp)
	movq	%r8, -8(%rbp)
.Ltmp702:
	.cv_loc	128 1 738 0
	movq	-8(%rbp), %rcx
	movq	-24(%rbp), %rdx
	movq	-16(%rbp), %r8
	callq	_ZN68_$LT$usize$u20$as$u20$core..slice..SliceIndex$LT$$u5b$T$u5d$$GT$$GT$9index_mut17h69be8125a53b731aE
	movq	%rax, -32(%rbp)
	.cv_loc	128 1 739 0
	movq	-32(%rbp), %rax
	addq	$64, %rsp
	popq	%rbp
	retq
.Ltmp703:
.Lfunc_end128:
	.seh_handlerdata
	.section	.text,"xr",one_only,_ZN4core5slice77_$LT$impl$u20$core..ops..index..IndexMut$LT$I$GT$$u20$for$u20$$u5b$T$u5d$$GT$9index_mut17h0ebb7fc41c17a7f7E
.Lcfi902:
	.seh_endproc

	.def	 _ZN4core5slice77_$LT$impl$u20$core..ops..index..IndexMut$LT$I$GT$$u20$for$u20$$u5b$T$u5d$$GT$9index_mut17h6b5d6a67be82e23aE;
	.scl	3;
	.type	32;
	.endef
	.section	.text,"xr",one_only,_ZN4core5slice77_$LT$impl$u20$core..ops..index..IndexMut$LT$I$GT$$u20$for$u20$$u5b$T$u5d$$GT$9index_mut17h6b5d6a67be82e23aE
	.p2align	4, 0x90
_ZN4core5slice77_$LT$impl$u20$core..ops..index..IndexMut$LT$I$GT$$u20$for$u20$$u5b$T$u5d$$GT$9index_mut17h6b5d6a67be82e23aE:
.Lfunc_begin129:
	.cv_func_id 129
	.cv_loc	129 1 737 0
.Lcfi903:
.seh_proc _ZN4core5slice77_$LT$impl$u20$core..ops..index..IndexMut$LT$I$GT$$u20$for$u20$$u5b$T$u5d$$GT$9index_mut17h6b5d6a67be82e23aE
	pushq	%rbp
.Lcfi904:
	.seh_pushreg 5
	subq	$64, %rsp
.Lcfi905:
	.seh_stackalloc 64
	leaq	64(%rsp), %rbp
.Lcfi906:
	.seh_setframe 5, 64
.Lcfi907:
	.seh_endprologue
	movq	%rcx, -24(%rbp)
	movq	%rdx, -16(%rbp)
	movq	%r8, -8(%rbp)
.Ltmp704:
	.cv_loc	129 1 738 0
	movq	-8(%rbp), %rcx
	movq	-24(%rbp), %rdx
	movq	-16(%rbp), %r8
	callq	_ZN68_$LT$usize$u20$as$u20$core..slice..SliceIndex$LT$$u5b$T$u5d$$GT$$GT$9index_mut17hf6fbf54970b84aa2E
	movq	%rax, -32(%rbp)
	.cv_loc	129 1 739 0
	movq	-32(%rbp), %rax
	addq	$64, %rsp
	popq	%rbp
	retq
.Ltmp705:
.Lfunc_end129:
	.seh_handlerdata
	.section	.text,"xr",one_only,_ZN4core5slice77_$LT$impl$u20$core..ops..index..IndexMut$LT$I$GT$$u20$for$u20$$u5b$T$u5d$$GT$9index_mut17h6b5d6a67be82e23aE
.Lcfi908:
	.seh_endproc

	.def	 _ZN4core6result13unwrap_failed17h7b5b6ea6d99a7d0aE;
	.scl	3;
	.type	32;
	.endef
	.section	.text,"xr",one_only,_ZN4core6result13unwrap_failed17h7b5b6ea6d99a7d0aE
	.p2align	4, 0x90
_ZN4core6result13unwrap_failed17h7b5b6ea6d99a7d0aE:
.Lfunc_begin130:
	.cv_func_id 130
	.cv_loc	130 16 905 0
.Lcfi909:
.seh_proc _ZN4core6result13unwrap_failed17h7b5b6ea6d99a7d0aE
	.seh_handler __CxxFrameHandler3, @unwind, @except
	pushq	%rbp
.Lcfi910:
	.seh_pushreg 5
	subq	$256, %rsp
.Lcfi911:
	.seh_stackalloc 256
	leaq	128(%rsp), %rbp
.Lcfi912:
	.seh_setframe 5, 128
.Lcfi913:
	.seh_endprologue
	movq	$-2, 120(%rbp)
	movq	%rcx, -40(%rbp)
	movq	%rdx, -32(%rbp)
	leaq	-40(%rbp), %rcx
.Ltmp714:
	.cv_loc	130 16 906 0
	movq	%rcx, 56(%rbp)
	movq	%r8, 64(%rbp)
.Ltmp715:
	.cv_file	22 "C:\\projects\\rust\\src\\libcore\\lib.rs"
	.cv_loc	130 22 1 0
	movq	56(%rbp), %rcx
	movq	%rcx, 72(%rbp)
	movq	64(%rbp), %rcx
	movq	%rcx, 80(%rbp)
	.cv_loc	130 16 906 0
	movq	72(%rbp), %rdx
	.cv_loc	130 9 23 0
.Ltmp706:
	leaq	_ZN55_$LT$$RF$$u27$a$u20$T$u20$as$u20$core..fmt..Display$GT$3fmt17ha7723f8fa2fdba6fE(%rip), %rcx
	leaq	88(%rbp), %rax
	movq	%rcx, -48(%rbp)
	movq	%rax, %rcx
	movq	-48(%rbp), %rax
	movq	%r8, -56(%rbp)
.Ltmp716:
	movq	%rax, %r8
	callq	_ZN4core3fmt10ArgumentV13new17h6777699a57139743E
.Ltmp707:
	jmp	.LBB130_1
.Ltmp717:
.LBB130_1:
	movq	88(%rbp), %rax
	movq	96(%rbp), %rcx
	.cv_loc	130 16 906 0
	movq	80(%rbp), %rdx
	.cv_loc	130 9 23 0
.Ltmp708:
	leaq	_ZN58_$LT$std..io..error..Error$u20$as$u20$core..fmt..Debug$GT$3fmt17h91644285edbaf5c3E(%rip), %r8
	leaq	104(%rbp), %r9
	movq	%rcx, -64(%rbp)
	movq	%r9, %rcx
	movq	%rax, -72(%rbp)
	callq	_ZN4core3fmt10ArgumentV13new17hb5ddb91ea42106deE
.Ltmp709:
	jmp	.LBB130_2
.Ltmp718:
.LBB130_2:
	movq	104(%rbp), %rax
	movq	112(%rbp), %rcx
	.cv_loc	130 16 906 0
	movq	-72(%rbp), %rdx
	movq	%rdx, 24(%rbp)
	movq	-64(%rbp), %r8
	movq	%r8, 32(%rbp)
	movq	%rax, 40(%rbp)
	movq	%rcx, 48(%rbp)
.Ltmp719:
	.cv_loc	130 9 23 0
.Ltmp710:
	leaq	ref.r(%rip), %rax
	movq	%rsp, %rcx
	movq	%rax, 40(%rcx)
	movq	$2, 48(%rcx)
	movq	$2, 32(%rcx)
	leaq	ref.q(%rip), %rdx
	movl	$2, %r9d
	movl	%r9d, %r8d
	leaq	-24(%rbp), %rcx
	leaq	24(%rbp), %r9
	callq	_ZN4core3fmt9Arguments16new_v1_formatted17h823bd8cf107e78aaE
.Ltmp711:
	jmp	.LBB130_3
.Ltmp720:
.LBB130_3:
.Ltmp712:
	leaq	ref.u(%rip), %rdx
	leaq	-24(%rbp), %rcx
	callq	_ZN4core9panicking9panic_fmt17h9c9576cce7ce029aE
.Ltmp713:
	jmp	.LBB130_5
.Ltmp721:
.LBB130_5:
	ud2
.Ltmp722:
	.seh_handlerdata
	.long	($cppxdata$_ZN4core6result13unwrap_failed17h7b5b6ea6d99a7d0aE)@IMGREL
	.section	.text,"xr",one_only,_ZN4core6result13unwrap_failed17h7b5b6ea6d99a7d0aE
.Lcfi914:
	.seh_endproc
	.def	 "?dtor$4@?0?_ZN4core6result13unwrap_failed17h7b5b6ea6d99a7d0aE@4HA";
	.scl	3;
	.type	32;
	.endef
	.p2align	4, 0x90
"?dtor$4@?0?_ZN4core6result13unwrap_failed17h7b5b6ea6d99a7d0aE@4HA":
.Lcfi915:
.seh_proc "?dtor$4@?0?_ZN4core6result13unwrap_failed17h7b5b6ea6d99a7d0aE@4HA"
.LBB130_4:
	movq	%rdx, 16(%rsp)
	pushq	%rbp
.Lcfi916:
	.seh_pushreg 5
	subq	$64, %rsp
.Lcfi917:
	.seh_stackalloc 64
	leaq	128(%rdx), %rbp
.Lcfi918:
	.seh_endprologue
	.cv_loc	130 16 907 0
	movq	-56(%rbp), %rcx
	callq	_ZN4core3ptr13drop_in_place17hf04c43bd20d522c7E
	.cv_loc	130 16 905 0
	nop
	addq	$64, %rsp
	popq	%rbp
	retq
.Ltmp723:
.Lfunc_end130:
	.seh_handlerdata
	.section	.text,"xr",one_only,_ZN4core6result13unwrap_failed17h7b5b6ea6d99a7d0aE
.Lcfi919:
	.seh_endproc
	.section	.xdata,"dr",associative,_ZN4core6result13unwrap_failed17h7b5b6ea6d99a7d0aE
	.p2align	2
$cppxdata$_ZN4core6result13unwrap_failed17h7b5b6ea6d99a7d0aE:
	.long	429065506
	.long	1
	.long	($stateUnwindMap$_ZN4core6result13unwrap_failed17h7b5b6ea6d99a7d0aE)@IMGREL
	.long	0
	.long	0
	.long	3
	.long	($ip2state$_ZN4core6result13unwrap_failed17h7b5b6ea6d99a7d0aE)@IMGREL
	.long	248
	.long	0
	.long	1
$stateUnwindMap$_ZN4core6result13unwrap_failed17h7b5b6ea6d99a7d0aE:
	.long	-1
	.long	"?dtor$4@?0?_ZN4core6result13unwrap_failed17h7b5b6ea6d99a7d0aE@4HA"@IMGREL
$ip2state$_ZN4core6result13unwrap_failed17h7b5b6ea6d99a7d0aE:
	.long	.Lfunc_begin130@IMGREL
	.long	-1
	.long	.Ltmp706@IMGREL+1
	.long	0
	.long	.Ltmp713@IMGREL+1
	.long	-1
	.section	.text,"xr",one_only,_ZN4core6result13unwrap_failed17h7b5b6ea6d99a7d0aE

	.def	 _ZN50_$LT$T$u20$as$u20$core..convert..From$LT$T$GT$$GT$4from17hfd9ac999322e2cebE;
	.scl	3;
	.type	32;
	.endef
	.section	.text,"xr",one_only,_ZN50_$LT$T$u20$as$u20$core..convert..From$LT$T$GT$$GT$4from17hfd9ac999322e2cebE
	.p2align	4, 0x90
_ZN50_$LT$T$u20$as$u20$core..convert..From$LT$T$GT$$GT$4from17hfd9ac999322e2cebE:
.Lfunc_begin131:
	.cv_func_id 131
	.cv_file	23 "C:\\projects\\rust\\src\\libcore\\convert.rs"
	.cv_loc	131 23 422 0
.Lcfi920:
.seh_proc _ZN50_$LT$T$u20$as$u20$core..convert..From$LT$T$GT$$GT$4from17hfd9ac999322e2cebE
	pushq	%rbp
.Lcfi921:
	.seh_pushreg 5
	pushq	%rax
.Lcfi922:
	.seh_stackalloc 8
	movq	%rsp, %rbp
.Lcfi923:
	.seh_setframe 5, 0
.Lcfi924:
	.seh_endprologue
	movq	%rcx, (%rbp)
.Ltmp724:
	movq	(%rbp), %rax
	addq	$8, %rsp
	popq	%rbp
	retq
.Ltmp725:
.Lfunc_end131:
	.seh_handlerdata
	.section	.text,"xr",one_only,_ZN50_$LT$T$u20$as$u20$core..convert..From$LT$T$GT$$GT$4from17hfd9ac999322e2cebE
.Lcfi925:
	.seh_endproc

	.def	 _ZN50_$LT$T$u20$as$u20$core..convert..Into$LT$U$GT$$GT$4into17had88e5fa9175f25fE;
	.scl	3;
	.type	32;
	.endef
	.section	.text,"xr",one_only,_ZN50_$LT$T$u20$as$u20$core..convert..Into$LT$U$GT$$GT$4into17had88e5fa9175f25fE
	.p2align	4, 0x90
_ZN50_$LT$T$u20$as$u20$core..convert..Into$LT$U$GT$$GT$4into17had88e5fa9175f25fE:
.Lfunc_begin132:
	.cv_func_id 132
	.cv_loc	132 23 414 0
.Lcfi926:
.seh_proc _ZN50_$LT$T$u20$as$u20$core..convert..Into$LT$U$GT$$GT$4into17had88e5fa9175f25fE
	pushq	%rbp
.Lcfi927:
	.seh_pushreg 5
	subq	$64, %rsp
.Lcfi928:
	.seh_stackalloc 64
	leaq	64(%rsp), %rbp
.Lcfi929:
	.seh_setframe 5, 64
.Lcfi930:
	.seh_endprologue
	movq	%rcx, -16(%rbp)
	movq	%rdx, -8(%rbp)
.Ltmp726:
	.cv_loc	132 23 415 0
	movq	-16(%rbp), %rcx
	movq	-8(%rbp), %rdx
	callq	_ZN3std5error205_$LT$impl$u20$core..convert..From$LT$$RF$$u27$b$u20$str$GT$$u20$for$u20$alloc..boxed..Box$LT$std..error..Error$u20$$u2b$$u20$core..marker..Send$u20$$u2b$$u20$core..marker..Sync$u20$$u2b$$u20$$u27$a$GT$$GT$4from17hf7e02e4d43b6f025E
	movq	%rax, -24(%rbp)
	movq	%rdx, -32(%rbp)
	.cv_loc	132 23 416 0
	movq	-24(%rbp), %rax
	movq	-32(%rbp), %rdx
	addq	$64, %rsp
	popq	%rbp
	retq
.Ltmp727:
.Lfunc_end132:
	.seh_handlerdata
	.section	.text,"xr",one_only,_ZN50_$LT$T$u20$as$u20$core..convert..Into$LT$U$GT$$GT$4into17had88e5fa9175f25fE
.Lcfi931:
	.seh_endproc

	.def	 _ZN53_$LT$$u5b$T$u5d$$u20$as$u20$core..slice..SliceExt$GT$10as_mut_ptr17h1238fa66858f5f2aE;
	.scl	3;
	.type	32;
	.endef
	.section	.text,"xr",one_only,_ZN53_$LT$$u5b$T$u5d$$u20$as$u20$core..slice..SliceExt$GT$10as_mut_ptr17h1238fa66858f5f2aE
	.p2align	4, 0x90
_ZN53_$LT$$u5b$T$u5d$$u20$as$u20$core..slice..SliceExt$GT$10as_mut_ptr17h1238fa66858f5f2aE:
.Lfunc_begin133:
	.cv_func_id 133
	.cv_loc	133 1 616 0
.Lcfi932:
.seh_proc _ZN53_$LT$$u5b$T$u5d$$u20$as$u20$core..slice..SliceExt$GT$10as_mut_ptr17h1238fa66858f5f2aE
	pushq	%rbp
.Lcfi933:
	.seh_pushreg 5
	subq	$16, %rsp
.Lcfi934:
	.seh_stackalloc 16
	leaq	16(%rsp), %rbp
.Lcfi935:
	.seh_setframe 5, 16
.Lcfi936:
	.seh_endprologue
	movq	%rcx, -16(%rbp)
	movq	%rdx, -8(%rbp)
.Ltmp728:
	.cv_loc	133 1 617 0
	movq	-16(%rbp), %rax
	.cv_loc	133 1 618 0
	addq	$16, %rsp
	popq	%rbp
	retq
.Ltmp729:
.Lfunc_end133:
	.seh_handlerdata
	.section	.text,"xr",one_only,_ZN53_$LT$$u5b$T$u5d$$u20$as$u20$core..slice..SliceExt$GT$10as_mut_ptr17h1238fa66858f5f2aE
.Lcfi937:
	.seh_endproc

	.def	 _ZN53_$LT$$u5b$T$u5d$$u20$as$u20$core..slice..SliceExt$GT$15copy_from_slice17h93f7a35248bda598E;
	.scl	3;
	.type	32;
	.endef
	.section	.text,"xr",one_only,_ZN53_$LT$$u5b$T$u5d$$u20$as$u20$core..slice..SliceExt$GT$15copy_from_slice17h93f7a35248bda598E
	.p2align	4, 0x90
_ZN53_$LT$$u5b$T$u5d$$u20$as$u20$core..slice..SliceExt$GT$15copy_from_slice17h93f7a35248bda598E:
.Lfunc_begin134:
	.cv_func_id 134
	.cv_loc	134 1 668 0
.Lcfi938:
.seh_proc _ZN53_$LT$$u5b$T$u5d$$u20$as$u20$core..slice..SliceExt$GT$15copy_from_slice17h93f7a35248bda598E
	pushq	%rbp
.Lcfi939:
	.seh_pushreg 5
	subq	$112, %rsp
.Lcfi940:
	.seh_stackalloc 112
	leaq	112(%rsp), %rbp
.Lcfi941:
	.seh_setframe 5, 112
.Lcfi942:
	.seh_endprologue
	movq	%rcx, -32(%rbp)
	movq	%rdx, -24(%rbp)
	movq	%r8, -16(%rbp)
	movq	%r9, -8(%rbp)
.Ltmp730:
	.cv_loc	134 1 669 0
	movq	-32(%rbp), %rcx
	movq	-24(%rbp), %rdx
	callq	_ZN53_$LT$$u5b$T$u5d$$u20$as$u20$core..slice..SliceExt$GT$3len17h639f333c3ed616a7E
	movq	%rax, -40(%rbp)
	movq	-16(%rbp), %rcx
	movq	-8(%rbp), %rdx
	callq	_ZN53_$LT$$u5b$T$u5d$$u20$as$u20$core..slice..SliceExt$GT$3len17h639f333c3ed616a7E
	movq	%rax, -48(%rbp)
	movq	-40(%rbp), %rax
	movq	-48(%rbp), %rcx
	cmpq	%rcx, %rax
	sete	%dl
	.cv_loc	134 9 83 0
	xorb	$-1, %dl
	testb	$1, %dl
	jne	.LBB134_3
	jmp	.LBB134_4
.LBB134_3:
	.cv_loc	134 9 20 0
	movq	const.z(%rip), %rcx
	callq	_ZN4core9panicking5panic17hbb9b03eae4db0581E
	ud2
.LBB134_4:
.Ltmp731:
	.cv_loc	134 1 673 0
	movq	-16(%rbp), %rcx
	movq	-8(%rbp), %rdx
	callq	_ZN53_$LT$$u5b$T$u5d$$u20$as$u20$core..slice..SliceExt$GT$6as_ptr17h46b0d87d7b5dda66E
	movq	%rax, -56(%rbp)
	movq	-32(%rbp), %rcx
	movq	-24(%rbp), %rdx
	callq	_ZN53_$LT$$u5b$T$u5d$$u20$as$u20$core..slice..SliceExt$GT$10as_mut_ptr17h1238fa66858f5f2aE
	movq	%rax, -64(%rbp)
	movq	-32(%rbp), %rcx
	movq	-24(%rbp), %rdx
	callq	_ZN53_$LT$$u5b$T$u5d$$u20$as$u20$core..slice..SliceExt$GT$3len17h639f333c3ed616a7E
	movq	%rax, -72(%rbp)
	.cv_loc	134 1 672 0
	movq	-72(%rbp), %rax
	shlq	$0, %rax
	movq	-64(%rbp), %rcx
	movq	-56(%rbp), %rdx
	movq	%rax, %r8
	callq	memcpy
.Ltmp732:
	.cv_loc	134 1 675 0
	nop
	addq	$112, %rsp
	popq	%rbp
	retq
.Ltmp733:
.Lfunc_end134:
	.seh_handlerdata
	.section	.text,"xr",one_only,_ZN53_$LT$$u5b$T$u5d$$u20$as$u20$core..slice..SliceExt$GT$15copy_from_slice17h93f7a35248bda598E
.Lcfi943:
	.seh_endproc

	.def	 _ZN53_$LT$$u5b$T$u5d$$u20$as$u20$core..slice..SliceExt$GT$3len17h639f333c3ed616a7E;
	.scl	3;
	.type	32;
	.endef
	.section	.text,"xr",one_only,_ZN53_$LT$$u5b$T$u5d$$u20$as$u20$core..slice..SliceExt$GT$3len17h639f333c3ed616a7E
	.p2align	4, 0x90
_ZN53_$LT$$u5b$T$u5d$$u20$as$u20$core..slice..SliceExt$GT$3len17h639f333c3ed616a7E:
.Lfunc_begin135:
	.cv_func_id 135
	.cv_loc	135 1 416 0
.Lcfi944:
.seh_proc _ZN53_$LT$$u5b$T$u5d$$u20$as$u20$core..slice..SliceExt$GT$3len17h639f333c3ed616a7E
	pushq	%rbp
.Lcfi945:
	.seh_pushreg 5
	subq	$40, %rsp
.Lcfi946:
	.seh_stackalloc 40
	leaq	32(%rsp), %rbp
.Lcfi947:
	.seh_setframe 5, 32
.Lcfi948:
	.seh_endprologue
	movq	%rcx, -24(%rbp)
	movq	%rdx, -16(%rbp)
.Ltmp734:
	.cv_loc	135 1 418 0
	movq	-24(%rbp), %rcx
	movq	-16(%rbp), %rdx
	movq	%rcx, -8(%rbp)
	movq	%rdx, (%rbp)
	movq	(%rbp), %rax
	movq	%rax, -32(%rbp)
.Ltmp735:
	.cv_loc	135 1 420 0
	movq	-32(%rbp), %rax
	addq	$40, %rsp
	popq	%rbp
	retq
.Ltmp736:
.Lfunc_end135:
	.seh_handlerdata
	.section	.text,"xr",one_only,_ZN53_$LT$$u5b$T$u5d$$u20$as$u20$core..slice..SliceExt$GT$3len17h639f333c3ed616a7E
.Lcfi949:
	.seh_endproc

	.def	 _ZN53_$LT$$u5b$T$u5d$$u20$as$u20$core..slice..SliceExt$GT$4iter17h6d5c695f2c59b4edE;
	.scl	3;
	.type	32;
	.endef
	.section	.text,"xr",one_only,_ZN53_$LT$$u5b$T$u5d$$u20$as$u20$core..slice..SliceExt$GT$4iter17h6d5c695f2c59b4edE
	.p2align	4, 0x90
_ZN53_$LT$$u5b$T$u5d$$u20$as$u20$core..slice..SliceExt$GT$4iter17h6d5c695f2c59b4edE:
.Lfunc_begin136:
	.cv_func_id 136
	.cv_loc	136 1 279 0
.Lcfi950:
.seh_proc _ZN53_$LT$$u5b$T$u5d$$u20$as$u20$core..slice..SliceExt$GT$4iter17h6d5c695f2c59b4edE
	pushq	%rbp
.Lcfi951:
	.seh_pushreg 5
	subq	$176, %rsp
.Lcfi952:
	.seh_stackalloc 176
	leaq	128(%rsp), %rbp
.Lcfi953:
	.seh_setframe 5, 128
.Lcfi954:
	.seh_endprologue
	movq	%rcx, %rax
	movq	%rdx, (%rbp)
	movq	%r8, 8(%rbp)
.Ltmp737:
	.cv_loc	136 1 281 0
	movq	%rax, -8(%rbp)
	movq	%rcx, -16(%rbp)
	callq	_ZN4core3mem7size_of17h3db975549b7a62b1E
	movq	%rax, -24(%rbp)
	movq	-24(%rbp), %rax
	cmpq	$0, %rax
	jne	.LBB136_3
	movl	$1, %eax
	movl	%eax, %ecx
	.cv_loc	136 1 282 0
	movq	%rcx, 16(%rbp)
	.cv_loc	136 1 281 0
	jmp	.LBB136_7
.LBB136_3:
.Ltmp738:
	.cv_loc	136 1 284 0
	movq	(%rbp), %rcx
	movq	8(%rbp), %rdx
	callq	_ZN53_$LT$$u5b$T$u5d$$u20$as$u20$core..slice..SliceExt$GT$6as_ptr17h46b0d87d7b5dda66E
	movq	%rax, 24(%rbp)
	.cv_loc	136 1 285 0
	movq	24(%rbp), %rcx
	callq	_ZN4core3ptr33_$LT$impl$u20$$BP$const$u20$T$GT$7is_null17h026cd24e592a576eE
	movb	%al, -25(%rbp)
	.cv_loc	136 1 286 0
	movq	24(%rbp), %rax
	movq	%rax, 16(%rbp)
.Ltmp739:
.LBB136_7:
	.cv_loc	136 1 290 0
	movq	16(%rbp), %rax
.Ltmp740:
	.cv_loc	136 1 291 0
	movq	16(%rbp), %rcx
	movq	%rcx, 40(%rbp)
	.cv_loc	136 1 233 0
	movq	40(%rbp), %rcx
	movq	%rax, -40(%rbp)
	callq	_ZN4core5slice13size_from_ptr17ha21e678b476f22a0E
	movq	%rax, -48(%rbp)
	movq	-48(%rbp), %rax
	cmpq	$0, %rax
	jne	.LBB136_10
	.cv_loc	136 1 234 0
	movq	40(%rbp), %rcx
	.cv_loc	136 1 291 0
	movq	(%rbp), %rax
	movq	8(%rbp), %rdx
	movq	%rcx, -56(%rbp)
	movq	%rax, %rcx
	callq	_ZN53_$LT$$u5b$T$u5d$$u20$as$u20$core..slice..SliceExt$GT$3len17h639f333c3ed616a7E
	movq	%rax, -64(%rbp)
	jmp	.LBB136_11
.LBB136_10:
	.cv_loc	136 1 236 0
	movq	40(%rbp), %rcx
	.cv_loc	136 1 291 0
	movq	(%rbp), %rax
	movq	8(%rbp), %rdx
	movq	%rcx, -72(%rbp)
	movq	%rax, %rcx
	callq	_ZN53_$LT$$u5b$T$u5d$$u20$as$u20$core..slice..SliceExt$GT$3len17h639f333c3ed616a7E
	movq	%rax, -80(%rbp)
	jmp	.LBB136_13
.LBB136_11:
	.cv_loc	136 1 234 0
	movq	-56(%rbp), %rcx
	movq	-64(%rbp), %rdx
	callq	_ZN4core3ptr31_$LT$impl$u20$$BP$mut$u20$T$GT$15wrapping_offset17h4bdddfdcdd67fe97E
	movq	%rax, -88(%rbp)
	movq	-88(%rbp), %rax
	movq	%rax, 32(%rbp)
	.cv_loc	136 1 233 0
	jmp	.LBB136_15
.LBB136_13:
	.cv_loc	136 1 236 0
	movq	-72(%rbp), %rcx
	movq	-80(%rbp), %rdx
	callq	_ZN4core3ptr33_$LT$impl$u20$$BP$const$u20$T$GT$6offset17h9e52aded596f8b54E
	movq	%rax, 32(%rbp)
	.cv_loc	136 1 233 0
	jmp	.LBB136_15
.Ltmp741:
.LBB136_15:
	.cv_loc	136 1 289 0
	movq	-16(%rbp), %rax
	movq	-40(%rbp), %rcx
	movq	%rcx, (%rax)
	movq	32(%rbp), %rdx
	movq	%rdx, 8(%rax)
.Ltmp742:
	.cv_loc	136 1 295 0
	movq	-8(%rbp), %rax
	addq	$176, %rsp
	popq	%rbp
	retq
.Ltmp743:
.Lfunc_end136:
	.seh_handlerdata
	.section	.text,"xr",one_only,_ZN53_$LT$$u5b$T$u5d$$u20$as$u20$core..slice..SliceExt$GT$4iter17h6d5c695f2c59b4edE
.Lcfi955:
	.seh_endproc

	.def	 _ZN53_$LT$$u5b$T$u5d$$u20$as$u20$core..slice..SliceExt$GT$6as_ptr17h46b0d87d7b5dda66E;
	.scl	3;
	.type	32;
	.endef
	.section	.text,"xr",one_only,_ZN53_$LT$$u5b$T$u5d$$u20$as$u20$core..slice..SliceExt$GT$6as_ptr17h46b0d87d7b5dda66E
	.p2align	4, 0x90
_ZN53_$LT$$u5b$T$u5d$$u20$as$u20$core..slice..SliceExt$GT$6as_ptr17h46b0d87d7b5dda66E:
.Lfunc_begin137:
	.cv_func_id 137
	.cv_loc	137 1 387 0
.Lcfi956:
.seh_proc _ZN53_$LT$$u5b$T$u5d$$u20$as$u20$core..slice..SliceExt$GT$6as_ptr17h46b0d87d7b5dda66E
	pushq	%rbp
.Lcfi957:
	.seh_pushreg 5
	subq	$16, %rsp
.Lcfi958:
	.seh_stackalloc 16
	leaq	16(%rsp), %rbp
.Lcfi959:
	.seh_setframe 5, 16
.Lcfi960:
	.seh_endprologue
	movq	%rcx, -16(%rbp)
	movq	%rdx, -8(%rbp)
.Ltmp744:
	.cv_loc	137 1 388 0
	movq	-16(%rbp), %rax
	.cv_loc	137 1 389 0
	addq	$16, %rsp
	popq	%rbp
	retq
.Ltmp745:
.Lfunc_end137:
	.seh_handlerdata
	.section	.text,"xr",one_only,_ZN53_$LT$$u5b$T$u5d$$u20$as$u20$core..slice..SliceExt$GT$6as_ptr17h46b0d87d7b5dda66E
.Lcfi961:
	.seh_endproc

	.def	 _ZN53_$LT$$u5b$T$u5d$$u20$as$u20$core..slice..SliceExt$GT$6as_ptr17he988a8900a12a503E;
	.scl	3;
	.type	32;
	.endef
	.section	.text,"xr",one_only,_ZN53_$LT$$u5b$T$u5d$$u20$as$u20$core..slice..SliceExt$GT$6as_ptr17he988a8900a12a503E
	.p2align	4, 0x90
_ZN53_$LT$$u5b$T$u5d$$u20$as$u20$core..slice..SliceExt$GT$6as_ptr17he988a8900a12a503E:
.Lfunc_begin138:
	.cv_func_id 138
	.cv_loc	138 1 387 0
.Lcfi962:
.seh_proc _ZN53_$LT$$u5b$T$u5d$$u20$as$u20$core..slice..SliceExt$GT$6as_ptr17he988a8900a12a503E
	pushq	%rbp
.Lcfi963:
	.seh_pushreg 5
	subq	$16, %rsp
.Lcfi964:
	.seh_stackalloc 16
	leaq	16(%rsp), %rbp
.Lcfi965:
	.seh_setframe 5, 16
.Lcfi966:
	.seh_endprologue
	movq	%rcx, -16(%rbp)
	movq	%rdx, -8(%rbp)
.Ltmp746:
	.cv_loc	138 1 388 0
	movq	-16(%rbp), %rax
	.cv_loc	138 1 389 0
	addq	$16, %rsp
	popq	%rbp
	retq
.Ltmp747:
.Lfunc_end138:
	.seh_handlerdata
	.section	.text,"xr",one_only,_ZN53_$LT$$u5b$T$u5d$$u20$as$u20$core..slice..SliceExt$GT$6as_ptr17he988a8900a12a503E
.Lcfi967:
	.seh_endproc

	.def	 _ZN53_$LT$T$u20$as$u20$core..convert..TryFrom$LT$U$GT$$GT$8try_from17h37b48f19527d6b78E;
	.scl	3;
	.type	32;
	.endef
	.section	.text,"xr",one_only,_ZN53_$LT$T$u20$as$u20$core..convert..TryFrom$LT$U$GT$$GT$8try_from17h37b48f19527d6b78E
	.p2align	4, 0x90
_ZN53_$LT$T$u20$as$u20$core..convert..TryFrom$LT$U$GT$$GT$8try_from17h37b48f19527d6b78E:
.Lfunc_begin139:
	.cv_func_id 139
	.cv_loc	139 23 443 0
.Lcfi968:
.seh_proc _ZN53_$LT$T$u20$as$u20$core..convert..TryFrom$LT$U$GT$$GT$8try_from17h37b48f19527d6b78E
	pushq	%rbp
.Lcfi969:
	.seh_pushreg 5
	subq	$64, %rsp
.Lcfi970:
	.seh_stackalloc 64
	leaq	64(%rsp), %rbp
.Lcfi971:
	.seh_setframe 5, 64
.Lcfi972:
	.seh_endprologue
	movq	%rcx, %rax
	movq	%rdx, -8(%rbp)
.Ltmp748:
	.cv_loc	139 23 444 0
	movq	-8(%rbp), %rdx
	movq	%rcx, -16(%rbp)
	movq	%rdx, %rcx
	movq	%rax, -24(%rbp)
	callq	_ZN50_$LT$T$u20$as$u20$core..convert..From$LT$T$GT$$GT$4from17hfd9ac999322e2cebE
	movq	%rax, -32(%rbp)
	movq	-16(%rbp), %rax
	movq	$0, (%rax)
	movq	-32(%rbp), %rcx
	movq	%rcx, 8(%rax)
	.cv_loc	139 23 445 0
	movq	-24(%rbp), %rax
	addq	$64, %rsp
	popq	%rbp
	retq
.Ltmp749:
.Lfunc_end139:
	.seh_handlerdata
	.section	.text,"xr",one_only,_ZN53_$LT$T$u20$as$u20$core..convert..TryFrom$LT$U$GT$$GT$8try_from17h37b48f19527d6b78E
.Lcfi973:
	.seh_endproc

	.def	 _ZN54_$LT$I$u20$as$u20$core..iter..traits..IntoIterator$GT$9into_iter17ha3f5e5b27f223571E;
	.scl	3;
	.type	32;
	.endef
	.section	.text,"xr",one_only,_ZN54_$LT$I$u20$as$u20$core..iter..traits..IntoIterator$GT$9into_iter17ha3f5e5b27f223571E
	.p2align	4, 0x90
_ZN54_$LT$I$u20$as$u20$core..iter..traits..IntoIterator$GT$9into_iter17ha3f5e5b27f223571E:
.Lfunc_begin140:
	.cv_func_id 140
	.cv_file	24 "C:\\projects\\rust\\src\\libcore\\iter\\traits.rs"
	.cv_loc	140 24 256 0
.Lcfi974:
.seh_proc _ZN54_$LT$I$u20$as$u20$core..iter..traits..IntoIterator$GT$9into_iter17ha3f5e5b27f223571E
	pushq	%rbp
.Lcfi975:
	.seh_pushreg 5
	movq	%rsp, %rbp
.Lcfi976:
	.seh_setframe 5, 0
.Lcfi977:
	.seh_endprologue
	movq	%rcx, %rax
.Ltmp750:
	.cv_loc	140 24 257 0
	movq	(%rdx), %r8
	movq	8(%rdx), %rdx
.Ltmp751:
	movq	%r8, (%rcx)
	movq	%rdx, 8(%rcx)
	.cv_loc	140 24 258 0
	popq	%rbp
	retq
.Ltmp752:
.Lfunc_end140:
	.seh_handlerdata
	.section	.text,"xr",one_only,_ZN54_$LT$I$u20$as$u20$core..iter..traits..IntoIterator$GT$9into_iter17ha3f5e5b27f223571E
.Lcfi978:
	.seh_endproc

	.def	 _ZN54_$LT$I$u20$as$u20$core..iter..traits..IntoIterator$GT$9into_iter17hade996452d567b33E;
	.scl	3;
	.type	32;
	.endef
	.section	.text,"xr",one_only,_ZN54_$LT$I$u20$as$u20$core..iter..traits..IntoIterator$GT$9into_iter17hade996452d567b33E
	.p2align	4, 0x90
_ZN54_$LT$I$u20$as$u20$core..iter..traits..IntoIterator$GT$9into_iter17hade996452d567b33E:
.Lfunc_begin141:
	.cv_func_id 141
	.cv_loc	141 24 256 0
.Lcfi979:
.seh_proc _ZN54_$LT$I$u20$as$u20$core..iter..traits..IntoIterator$GT$9into_iter17hade996452d567b33E
	pushq	%rbp
.Lcfi980:
	.seh_pushreg 5
	movq	%rsp, %rbp
.Lcfi981:
	.seh_setframe 5, 0
.Lcfi982:
	.seh_endprologue
	movq	%rcx, %rax
.Ltmp753:
	.cv_loc	141 24 257 0
	movq	(%rdx), %r8
	movq	8(%rdx), %rdx
.Ltmp754:
	movq	%r8, (%rcx)
	movq	%rdx, 8(%rcx)
	.cv_loc	141 24 258 0
	popq	%rbp
	retq
.Ltmp755:
.Lfunc_end141:
	.seh_handlerdata
	.section	.text,"xr",one_only,_ZN54_$LT$I$u20$as$u20$core..iter..traits..IntoIterator$GT$9into_iter17hade996452d567b33E
.Lcfi983:
	.seh_endproc

	.def	 _ZN55_$LT$$RF$$u27$a$u20$T$u20$as$u20$core..fmt..Display$GT$3fmt17ha7723f8fa2fdba6fE;
	.scl	3;
	.type	32;
	.endef
	.section	.text,"xr",one_only,_ZN55_$LT$$RF$$u27$a$u20$T$u20$as$u20$core..fmt..Display$GT$3fmt17ha7723f8fa2fdba6fE
	.p2align	4, 0x90
_ZN55_$LT$$RF$$u27$a$u20$T$u20$as$u20$core..fmt..Display$GT$3fmt17ha7723f8fa2fdba6fE:
.Lfunc_begin142:
	.cv_func_id 142
	.cv_loc	142 19 1506 0
.Lcfi984:
.seh_proc _ZN55_$LT$$RF$$u27$a$u20$T$u20$as$u20$core..fmt..Display$GT$3fmt17ha7723f8fa2fdba6fE
	pushq	%rbp
.Lcfi985:
	.seh_pushreg 5
	subq	$64, %rsp
.Lcfi986:
	.seh_stackalloc 64
	leaq	64(%rsp), %rbp
.Lcfi987:
	.seh_setframe 5, 64
.Lcfi988:
	.seh_endprologue
	movq	%rcx, -24(%rbp)
	movq	%rdx, -16(%rbp)
.Ltmp756:
	movq	-24(%rbp), %rcx
	movq	(%rcx), %rdx
	movq	8(%rcx), %rcx
	movq	-16(%rbp), %r8
	movq	%rcx, -32(%rbp)
	movq	%rdx, %rcx
	movq	-32(%rbp), %rdx
	callq	_ZN42_$LT$str$u20$as$u20$core..fmt..Display$GT$3fmt17hc1e4f69a2265e771E
	movb	%al, -1(%rbp)
	movb	-1(%rbp), %al
	movb	%al, -8(%rbp)
	movb	-8(%rbp), %al
	addq	$64, %rsp
	popq	%rbp
	retq
.Ltmp757:
.Lfunc_end142:
	.seh_handlerdata
	.section	.text,"xr",one_only,_ZN55_$LT$$RF$$u27$a$u20$T$u20$as$u20$core..fmt..Display$GT$3fmt17ha7723f8fa2fdba6fE
.Lcfi989:
	.seh_endproc

	.def	 _ZN5alloc3vec9from_elem17h42a5bdbaaee30d7aE;
	.scl	3;
	.type	32;
	.endef
	.section	.text,"xr",one_only,_ZN5alloc3vec9from_elem17h42a5bdbaaee30d7aE
	.p2align	4, 0x90
_ZN5alloc3vec9from_elem17h42a5bdbaaee30d7aE:
.Lfunc_begin143:
	.cv_func_id 143
	.cv_loc	143 2 1440 0
.Lcfi990:
.seh_proc _ZN5alloc3vec9from_elem17h42a5bdbaaee30d7aE
	pushq	%rbp
.Lcfi991:
	.seh_pushreg 5
	subq	$64, %rsp
.Lcfi992:
	.seh_stackalloc 64
	leaq	64(%rsp), %rbp
.Lcfi993:
	.seh_setframe 5, 64
.Lcfi994:
	.seh_endprologue
	movb	%dl, %al
	movq	%rcx, %r9
	movb	%al, -9(%rbp)
	movq	%r8, -8(%rbp)
.Ltmp758:
	.cv_loc	143 2 1441 0
	movb	-9(%rbp), %al
	movq	-8(%rbp), %r8
	movzbl	%al, %edx
	movq	%r9, -24(%rbp)
	callq	_ZN47_$LT$u8$u20$as$u20$alloc..vec..SpecFromElem$GT$9from_elem17h307da2eeff22251aE
	.cv_loc	143 2 1442 0
	movq	-24(%rbp), %rax
	addq	$64, %rsp
	popq	%rbp
	retq
.Ltmp759:
.Lfunc_end143:
	.seh_handlerdata
	.section	.text,"xr",one_only,_ZN5alloc3vec9from_elem17h42a5bdbaaee30d7aE
.Lcfi995:
	.seh_endproc

	.def	 _ZN5alloc4heap8box_free17h2bd0b2674cf59030E;
	.scl	3;
	.type	32;
	.endef
	.section	.text,"xr",one_only,_ZN5alloc4heap8box_free17h2bd0b2674cf59030E
	.p2align	4, 0x90
_ZN5alloc4heap8box_free17h2bd0b2674cf59030E:
.Lfunc_begin144:
	.cv_func_id 144
	.cv_file	25 "C:\\projects\\rust\\src\\liballoc\\heap.rs"
	.cv_loc	144 25 257 0
.Lcfi996:
.seh_proc _ZN5alloc4heap8box_free17h2bd0b2674cf59030E
	pushq	%rbp
.Lcfi997:
	.seh_pushreg 5
	subq	$112, %rsp
.Lcfi998:
	.seh_stackalloc 112
	leaq	112(%rsp), %rbp
.Lcfi999:
	.seh_setframe 5, 112
.Lcfi1000:
	.seh_endprologue
	movq	%rcx, -72(%rbp)
.Ltmp760:
	.cv_loc	144 25 258 0
	movq	$24, -56(%rbp)
.Ltmp761:
	.cv_loc	144 25 259 0
	movq	$8, -48(%rbp)
	.cv_loc	144 25 261 0
	cmpq	$0, -56(%rbp)
	je	.LBB144_4
	leaq	-40(%rbp), %rcx
.Ltmp762:
	.cv_loc	144 25 262 0
	movq	-56(%rbp), %rdx
	movq	-48(%rbp), %r8
	callq	_ZN5alloc9allocator6Layout25from_size_align_unchecked17h623a6de22ed9b905E
	jmp	.LBB144_5
.Ltmp763:
.LBB144_4:
	.cv_loc	144 25 261 0
	jmp	.LBB144_7
.LBB144_5:
	leaq	-24(%rbp), %rcx
	leaq	-16(%rbp), %r8
.Ltmp764:
	.cv_loc	144 25 263 0
	movq	-72(%rbp), %rax
	movq	-40(%rbp), %rdx
	movq	-32(%rbp), %r9
	movq	%rdx, -16(%rbp)
	movq	%r9, -8(%rbp)
	movq	%rax, %rdx
	callq	_ZN61_$LT$alloc..heap..Heap$u20$as$u20$alloc..allocator..Alloc$GT$7dealloc17h2d0e14b2b29a6a1bE
.Ltmp765:
	.cv_loc	144 25 261 0
	jmp	.LBB144_7
.Ltmp766:
.LBB144_7:
	.cv_loc	144 25 265 0
	addq	$112, %rsp
	popq	%rbp
	retq
.Ltmp767:
.Lfunc_end144:
	.seh_handlerdata
	.section	.text,"xr",one_only,_ZN5alloc4heap8box_free17h2bd0b2674cf59030E
.Lcfi1001:
	.seh_endproc

	.def	 _ZN5alloc4heap8box_free17h498c52f11f69a135E;
	.scl	3;
	.type	32;
	.endef
	.section	.text,"xr",one_only,_ZN5alloc4heap8box_free17h498c52f11f69a135E
	.p2align	4, 0x90
_ZN5alloc4heap8box_free17h498c52f11f69a135E:
.Lfunc_begin145:
	.cv_func_id 145
	.cv_loc	145 25 257 0
.Lcfi1002:
.seh_proc _ZN5alloc4heap8box_free17h498c52f11f69a135E
	pushq	%rbp
.Lcfi1003:
	.seh_pushreg 5
	subq	$112, %rsp
.Lcfi1004:
	.seh_stackalloc 112
	leaq	112(%rsp), %rbp
.Lcfi1005:
	.seh_setframe 5, 112
.Lcfi1006:
	.seh_endprologue
	movq	%rcx, -80(%rbp)
	movq	%rdx, -72(%rbp)
.Ltmp768:
	.cv_loc	145 25 258 0
	movq	-72(%rbp), %rcx
	movq	8(%rcx), %rcx
	movq	%rcx, -56(%rbp)
.Ltmp769:
	.cv_loc	145 25 259 0
	movq	-72(%rbp), %rax
	movq	16(%rax), %rax
	movq	%rax, -48(%rbp)
	.cv_loc	145 25 261 0
	cmpq	$0, -56(%rbp)
	je	.LBB145_4
	leaq	-40(%rbp), %rcx
.Ltmp770:
	.cv_loc	145 25 262 0
	movq	-56(%rbp), %rdx
	movq	-48(%rbp), %r8
	callq	_ZN5alloc9allocator6Layout25from_size_align_unchecked17h623a6de22ed9b905E
	jmp	.LBB145_5
.Ltmp771:
.LBB145_4:
	.cv_loc	145 25 261 0
	jmp	.LBB145_7
.LBB145_5:
	leaq	-24(%rbp), %rcx
	leaq	-16(%rbp), %r8
.Ltmp772:
	.cv_loc	145 25 263 0
	movq	-80(%rbp), %rdx
	movq	-40(%rbp), %rax
	movq	-32(%rbp), %r9
	movq	%rax, -16(%rbp)
	movq	%r9, -8(%rbp)
	callq	_ZN61_$LT$alloc..heap..Heap$u20$as$u20$alloc..allocator..Alloc$GT$7dealloc17h2d0e14b2b29a6a1bE
.Ltmp773:
	.cv_loc	145 25 261 0
	jmp	.LBB145_7
.Ltmp774:
.LBB145_7:
	.cv_loc	145 25 265 0
	addq	$112, %rsp
	popq	%rbp
	retq
.Ltmp775:
.Lfunc_end145:
	.seh_handlerdata
	.section	.text,"xr",one_only,_ZN5alloc4heap8box_free17h498c52f11f69a135E
.Lcfi1007:
	.seh_endproc

	.def	 _ZN5alloc4heap8box_free17h49e0da94dcb580bcE;
	.scl	3;
	.type	32;
	.endef
	.section	.text,"xr",one_only,_ZN5alloc4heap8box_free17h49e0da94dcb580bcE
	.p2align	4, 0x90
_ZN5alloc4heap8box_free17h49e0da94dcb580bcE:
.Lfunc_begin146:
	.cv_func_id 146
	.cv_loc	146 25 257 0
.Lcfi1008:
.seh_proc _ZN5alloc4heap8box_free17h49e0da94dcb580bcE
	pushq	%rbp
.Lcfi1009:
	.seh_pushreg 5
	subq	$112, %rsp
.Lcfi1010:
	.seh_stackalloc 112
	leaq	112(%rsp), %rbp
.Lcfi1011:
	.seh_setframe 5, 112
.Lcfi1012:
	.seh_endprologue
	movq	%rcx, -72(%rbp)
.Ltmp776:
	.cv_loc	146 25 258 0
	movq	$40, -56(%rbp)
.Ltmp777:
	.cv_loc	146 25 259 0
	movq	$8, -48(%rbp)
	.cv_loc	146 25 261 0
	cmpq	$0, -56(%rbp)
	je	.LBB146_4
	leaq	-40(%rbp), %rcx
.Ltmp778:
	.cv_loc	146 25 262 0
	movq	-56(%rbp), %rdx
	movq	-48(%rbp), %r8
	callq	_ZN5alloc9allocator6Layout25from_size_align_unchecked17h623a6de22ed9b905E
	jmp	.LBB146_5
.Ltmp779:
.LBB146_4:
	.cv_loc	146 25 261 0
	jmp	.LBB146_7
.LBB146_5:
	leaq	-24(%rbp), %rcx
	leaq	-16(%rbp), %r8
.Ltmp780:
	.cv_loc	146 25 263 0
	movq	-72(%rbp), %rax
	movq	-40(%rbp), %rdx
	movq	-32(%rbp), %r9
	movq	%rdx, -16(%rbp)
	movq	%r9, -8(%rbp)
	movq	%rax, %rdx
	callq	_ZN61_$LT$alloc..heap..Heap$u20$as$u20$alloc..allocator..Alloc$GT$7dealloc17h2d0e14b2b29a6a1bE
.Ltmp781:
	.cv_loc	146 25 261 0
	jmp	.LBB146_7
.Ltmp782:
.LBB146_7:
	.cv_loc	146 25 265 0
	addq	$112, %rsp
	popq	%rbp
	retq
.Ltmp783:
.Lfunc_end146:
	.seh_handlerdata
	.section	.text,"xr",one_only,_ZN5alloc4heap8box_free17h49e0da94dcb580bcE
.Lcfi1013:
	.seh_endproc

	.def	 _ZN5alloc5slice29_$LT$impl$u20$$u5b$T$u5d$$GT$10as_mut_ptr17h0268527546ac1b19E;
	.scl	3;
	.type	32;
	.endef
	.section	.text,"xr",one_only,_ZN5alloc5slice29_$LT$impl$u20$$u5b$T$u5d$$GT$10as_mut_ptr17h0268527546ac1b19E
	.p2align	4, 0x90
_ZN5alloc5slice29_$LT$impl$u20$$u5b$T$u5d$$GT$10as_mut_ptr17h0268527546ac1b19E:
.Lfunc_begin147:
	.cv_func_id 147
	.cv_file	26 "C:\\projects\\rust\\src\\liballoc\\slice.rs"
	.cv_loc	147 26 498 0
.Lcfi1014:
.seh_proc _ZN5alloc5slice29_$LT$impl$u20$$u5b$T$u5d$$GT$10as_mut_ptr17h0268527546ac1b19E
	pushq	%rbp
.Lcfi1015:
	.seh_pushreg 5
	subq	$64, %rsp
.Lcfi1016:
	.seh_stackalloc 64
	leaq	64(%rsp), %rbp
.Lcfi1017:
	.seh_setframe 5, 64
.Lcfi1018:
	.seh_endprologue
	movq	%rcx, -16(%rbp)
	movq	%rdx, -8(%rbp)
.Ltmp784:
	.cv_loc	147 26 499 0
	movq	-16(%rbp), %rcx
	movq	-8(%rbp), %rdx
	callq	_ZN53_$LT$$u5b$T$u5d$$u20$as$u20$core..slice..SliceExt$GT$10as_mut_ptr17h1238fa66858f5f2aE
	movq	%rax, -24(%rbp)
	.cv_loc	147 26 500 0
	movq	-24(%rbp), %rax
	addq	$64, %rsp
	popq	%rbp
	retq
.Ltmp785:
.Lfunc_end147:
	.seh_handlerdata
	.section	.text,"xr",one_only,_ZN5alloc5slice29_$LT$impl$u20$$u5b$T$u5d$$GT$10as_mut_ptr17h0268527546ac1b19E
.Lcfi1019:
	.seh_endproc

	.def	 _ZN5alloc5slice29_$LT$impl$u20$$u5b$T$u5d$$GT$15copy_from_slice17h007e89ab5fd9ba30E;
	.scl	3;
	.type	32;
	.endef
	.section	.text,"xr",one_only,_ZN5alloc5slice29_$LT$impl$u20$$u5b$T$u5d$$GT$15copy_from_slice17h007e89ab5fd9ba30E
	.p2align	4, 0x90
_ZN5alloc5slice29_$LT$impl$u20$$u5b$T$u5d$$GT$15copy_from_slice17h007e89ab5fd9ba30E:
.Lfunc_begin148:
	.cv_func_id 148
	.cv_loc	148 26 1467 0
.Lcfi1020:
.seh_proc _ZN5alloc5slice29_$LT$impl$u20$$u5b$T$u5d$$GT$15copy_from_slice17h007e89ab5fd9ba30E
	pushq	%rbp
.Lcfi1021:
	.seh_pushreg 5
	subq	$64, %rsp
.Lcfi1022:
	.seh_stackalloc 64
	leaq	64(%rsp), %rbp
.Lcfi1023:
	.seh_setframe 5, 64
.Lcfi1024:
	.seh_endprologue
	movq	%rcx, -32(%rbp)
	movq	%rdx, -24(%rbp)
	movq	%r8, -16(%rbp)
	movq	%r9, -8(%rbp)
.Ltmp786:
	.cv_loc	148 26 1468 0
	movq	-32(%rbp), %rcx
	movq	-24(%rbp), %rdx
	movq	-16(%rbp), %r8
	movq	-8(%rbp), %r9
	callq	_ZN53_$LT$$u5b$T$u5d$$u20$as$u20$core..slice..SliceExt$GT$15copy_from_slice17h93f7a35248bda598E
	.cv_loc	148 26 1469 0
	nop
	addq	$64, %rsp
	popq	%rbp
	retq
.Ltmp787:
.Lfunc_end148:
	.seh_handlerdata
	.section	.text,"xr",one_only,_ZN5alloc5slice29_$LT$impl$u20$$u5b$T$u5d$$GT$15copy_from_slice17h007e89ab5fd9ba30E
.Lcfi1025:
	.seh_endproc

	.def	 _ZN5alloc5slice29_$LT$impl$u20$$u5b$T$u5d$$GT$3len17h9f4a2cc7b5f90075E;
	.scl	3;
	.type	32;
	.endef
	.section	.text,"xr",one_only,_ZN5alloc5slice29_$LT$impl$u20$$u5b$T$u5d$$GT$3len17h9f4a2cc7b5f90075E
	.p2align	4, 0x90
_ZN5alloc5slice29_$LT$impl$u20$$u5b$T$u5d$$GT$3len17h9f4a2cc7b5f90075E:
.Lfunc_begin149:
	.cv_func_id 149
	.cv_loc	149 26 184 0
.Lcfi1026:
.seh_proc _ZN5alloc5slice29_$LT$impl$u20$$u5b$T$u5d$$GT$3len17h9f4a2cc7b5f90075E
	pushq	%rbp
.Lcfi1027:
	.seh_pushreg 5
	subq	$64, %rsp
.Lcfi1028:
	.seh_stackalloc 64
	leaq	64(%rsp), %rbp
.Lcfi1029:
	.seh_setframe 5, 64
.Lcfi1030:
	.seh_endprologue
	movq	%rcx, -16(%rbp)
	movq	%rdx, -8(%rbp)
.Ltmp788:
	.cv_loc	149 26 185 0
	movq	-16(%rbp), %rcx
	movq	-8(%rbp), %rdx
	callq	_ZN53_$LT$$u5b$T$u5d$$u20$as$u20$core..slice..SliceExt$GT$3len17h639f333c3ed616a7E
	movq	%rax, -24(%rbp)
	.cv_loc	149 26 186 0
	movq	-24(%rbp), %rax
	addq	$64, %rsp
	popq	%rbp
	retq
.Ltmp789:
.Lfunc_end149:
	.seh_handlerdata
	.section	.text,"xr",one_only,_ZN5alloc5slice29_$LT$impl$u20$$u5b$T$u5d$$GT$3len17h9f4a2cc7b5f90075E
.Lcfi1031:
	.seh_endproc

	.def	 _ZN5alloc5slice29_$LT$impl$u20$$u5b$T$u5d$$GT$4iter17h2c7bb8234612b4b7E;
	.scl	3;
	.type	32;
	.endef
